
kernel8.elf:     file format elf64-littleaarch64


Disassembly of section .text:

0000000000080000 <__start>:
   80000:	d53800a0 	mrs	x0, mpidr_el1
   80004:	92400400 	and	x0, x0, #0x3
   80008:	b4000060 	cbz	x0, 80014 <halt+0x8>

000000000008000c <halt>:
   8000c:	d503205f 	wfe
   80010:	17ffffff 	b	8000c <halt>
   80014:	58000420 	ldr	x0, 80098 <kernel+0x10>
   80018:	180003c2 	ldr	w2, 80090 <kernel+0x8>
   8001c:	34000082 	cbz	w2, 8002c <halt+0x20>
   80020:	f800841f 	str	xzr, [x0], #8
   80024:	51000442 	sub	w2, w2, #0x1
   80028:	35ffffa2 	cbnz	w2, 8001c <halt+0x10>
   8002c:	580003a0 	ldr	x0, 800a0 <kernel+0x18>
   80030:	9100001f 	mov	sp, x0

0000000000080034 <el2_entry>:
   80034:	580003a0 	ldr	x0, 800a8 <kernel+0x20>
   80038:	d5181000 	msr	sctlr_el1, x0
   8003c:	580003a0 	ldr	x0, 800b0 <kernel+0x28>
   80040:	d51c1100 	msr	hcr_el2, x0
   80044:	580003a0 	ldr	x0, 800b8 <kernel+0x30>
   80048:	d51c4000 	msr	spsr_el2, x0
   8004c:	10000060 	adr	x0, 80058 <el1_entry>
   80050:	d51c4020 	msr	elr_el2, x0
   80054:	d69f03e0 	eret

0000000000080058 <el1_entry>:
   80058:	58000240 	ldr	x0, 800a0 <kernel+0x18>
   8005c:	9100001f 	mov	sp, x0
   80060:	58000300 	ldr	x0, 800c0 <kernel+0x38>
   80064:	d518c000 	msr	vbar_el1, x0
   80068:	94000406 	bl	81080 <enable_interrupt_controller>
   8006c:	d5034fff 	msr	daifclr, #0xf
   80070:	58000000 	ldr	x0, 80070 <el1_entry+0x18>
   80074:	d5184000 	msr	spsr_el1, x0
   80078:	10000060 	adr	x0, 80084 <el0_entry>
   8007c:	d5184020 	msr	elr_el1, x0
   80080:	d69f03e0 	eret

0000000000080084 <el0_entry>:
   80084:	b26a03ff 	mov	sp, #0x400000              	// #4194304

0000000000080088 <kernel>:
   80088:	9400057e 	bl	81680 <main>
   8008c:	17ffffe0 	b	8000c <halt>
   80090:	000005e2 	.word	0x000005e2
   80094:	00000000 	.inst	0x00000000 ; undefined
   80098:	00086be0 	.word	0x00086be0
   8009c:	00000000 	.word	0x00000000
   800a0:	00080000 	.word	0x00080000
   800a4:	00000000 	.word	0x00000000
   800a8:	30d00800 	.word	0x30d00800
   800ac:	00000000 	.word	0x00000000
   800b0:	80000000 	.word	0x80000000
   800b4:	00000000 	.word	0x00000000
   800b8:	000001c5 	.word	0x000001c5
   800bc:	00000000 	.word	0x00000000
   800c0:	00084800 	.word	0x00084800
	...

00000000000800d0 <bottom_half_enable>:
   800d0:	14001624 	b	85960 <sys_core_timer_enable>

00000000000800d4 <extract_bh_handler>:
   800d4:	d0000022 	adrp	x2, 86000 <bh_core_timer_handler+0x674>
   800d8:	d2800000 	mov	x0, #0x0                   	// #0
   800dc:	f945ac42 	ldr	x2, [x2, #2904]
   800e0:	14000003 	b	800ec <extract_bh_handler+0x18>
   800e4:	f100801f 	cmp	x0, #0x20
   800e8:	54000140 	b.eq	80110 <extract_bh_handler+0x3c>  // b.none
   800ec:	38626801 	ldrb	w1, [x0, x2]
   800f0:	2a0003e3 	mov	w3, w0
   800f4:	91000400 	add	x0, x0, #0x1
   800f8:	34ffff61 	cbz	w1, 800e4 <extract_bh_handler+0x10>
   800fc:	d0000020 	adrp	x0, 86000 <bh_core_timer_handler+0x674>
   80100:	3823c85f 	strb	wzr, [x2, w3, sxtw]
   80104:	f9455000 	ldr	x0, [x0, #2720]
   80108:	f863d800 	ldr	x0, [x0, w3, sxtw #3]
   8010c:	d65f03c0 	ret
   80110:	d2800000 	mov	x0, #0x0                   	// #0
   80114:	d65f03c0 	ret
   80118:	d503201f 	nop
   8011c:	d503201f 	nop

0000000000080120 <push_bh_handle>:
   80120:	a9be7bfd 	stp	x29, x30, [sp, #-32]!
   80124:	910003fd 	mov	x29, sp
   80128:	a90153f3 	stp	x19, x20, [sp, #16]
   8012c:	2a0103f3 	mov	w19, w1
   80130:	aa0003f4 	mov	x20, x0
   80134:	b0000020 	adrp	x0, 85000 <sync_invalid_el1t+0x7c>
   80138:	91268000 	add	x0, x0, #0x9a0
   8013c:	9400050d 	bl	81570 <uart_println>
   80140:	d0000022 	adrp	x2, 86000 <bh_core_timer_handler+0x674>
   80144:	d0000021 	adrp	x1, 86000 <bh_core_timer_handler+0x674>
   80148:	52800020 	mov	w0, #0x1                   	// #1
   8014c:	f9455042 	ldr	x2, [x2, #2720]
   80150:	f945ac21 	ldr	x1, [x1, #2904]
   80154:	f833d854 	str	x20, [x2, w19, sxtw #3]
   80158:	3833c820 	strb	w0, [x1, w19, sxtw]
   8015c:	a94153f3 	ldp	x19, x20, [sp, #16]
   80160:	a8c27bfd 	ldp	x29, x30, [sp], #32
   80164:	d65f03c0 	ret
	...

0000000000080170 <buddy_construct>:
   80170:	d65f03c0 	ret

0000000000080174 <buddy_show>:
   80174:	a9bd7bfd 	stp	x29, x30, [sp, #-48]!
   80178:	b0000021 	adrp	x1, 85000 <sync_invalid_el1t+0x7c>
   8017c:	910003fd 	mov	x29, sp
   80180:	a90153f3 	stp	x19, x20, [sp, #16]
   80184:	aa0003f4 	mov	x20, x0
   80188:	91274020 	add	x0, x1, #0x9d0
   8018c:	940004f9 	bl	81570 <uart_println>
   80190:	b9400e80 	ldr	w0, [x20, #12]
   80194:	7100001f 	cmp	w0, #0x0
   80198:	540002ad 	b.le	801ec <buddy_show+0x78>
   8019c:	a9025bf5 	stp	x21, x22, [sp, #32]
   801a0:	b0000036 	adrp	x22, 85000 <sync_invalid_el1t+0x7c>
   801a4:	b0000035 	adrp	x21, 85000 <sync_invalid_el1t+0x7c>
   801a8:	9127c2d6 	add	x22, x22, #0x9f0
   801ac:	913ea2b5 	add	x21, x21, #0xfa8
   801b0:	d2800013 	mov	x19, #0x0                   	// #0
   801b4:	d503201f 	nop
   801b8:	2a1303e1 	mov	w1, w19
   801bc:	aa1603e0 	mov	x0, x22
   801c0:	9400046c 	bl	81370 <uart_print>
   801c4:	f9400a80 	ldr	x0, [x20, #16]
   801c8:	f8737800 	ldr	x0, [x0, x19, lsl #3]
   801cc:	91000673 	add	x19, x19, #0x1
   801d0:	94000508 	bl	815f0 <show_nodes>
   801d4:	aa1503e0 	mov	x0, x21
   801d8:	940004e6 	bl	81570 <uart_println>
   801dc:	b9400e80 	ldr	w0, [x20, #12]
   801e0:	6b13001f 	cmp	w0, w19
   801e4:	54fffeac 	b.gt	801b8 <buddy_show+0x44>
   801e8:	a9425bf5 	ldp	x21, x22, [sp, #32]
   801ec:	b0000020 	adrp	x0, 85000 <sync_invalid_el1t+0x7c>
   801f0:	a94153f3 	ldp	x19, x20, [sp, #16]
   801f4:	91280000 	add	x0, x0, #0xa00
   801f8:	a8c37bfd 	ldp	x29, x30, [sp], #48
   801fc:	140004dd 	b	81570 <uart_println>

0000000000080200 <cal_index>:
   80200:	2a0003e1 	mov	w1, w0
   80204:	13017c00 	asr	w0, w0, #1
   80208:	34000180 	cbz	w0, 80238 <cal_index+0x38>
   8020c:	52800004 	mov	w4, #0x0                   	// #0
   80210:	52800003 	mov	w3, #0x0                   	// #0
   80214:	d503201f 	nop
   80218:	72000021 	ands	w1, w1, #0x1
   8021c:	13017c02 	asr	w2, w0, #1
   80220:	1a810084 	csel	w4, w4, w1, eq  // eq = none
   80224:	11000463 	add	w3, w3, #0x1
   80228:	2a0003e1 	mov	w1, w0
   8022c:	2a0203e0 	mov	w0, w2
   80230:	35ffff42 	cbnz	w2, 80218 <cal_index+0x18>
   80234:	0b030080 	add	w0, w4, w3
   80238:	d65f03c0 	ret
   8023c:	d503201f 	nop

0000000000080240 <buddy_new>:
   80240:	a9bd7bfd 	stp	x29, x30, [sp, #-48]!
   80244:	910003fd 	mov	x29, sp
   80248:	a90153f3 	stp	x19, x20, [sp, #16]
   8024c:	aa0103f3 	mov	x19, x1
   80250:	2a0003f4 	mov	w20, w0
   80254:	a9025bf5 	stp	x21, x22, [sp, #32]
   80258:	97ffffea 	bl	80200 <cal_index>
   8025c:	91008263 	add	x3, x19, #0x20
   80260:	11000402 	add	w2, w0, #0x1
   80264:	2a0003f6 	mov	w22, w0
   80268:	52800300 	mov	w0, #0x18                  	// #24
   8026c:	29010a74 	stp	w20, w2, [x19, #8]
   80270:	937d7e81 	sbfiz	x1, x20, #3, #32
   80274:	9b200c40 	smaddl	x0, w2, w0, x3
   80278:	a9010263 	stp	x3, x0, [x19, #16]
   8027c:	8b010015 	add	x21, x0, x1
   80280:	940015b4 	bl	85950 <memzero>
   80284:	d0000023 	adrp	x3, 86000 <bh_core_timer_handler+0x674>
   80288:	51000682 	sub	w2, w20, #0x1
   8028c:	f9400a60 	ldr	x0, [x19, #16]
   80290:	93407c42 	sxtw	x2, w2
   80294:	f9454463 	ldr	x3, [x3, #2696]
   80298:	d2800001 	mov	x1, #0x0                   	// #0
   8029c:	8b36cc00 	add	x0, x0, w22, sxtw #3
   802a0:	f9000075 	str	x21, [x3]
   802a4:	940004bb 	bl	81590 <insert_node>
   802a8:	aa1303e0 	mov	x0, x19
   802ac:	a94153f3 	ldp	x19, x20, [sp, #16]
   802b0:	a9425bf5 	ldp	x21, x22, [sp, #32]
   802b4:	a8c37bfd 	ldp	x29, x30, [sp], #48
   802b8:	d65f03c0 	ret
   802bc:	d503201f 	nop

00000000000802c0 <bd_phy2n>:
   802c0:	d0000021 	adrp	x1, 86000 <bh_core_timer_handler+0x674>
   802c4:	f9454421 	ldr	x1, [x1, #2696]
   802c8:	f9400021 	ldr	x1, [x1]
   802cc:	cb010000 	sub	x0, x0, x1
   802d0:	d34cac00 	ubfx	x0, x0, #12, #32
   802d4:	d65f03c0 	ret
   802d8:	d503201f 	nop
   802dc:	d503201f 	nop

00000000000802e0 <pair_shift>:
   802e0:	d0000023 	adrp	x3, 86000 <bh_core_timer_handler+0x674>
   802e4:	9ac22000 	lsl	x0, x0, x2
   802e8:	9ac22022 	lsl	x2, x1, x2
   802ec:	f9454463 	ldr	x3, [x3, #2696]
   802f0:	f9400061 	ldr	x1, [x3]
   802f4:	8b010000 	add	x0, x0, x1
   802f8:	8b010041 	add	x1, x2, x1
   802fc:	d65f03c0 	ret

0000000000080300 <buddy_allocate>:
   80300:	a9ba7bfd 	stp	x29, x30, [sp, #-96]!
   80304:	910003fd 	mov	x29, sp
   80308:	a9046bf9 	stp	x25, x26, [sp, #64]
   8030c:	aa0003fa 	mov	x26, x0
   80310:	2a0103e0 	mov	w0, w1
   80314:	a90573fb 	stp	x27, x28, [sp, #80]
   80318:	97ffffba 	bl	80200 <cal_index>
   8031c:	2a0003fb 	mov	w27, w0
   80320:	f9400b41 	ldr	x1, [x26, #16]
   80324:	937d7c02 	sbfiz	x2, x0, #3, #32
   80328:	8b020020 	add	x0, x1, x2
   8032c:	f87bd823 	ldr	x3, [x1, w27, sxtw #3]
   80330:	b5000823 	cbnz	x3, 80434 <buddy_allocate+0x134>
   80334:	b9400f43 	ldr	w3, [x26, #12]
   80338:	11000779 	add	w25, w27, #0x1
   8033c:	6b19007f 	cmp	w3, w25
   80340:	540009cd 	b.le	80478 <buddy_allocate+0x178>
   80344:	91002042 	add	x2, x2, #0x8
   80348:	8b020021 	add	x1, x1, x2
   8034c:	f9400022 	ldr	x2, [x1]
   80350:	aa0103e0 	mov	x0, x1
   80354:	b4000a62 	cbz	x2, 804a0 <buddy_allocate+0x1a0>
   80358:	a90153f3 	stp	x19, x20, [sp, #16]
   8035c:	94000499 	bl	815c0 <remove_node>
   80360:	51000739 	sub	w25, w25, #0x1
   80364:	aa0003f3 	mov	x19, x0
   80368:	aa0103e2 	mov	x2, x1
   8036c:	6b19037f 	cmp	w27, w25
   80370:	540007ac 	b.gt	80464 <buddy_allocate+0x164>
   80374:	a90363f7 	stp	x23, x24, [sp, #48]
   80378:	937d7f37 	sbfiz	x23, x25, #3, #32
   8037c:	91000438 	add	x24, x1, #0x1
   80380:	a9025bf5 	stp	x21, x22, [sp, #32]
   80384:	d503201f 	nop
   80388:	cb130054 	sub	x20, x2, x19
   8038c:	f9400b56 	ldr	x22, [x26, #16]
   80390:	91000695 	add	x21, x20, #0x1
   80394:	d341fe94 	lsr	x20, x20, #1
   80398:	51000739 	sub	w25, w25, #0x1
   8039c:	8b550675 	add	x21, x19, x21, lsr #1
   803a0:	8b1702d6 	add	x22, x22, x23
   803a4:	8b13029c 	add	x28, x20, x19
   803a8:	aa1503e1 	mov	x1, x21
   803ac:	aa1603e0 	mov	x0, x22
   803b0:	94000478 	bl	81590 <insert_node>
   803b4:	aa1303e1 	mov	x1, x19
   803b8:	aa1c03e2 	mov	x2, x28
   803bc:	aa1603e0 	mov	x0, x22
   803c0:	94000474 	bl	81590 <insert_node>
   803c4:	f9400f41 	ldr	x1, [x26, #24]
   803c8:	91000694 	add	x20, x20, #0x1
   803cc:	cb150318 	sub	x24, x24, x21
   803d0:	aa1603e0 	mov	x0, x22
   803d4:	d10022f7 	sub	x23, x23, #0x8
   803d8:	f8337834 	str	x20, [x1, x19, lsl #3]
   803dc:	f8357838 	str	x24, [x1, x21, lsl #3]
   803e0:	94000478 	bl	815c0 <remove_node>
   803e4:	aa0003f3 	mov	x19, x0
   803e8:	f9400f43 	ldr	x3, [x26, #24]
   803ec:	91000438 	add	x24, x1, #0x1
   803f0:	aa0103e2 	mov	x2, x1
   803f4:	cb000301 	sub	x1, x24, x0
   803f8:	f8337861 	str	x1, [x3, x19, lsl #3]
   803fc:	8b130c60 	add	x0, x3, x19, lsl #3
   80400:	6b19037f 	cmp	w27, w25
   80404:	54fffc2d 	b.le	80388 <buddy_allocate+0x88>
   80408:	a9425bf5 	ldp	x21, x22, [sp, #32]
   8040c:	a94363f7 	ldp	x23, x24, [sp, #48]
   80410:	f9000001 	str	x1, [x0]
   80414:	aa1303e0 	mov	x0, x19
   80418:	aa0203e1 	mov	x1, x2
   8041c:	a94153f3 	ldp	x19, x20, [sp, #16]
   80420:	52800182 	mov	w2, #0xc                   	// #12
   80424:	a9446bf9 	ldp	x25, x26, [sp, #64]
   80428:	a94573fb 	ldp	x27, x28, [sp, #80]
   8042c:	a8c67bfd 	ldp	x29, x30, [sp], #96
   80430:	17ffffac 	b	802e0 <pair_shift>
   80434:	a90153f3 	stp	x19, x20, [sp, #16]
   80438:	94000462 	bl	815c0 <remove_node>
   8043c:	91000423 	add	x3, x1, #0x1
   80440:	f9400f44 	ldr	x4, [x26, #24]
   80444:	cb000063 	sub	x3, x3, x0
   80448:	a94153f3 	ldp	x19, x20, [sp, #16]
   8044c:	52800182 	mov	w2, #0xc                   	// #12
   80450:	f8207883 	str	x3, [x4, x0, lsl #3]
   80454:	a9446bf9 	ldp	x25, x26, [sp, #64]
   80458:	a94573fb 	ldp	x27, x28, [sp, #80]
   8045c:	a8c67bfd 	ldp	x29, x30, [sp], #96
   80460:	17ffffa0 	b	802e0 <pair_shift>
   80464:	f9400f40 	ldr	x0, [x26, #24]
   80468:	91000421 	add	x1, x1, #0x1
   8046c:	cb130021 	sub	x1, x1, x19
   80470:	8b130c00 	add	x0, x0, x19, lsl #3
   80474:	17ffffe7 	b	80410 <buddy_allocate+0x110>
   80478:	540001e1 	b.ne	804b4 <buddy_allocate+0x1b4>  // b.any
   8047c:	b0000020 	adrp	x0, 85000 <sync_invalid_el1t+0x7c>
   80480:	91288000 	add	x0, x0, #0xa20
   80484:	9400043b 	bl	81570 <uart_println>
   80488:	d2800000 	mov	x0, #0x0                   	// #0
   8048c:	d2800001 	mov	x1, #0x0                   	// #0
   80490:	a9446bf9 	ldp	x25, x26, [sp, #64]
   80494:	a94573fb 	ldp	x27, x28, [sp, #80]
   80498:	a8c67bfd 	ldp	x29, x30, [sp], #96
   8049c:	d65f03c0 	ret
   804a0:	11000739 	add	w25, w25, #0x1
   804a4:	91002021 	add	x1, x1, #0x8
   804a8:	6b19007f 	cmp	w3, w25
   804ac:	54fff501 	b.ne	8034c <buddy_allocate+0x4c>  // b.any
   804b0:	17fffff3 	b	8047c <buddy_allocate+0x17c>
   804b4:	8b39cc20 	add	x0, x1, w25, sxtw #3
   804b8:	a90153f3 	stp	x19, x20, [sp, #16]
   804bc:	17ffffa8 	b	8035c <buddy_allocate+0x5c>

00000000000804c0 <try_coalescing>:
   804c0:	a9b77bfd 	stp	x29, x30, [sp, #-144]!
   804c4:	910003fd 	mov	x29, sp
   804c8:	a90363f7 	stp	x23, x24, [sp, #48]
   804cc:	d0000037 	adrp	x23, 86000 <bh_core_timer_handler+0x674>
   804d0:	b0000038 	adrp	x24, 85000 <sync_invalid_el1t+0x7c>
   804d4:	a9046bf9 	stp	x25, x26, [sp, #64]
   804d8:	aa0003f9 	mov	x25, x0
   804dc:	9129a300 	add	x0, x24, #0xa68
   804e0:	a9025bf5 	stp	x21, x22, [sp, #32]
   804e4:	93407c36 	sxtw	x22, w1
   804e8:	f94572e1 	ldr	x1, [x23, #2784]
   804ec:	a90787e0 	stp	x0, x1, [sp, #120]
   804f0:	f9400f20 	ldr	x0, [x25, #24]
   804f4:	a90153f3 	stp	x19, x20, [sp, #16]
   804f8:	aa1603f4 	mov	x20, x22
   804fc:	a90573fb 	stp	x27, x28, [sp, #80]
   80500:	f8767813 	ldr	x19, [x0, x22, lsl #3]
   80504:	2a1303e0 	mov	w0, w19
   80508:	97ffff3e 	bl	80200 <cal_index>
   8050c:	2a0003f7 	mov	w23, w0
   80510:	9ad30ac2 	udiv	x2, x22, x19
   80514:	2a0003e4 	mov	w4, w0
   80518:	52800020 	mov	w0, #0x1                   	// #1
   8051c:	2a1403e1 	mov	w1, w20
   80520:	1ad72003 	lsl	w3, w0, w23
   80524:	b0000020 	adrp	x0, 85000 <sync_invalid_el1t+0x7c>
   80528:	91292000 	add	x0, x0, #0xa48
   8052c:	937d7ef5 	sbfiz	x21, x23, #3, #32
   80530:	7200005c 	ands	w28, w2, #0x1
   80534:	5a830463 	cneg	w3, w3, ne  // ne = any
   80538:	0b14007b 	add	w27, w3, w20
   8053c:	2a1b03e3 	mov	w3, w27
   80540:	9400040c 	bl	81570 <uart_println>
   80544:	f9400b20 	ldr	x0, [x25, #16]
   80548:	8b150001 	add	x1, x0, x21
   8054c:	f90037e1 	str	x1, [sp, #104]
   80550:	f877d81a 	ldr	x26, [x0, w23, sxtw #3]
   80554:	b400085a 	cbz	x26, 8065c <try_coalescing+0x19c>
   80558:	93407f62 	sxtw	x2, w27
   8055c:	aa1a03f8 	mov	x24, x26
   80560:	aa0203e5 	mov	x5, x2
   80564:	14000005 	b	80578 <try_coalescing+0xb8>
   80568:	f9400b01 	ldr	x1, [x24, #16]
   8056c:	aa1803fa 	mov	x26, x24
   80570:	aa0103f8 	mov	x24, x1
   80574:	b4000741 	cbz	x1, 8065c <try_coalescing+0x19c>
   80578:	f9400301 	ldr	x1, [x24]
   8057c:	eb02003f 	cmp	x1, x2
   80580:	54ffff41 	b.ne	80568 <try_coalescing+0xa8>  // b.any
   80584:	f9400f20 	ldr	x0, [x25, #24]
   80588:	d37df041 	lsl	x1, x2, #3
   8058c:	f9003be1 	str	x1, [sp, #112]
   80590:	f90047e5 	str	x5, [sp, #136]
   80594:	f8627800 	ldr	x0, [x0, x2, lsl #3]
   80598:	eb13001f 	cmp	x0, x19
   8059c:	54000601 	b.ne	8065c <try_coalescing+0x19c>  // b.any
   805a0:	f9403fe0 	ldr	x0, [sp, #120]
   805a4:	910022b5 	add	x21, x21, #0x8
   805a8:	2a1b03f3 	mov	w19, w27
   805ac:	940003f1 	bl	81570 <uart_println>
   805b0:	f94043e0 	ldr	x0, [sp, #128]
   805b4:	f9400801 	ldr	x1, [x0, #16]
   805b8:	aa1903e0 	mov	x0, x25
   805bc:	d63f0020 	blr	x1
   805c0:	b0000020 	adrp	x0, 85000 <sync_invalid_el1t+0x7c>
   805c4:	912a6000 	add	x0, x0, #0xa98
   805c8:	940003ea 	bl	81570 <uart_println>
   805cc:	f9400b20 	ldr	x0, [x25, #16]
   805d0:	f94047e5 	ldr	x5, [sp, #136]
   805d4:	8b150015 	add	x21, x0, x21
   805d8:	3400051c 	cbz	w28, 80678 <try_coalescing+0x1b8>
   805dc:	2a1403e2 	mov	w2, w20
   805e0:	2a1b03e1 	mov	w1, w27
   805e4:	b0000020 	adrp	x0, 85000 <sync_invalid_el1t+0x7c>
   805e8:	912b2000 	add	x0, x0, #0xac8
   805ec:	f90047e5 	str	x5, [sp, #136]
   805f0:	940003e0 	bl	81570 <uart_println>
   805f4:	f9400b00 	ldr	x0, [x24, #16]
   805f8:	f9000b40 	str	x0, [x26, #16]
   805fc:	f94037e0 	ldr	x0, [sp, #104]
   80600:	5280005c 	mov	w28, #0x2                   	// #2
   80604:	1ad7239c 	lsl	w28, w28, w23
   80608:	0b130396 	add	w22, w28, w19
   8060c:	510006d6 	sub	w22, w22, #0x1
   80610:	2a1303f4 	mov	w20, w19
   80614:	940003eb 	bl	815c0 <remove_node>
   80618:	aa0003e4 	mov	x4, x0
   8061c:	f9400f23 	ldr	x3, [x25, #24]
   80620:	93407ed6 	sxtw	x22, w22
   80624:	f94047e5 	ldr	x5, [sp, #136]
   80628:	aa1603e2 	mov	x2, x22
   8062c:	f824787f 	str	xzr, [x3, x4, lsl #3]
   80630:	aa1503e0 	mov	x0, x21
   80634:	aa0503e1 	mov	x1, x5
   80638:	93407f93 	sxtw	x19, w28
   8063c:	f9400304 	ldr	x4, [x24]
   80640:	93407e96 	sxtw	x22, w20
   80644:	f824787f 	str	xzr, [x3, x4, lsl #3]
   80648:	940003d2 	bl	81590 <insert_node>
   8064c:	f9400f20 	ldr	x0, [x25, #24]
   80650:	f9403be1 	ldr	x1, [sp, #112]
   80654:	f8216813 	str	x19, [x0, x1]
   80658:	17ffffab 	b	80504 <try_coalescing+0x44>
   8065c:	a94153f3 	ldp	x19, x20, [sp, #16]
   80660:	a9425bf5 	ldp	x21, x22, [sp, #32]
   80664:	a94363f7 	ldp	x23, x24, [sp, #48]
   80668:	a9446bf9 	ldp	x25, x26, [sp, #64]
   8066c:	a94573fb 	ldp	x27, x28, [sp, #80]
   80670:	a8c97bfd 	ldp	x29, x30, [sp], #144
   80674:	d65f03c0 	ret
   80678:	d37df2c0 	lsl	x0, x22, #3
   8067c:	aa1603e5 	mov	x5, x22
   80680:	2a1403f3 	mov	w19, w20
   80684:	f9003be0 	str	x0, [sp, #112]
   80688:	17ffffd5 	b	805dc <try_coalescing+0x11c>
   8068c:	d503201f 	nop

0000000000080690 <buddy_deallocate>:
   80690:	a9bd7bfd 	stp	x29, x30, [sp, #-48]!
   80694:	910003fd 	mov	x29, sp
   80698:	a9025bf5 	stp	x21, x22, [sp, #32]
   8069c:	aa0003f5 	mov	x21, x0
   806a0:	93407c36 	sxtw	x22, w1
   806a4:	f9400c00 	ldr	x0, [x0, #24]
   806a8:	f8767800 	ldr	x0, [x0, x22, lsl #3]
   806ac:	b40002e0 	cbz	x0, 80708 <buddy_deallocate+0x78>
   806b0:	a90153f3 	stp	x19, x20, [sp, #16]
   806b4:	97fffed3 	bl	80200 <cal_index>
   806b8:	52800034 	mov	w20, #0x1                   	// #1
   806bc:	f9400aa2 	ldr	x2, [x21, #16]
   806c0:	1ac02294 	lsl	w20, w20, w0
   806c4:	0b160294 	add	w20, w20, w22
   806c8:	aa1603e1 	mov	x1, x22
   806cc:	51000694 	sub	w20, w20, #0x1
   806d0:	8b20cc40 	add	x0, x2, w0, sxtw #3
   806d4:	93407e82 	sxtw	x2, w20
   806d8:	940003ae 	bl	81590 <insert_node>
   806dc:	2a1403e2 	mov	w2, w20
   806e0:	2a1603e1 	mov	w1, w22
   806e4:	b0000020 	adrp	x0, 85000 <sync_invalid_el1t+0x7c>
   806e8:	912c2000 	add	x0, x0, #0xb08
   806ec:	940003a1 	bl	81570 <uart_println>
   806f0:	2a1603e1 	mov	w1, w22
   806f4:	aa1503e0 	mov	x0, x21
   806f8:	a94153f3 	ldp	x19, x20, [sp, #16]
   806fc:	a9425bf5 	ldp	x21, x22, [sp, #32]
   80700:	a8c37bfd 	ldp	x29, x30, [sp], #48
   80704:	17ffff6f 	b	804c0 <try_coalescing>
   80708:	a9425bf5 	ldp	x21, x22, [sp, #32]
   8070c:	b0000020 	adrp	x0, 85000 <sync_invalid_el1t+0x7c>
   80710:	a8c37bfd 	ldp	x29, x30, [sp], #48
   80714:	912b8000 	add	x0, x0, #0xae0
   80718:	14000396 	b	81570 <uart_println>
   8071c:	00000000 	.inst	0x00000000 ; undefined

0000000000080720 <show_invalid_entry_message>:
   80720:	a9be7bfd 	stp	x29, x30, [sp, #-32]!
   80724:	910003fd 	mov	x29, sp
   80728:	a90153f3 	stp	x19, x20, [sp, #16]
   8072c:	aa0103f3 	mov	x19, x1
   80730:	aa0203f4 	mov	x20, x2
   80734:	3100041f 	cmn	w0, #0x1
   80738:	54000100 	b.eq	80758 <show_invalid_entry_message+0x38>  // b.none
   8073c:	d0000021 	adrp	x1, 86000 <bh_core_timer_handler+0x674>
   80740:	2a0003e3 	mov	w3, w0
   80744:	b0000020 	adrp	x0, 85000 <sync_invalid_el1t+0x7c>
   80748:	912c8000 	add	x0, x0, #0xb20
   8074c:	f9458421 	ldr	x1, [x1, #2824]
   80750:	f863d821 	ldr	x1, [x1, w3, sxtw #3]
   80754:	94000387 	bl	81570 <uart_println>
   80758:	aa1403e1 	mov	x1, x20
   8075c:	92402e63 	and	x3, x19, #0xfff
   80760:	d35afe62 	lsr	x2, x19, #26
   80764:	b0000020 	adrp	x0, 85000 <sync_invalid_el1t+0x7c>
   80768:	a94153f3 	ldp	x19, x20, [sp, #16]
   8076c:	912cc000 	add	x0, x0, #0xb30
   80770:	a8c27bfd 	ldp	x29, x30, [sp], #32
   80774:	1400037f 	b	81570 <uart_println>
   80778:	d503201f 	nop
   8077c:	d503201f 	nop

0000000000080780 <syscall>:
   80780:	a9bf7bfd 	stp	x29, x30, [sp, #-16]!
   80784:	910003fd 	mov	x29, sp
   80788:	7100041f 	cmp	w0, #0x1
   8078c:	540000e0 	b.eq	807a8 <syscall+0x28>  // b.none
   80790:	7100081f 	cmp	w0, #0x2
   80794:	54000200 	b.eq	807d4 <syscall+0x54>  // b.none
   80798:	34000160 	cbz	w0, 807c4 <syscall+0x44>
   8079c:	d2800020 	mov	x0, #0x1                   	// #1
   807a0:	a8c17bfd 	ldp	x29, x30, [sp], #16
   807a4:	d65f03c0 	ret
   807a8:	94000e36 	bl	84080 <sys_print_time>
   807ac:	b0000020 	adrp	x0, 85000 <sync_invalid_el1t+0x7c>
   807b0:	912e6000 	add	x0, x0, #0xb98
   807b4:	94000dc7 	bl	83ed0 <uart_puts>
   807b8:	d2800000 	mov	x0, #0x0                   	// #0
   807bc:	a8c17bfd 	ldp	x29, x30, [sp], #16
   807c0:	d65f03c0 	ret
   807c4:	94001467 	bl	85960 <sys_core_timer_enable>
   807c8:	d2800000 	mov	x0, #0x0                   	// #0
   807cc:	a8c17bfd 	ldp	x29, x30, [sp], #16
   807d0:	d65f03c0 	ret
   807d4:	97fffe3f 	bl	800d0 <bottom_half_enable>
   807d8:	d2800000 	mov	x0, #0x0                   	// #0
   807dc:	a8c17bfd 	ldp	x29, x30, [sp], #16
   807e0:	d65f03c0 	ret

00000000000807e4 <exception_handler>:
   807e4:	a9ba7bfd 	stp	x29, x30, [sp, #-96]!
   807e8:	910003fd 	mov	x29, sp
   807ec:	a90153f3 	stp	x19, x20, [sp, #16]
   807f0:	2a0003f4 	mov	w20, w0
   807f4:	a9046bf9 	stp	x25, x26, [sp, #64]
   807f8:	f9002bfb 	str	x27, [sp, #80]
   807fc:	aa0803fb 	mov	x27, x8
   80800:	d538403a 	mrs	x26, elr_el1
   80804:	d5385213 	mrs	x19, esr_el1
   80808:	f2402e7f 	tst	x19, #0xfff
   8080c:	d35afe60 	lsr	x0, x19, #26
   80810:	7a550800 	ccmp	w0, #0x15, #0x0, eq  // eq = none
   80814:	54000120 	b.eq	80838 <exception_handler+0x54>  // b.none
   80818:	aa1a03e2 	mov	x2, x26
   8081c:	aa1303e1 	mov	x1, x19
   80820:	a94153f3 	ldp	x19, x20, [sp, #16]
   80824:	12800000 	mov	w0, #0xffffffff            	// #-1
   80828:	a9446bf9 	ldp	x25, x26, [sp, #64]
   8082c:	f9402bfb 	ldr	x27, [sp, #80]
   80830:	a8c67bfd 	ldp	x29, x30, [sp], #96
   80834:	17ffffbb 	b	80720 <show_invalid_entry_message>
   80838:	2a0503f9 	mov	w25, w5
   8083c:	a9025bf5 	stp	x21, x22, [sp, #32]
   80840:	2a0203f6 	mov	w22, w2
   80844:	2a0103f5 	mov	w21, w1
   80848:	a90363f7 	stp	x23, x24, [sp, #48]
   8084c:	2a0303f7 	mov	w23, w3
   80850:	2a0403f8 	mov	w24, w4
   80854:	aa1b03e1 	mov	x1, x27
   80858:	b0000020 	adrp	x0, 85000 <sync_invalid_el1t+0x7c>
   8085c:	912e8000 	add	x0, x0, #0xba0
   80860:	94000344 	bl	81570 <uart_println>
   80864:	93407f26 	sxtw	x6, w25
   80868:	93407f05 	sxtw	x5, w24
   8086c:	93407ee4 	sxtw	x4, w23
   80870:	93407ec3 	sxtw	x3, w22
   80874:	93407ea2 	sxtw	x2, w21
   80878:	93407e81 	sxtw	x1, w20
   8087c:	2a1b03e0 	mov	w0, w27
   80880:	97ffffc0 	bl	80780 <syscall>
   80884:	aa0003f4 	mov	x20, x0
   80888:	aa1403e1 	mov	x1, x20
   8088c:	b0000020 	adrp	x0, 85000 <sync_invalid_el1t+0x7c>
   80890:	912f2000 	add	x0, x0, #0xbc8
   80894:	94000337 	bl	81570 <uart_println>
   80898:	b0000020 	adrp	x0, 85000 <sync_invalid_el1t+0x7c>
   8089c:	912f8000 	add	x0, x0, #0xbe0
   808a0:	94000334 	bl	81570 <uart_println>
   808a4:	b4000114 	cbz	x20, 808c4 <exception_handler+0xe0>
   808a8:	aa1b03e1 	mov	x1, x27
   808ac:	b0000020 	adrp	x0, 85000 <sync_invalid_el1t+0x7c>
   808b0:	912fe000 	add	x0, x0, #0xbf8
   808b4:	9400032f 	bl	81570 <uart_println>
   808b8:	a9425bf5 	ldp	x21, x22, [sp, #32]
   808bc:	a94363f7 	ldp	x23, x24, [sp, #48]
   808c0:	17ffffd6 	b	80818 <exception_handler+0x34>
   808c4:	a94153f3 	ldp	x19, x20, [sp, #16]
   808c8:	a9425bf5 	ldp	x21, x22, [sp, #32]
   808cc:	a94363f7 	ldp	x23, x24, [sp, #48]
   808d0:	a9446bf9 	ldp	x25, x26, [sp, #64]
   808d4:	f9402bfb 	ldr	x27, [sp, #80]
   808d8:	a8c67bfd 	ldp	x29, x30, [sp], #96
   808dc:	d65f03c0 	ret

00000000000808e0 <fat_create>:
   808e0:	d65f03c0 	ret

00000000000808e4 <fat_write>:
   808e4:	d10903ff 	sub	sp, sp, #0x240
   808e8:	a9007bfd 	stp	x29, x30, [sp]
   808ec:	910003fd 	mov	x29, sp
   808f0:	a9025bf5 	stp	x21, x22, [sp, #32]
   808f4:	aa0003f6 	mov	x22, x0
   808f8:	f9400800 	ldr	x0, [x0, #16]
   808fc:	a90153f3 	stp	x19, x20, [sp, #16]
   80900:	f9402814 	ldr	x20, [x0, #80]
   80904:	b9401a80 	ldr	w0, [x20, #24]
   80908:	71003c1f 	cmp	w0, #0xf
   8090c:	54000888 	b.hi	80a1c <fat_write+0x138>  // b.pmore
   80910:	f9400684 	ldr	x4, [x20, #8]
   80914:	a90363f7 	stp	x23, x24, [sp, #48]
   80918:	b9401280 	ldr	w0, [x20, #16]
   8091c:	aa0203f7 	mov	x23, x2
   80920:	b9400c82 	ldr	w2, [x4, #12]
   80924:	6b02001f 	cmp	w0, w2
   80928:	54000780 	b.eq	80a18 <fat_write+0x134>  // b.none
   8092c:	39401083 	ldrb	w3, [x4, #4]
   80930:	910103f8 	add	x24, sp, #0x40
   80934:	b9400887 	ldr	w7, [x4, #8]
   80938:	aa0103f5 	mov	x21, x1
   8093c:	b9401680 	ldr	w0, [x20, #20]
   80940:	aa1803e1 	mov	x1, x24
   80944:	39400085 	ldrb	w5, [x4]
   80948:	f9400286 	ldr	x6, [x20]
   8094c:	4b020000 	sub	w0, w0, w2
   80950:	1b077c63 	mul	w3, w3, w7
   80954:	79400482 	ldrh	w2, [x4, #2]
   80958:	1b050c03 	madd	w3, w0, w5, w3
   8095c:	b94000c4 	ldr	w4, [x6]
   80960:	0b040040 	add	w0, w2, w4
   80964:	0b000060 	add	w0, w3, w0
   80968:	9400037a 	bl	81750 <readblock>
   8096c:	b9401a80 	ldr	w0, [x20, #24]
   80970:	910173e1 	add	x1, sp, #0x5c
   80974:	d37be800 	lsl	x0, x0, #5
   80978:	b8606833 	ldr	w19, [x1, x0]
   8097c:	340004f3 	cbz	w19, 80a18 <fat_write+0x134>
   80980:	a9400285 	ldp	x5, x0, [x20]
   80984:	2a1303f3 	mov	w19, w19
   80988:	b9401294 	ldr	w20, [x20, #16]
   8098c:	aa1803e1 	mov	x1, x24
   80990:	f9400ec2 	ldr	x2, [x22, #24]
   80994:	29411c06 	ldp	w6, w7, [x0, #8]
   80998:	cb020273 	sub	x19, x19, x2
   8099c:	39401003 	ldrb	w3, [x0, #4]
   809a0:	eb17027f 	cmp	x19, x23
   809a4:	39400004 	ldrb	w4, [x0]
   809a8:	4b070294 	sub	w20, w20, w7
   809ac:	b94000a2 	ldr	w2, [x5]
   809b0:	9a979273 	csel	x19, x19, x23, ls  // ls = plast
   809b4:	79400400 	ldrh	w0, [x0, #2]
   809b8:	1b067c63 	mul	w3, w3, w6
   809bc:	1b040e94 	madd	w20, w20, w4, w3
   809c0:	0b020000 	add	w0, w0, w2
   809c4:	0b000294 	add	w20, w20, w0
   809c8:	2a1403e0 	mov	w0, w20
   809cc:	94000361 	bl	81750 <readblock>
   809d0:	f9400ec1 	ldr	x1, [x22, #24]
   809d4:	aa1303e2 	mov	x2, x19
   809d8:	aa1803e0 	mov	x0, x24
   809dc:	8b0102a1 	add	x1, x21, x1
   809e0:	94000254 	bl	81330 <memcpy>
   809e4:	aa1803e1 	mov	x1, x24
   809e8:	2a1403e0 	mov	w0, w20
   809ec:	940003a1 	bl	81870 <writeblock>
   809f0:	f9400ec1 	ldr	x1, [x22, #24]
   809f4:	2a1303e0 	mov	w0, w19
   809f8:	a94363f7 	ldp	x23, x24, [sp, #48]
   809fc:	8b130021 	add	x1, x1, x19
   80a00:	f9000ec1 	str	x1, [x22, #24]
   80a04:	a9407bfd 	ldp	x29, x30, [sp]
   80a08:	a94153f3 	ldp	x19, x20, [sp, #16]
   80a0c:	a9425bf5 	ldp	x21, x22, [sp, #32]
   80a10:	910903ff 	add	sp, sp, #0x240
   80a14:	d65f03c0 	ret
   80a18:	a94363f7 	ldp	x23, x24, [sp, #48]
   80a1c:	12800000 	mov	w0, #0xffffffff            	// #-1
   80a20:	a9407bfd 	ldp	x29, x30, [sp]
   80a24:	a94153f3 	ldp	x19, x20, [sp, #16]
   80a28:	a9425bf5 	ldp	x21, x22, [sp, #32]
   80a2c:	910903ff 	add	sp, sp, #0x240
   80a30:	d65f03c0 	ret

0000000000080a34 <fat_read>:
   80a34:	d10903ff 	sub	sp, sp, #0x240
   80a38:	a9007bfd 	stp	x29, x30, [sp]
   80a3c:	910003fd 	mov	x29, sp
   80a40:	a9025bf5 	stp	x21, x22, [sp, #32]
   80a44:	aa0003f5 	mov	x21, x0
   80a48:	f9400800 	ldr	x0, [x0, #16]
   80a4c:	a90153f3 	stp	x19, x20, [sp, #16]
   80a50:	f9402814 	ldr	x20, [x0, #80]
   80a54:	b9401a80 	ldr	w0, [x20, #24]
   80a58:	71003c1f 	cmp	w0, #0xf
   80a5c:	54000808 	b.hi	80b5c <fat_read+0x128>  // b.pmore
   80a60:	f9400684 	ldr	x4, [x20, #8]
   80a64:	a90363f7 	stp	x23, x24, [sp, #48]
   80a68:	b9401280 	ldr	w0, [x20, #16]
   80a6c:	aa0203f7 	mov	x23, x2
   80a70:	b9400c82 	ldr	w2, [x4, #12]
   80a74:	6b02001f 	cmp	w0, w2
   80a78:	54000700 	b.eq	80b58 <fat_read+0x124>  // b.none
   80a7c:	39401083 	ldrb	w3, [x4, #4]
   80a80:	910103f8 	add	x24, sp, #0x40
   80a84:	b9400887 	ldr	w7, [x4, #8]
   80a88:	aa0103f6 	mov	x22, x1
   80a8c:	b9401680 	ldr	w0, [x20, #20]
   80a90:	aa1803e1 	mov	x1, x24
   80a94:	39400085 	ldrb	w5, [x4]
   80a98:	f9400286 	ldr	x6, [x20]
   80a9c:	4b020000 	sub	w0, w0, w2
   80aa0:	1b077c63 	mul	w3, w3, w7
   80aa4:	79400482 	ldrh	w2, [x4, #2]
   80aa8:	1b050c03 	madd	w3, w0, w5, w3
   80aac:	b94000c4 	ldr	w4, [x6]
   80ab0:	0b040040 	add	w0, w2, w4
   80ab4:	0b000060 	add	w0, w3, w0
   80ab8:	94000326 	bl	81750 <readblock>
   80abc:	b9401a80 	ldr	w0, [x20, #24]
   80ac0:	910173e1 	add	x1, sp, #0x5c
   80ac4:	d37be800 	lsl	x0, x0, #5
   80ac8:	b8606833 	ldr	w19, [x1, x0]
   80acc:	34000473 	cbz	w19, 80b58 <fat_read+0x124>
   80ad0:	a9401286 	ldp	x6, x4, [x20]
   80ad4:	2a1303f3 	mov	w19, w19
   80ad8:	b9401283 	ldr	w3, [x20, #16]
   80adc:	aa1803e1 	mov	x1, x24
   80ae0:	f9400ea7 	ldr	x7, [x21, #24]
   80ae4:	29411480 	ldp	w0, w5, [x4, #8]
   80ae8:	cb070273 	sub	x19, x19, x7
   80aec:	39401082 	ldrb	w2, [x4, #4]
   80af0:	eb17027f 	cmp	x19, x23
   80af4:	4b050063 	sub	w3, w3, w5
   80af8:	39400085 	ldrb	w5, [x4]
   80afc:	9a979273 	csel	x19, x19, x23, ls  // ls = plast
   80b00:	1b007c42 	mul	w2, w2, w0
   80b04:	79400480 	ldrh	w0, [x4, #2]
   80b08:	1b050862 	madd	w2, w3, w5, w2
   80b0c:	b94000c4 	ldr	w4, [x6]
   80b10:	0b040000 	add	w0, w0, w4
   80b14:	0b000040 	add	w0, w2, w0
   80b18:	9400030e 	bl	81750 <readblock>
   80b1c:	f9400ea1 	ldr	x1, [x21, #24]
   80b20:	aa1603e0 	mov	x0, x22
   80b24:	aa1303e2 	mov	x2, x19
   80b28:	8b010301 	add	x1, x24, x1
   80b2c:	94000201 	bl	81330 <memcpy>
   80b30:	f9400ea1 	ldr	x1, [x21, #24]
   80b34:	2a1303e0 	mov	w0, w19
   80b38:	a94363f7 	ldp	x23, x24, [sp, #48]
   80b3c:	8b130021 	add	x1, x1, x19
   80b40:	f9000ea1 	str	x1, [x21, #24]
   80b44:	a9407bfd 	ldp	x29, x30, [sp]
   80b48:	a94153f3 	ldp	x19, x20, [sp, #16]
   80b4c:	a9425bf5 	ldp	x21, x22, [sp, #32]
   80b50:	910903ff 	add	sp, sp, #0x240
   80b54:	d65f03c0 	ret
   80b58:	a94363f7 	ldp	x23, x24, [sp, #48]
   80b5c:	12800000 	mov	w0, #0xffffffff            	// #-1
   80b60:	a9407bfd 	ldp	x29, x30, [sp]
   80b64:	a94153f3 	ldp	x19, x20, [sp, #16]
   80b68:	a9425bf5 	ldp	x21, x22, [sp, #32]
   80b6c:	910903ff 	add	sp, sp, #0x240
   80b70:	d65f03c0 	ret

0000000000080b74 <fat_read_member>:
   80b74:	aa0003e5 	mov	x5, x0
   80b78:	34000181 	cbz	w1, 80ba8 <fat_read_member+0x34>
   80b7c:	d2800002 	mov	x2, #0x0                   	// #0
   80b80:	d2800000 	mov	x0, #0x0                   	// #0
   80b84:	d503201f 	nop
   80b88:	386268a3 	ldrb	w3, [x5, x2]
   80b8c:	531d7044 	lsl	w4, w2, #3
   80b90:	91000442 	add	x2, x2, #0x1
   80b94:	1ac42063 	lsl	w3, w3, w4
   80b98:	8b23c000 	add	x0, x0, w3, sxtw
   80b9c:	6b02003f 	cmp	w1, w2
   80ba0:	54ffff48 	b.hi	80b88 <fat_read_member+0x14>  // b.pmore
   80ba4:	d65f03c0 	ret
   80ba8:	d2800000 	mov	x0, #0x0                   	// #0
   80bac:	d65f03c0 	ret

0000000000080bb0 <fat_lookup>:
   80bb0:	d11243ff 	sub	sp, sp, #0x490
   80bb4:	a9007bfd 	stp	x29, x30, [sp]
   80bb8:	910003fd 	mov	x29, sp
   80bbc:	a90153f3 	stp	x19, x20, [sp, #16]
   80bc0:	aa0003f3 	mov	x19, x0
   80bc4:	f90043e0 	str	x0, [sp, #128]
   80bc8:	aa0103e0 	mov	x0, x1
   80bcc:	aa0203e1 	mov	x1, x2
   80bd0:	a9025bf5 	stp	x21, x22, [sp, #32]
   80bd4:	a90363f7 	stp	x23, x24, [sp, #48]
   80bd8:	a90573fb 	stp	x27, x28, [sp, #80]
   80bdc:	aa0203fb 	mov	x27, x2
   80be0:	f90047e0 	str	x0, [sp, #136]
   80be4:	b0000020 	adrp	x0, 85000 <sync_invalid_el1t+0x7c>
   80be8:	91368000 	add	x0, x0, #0xda0
   80bec:	94000261 	bl	81570 <uart_println>
   80bf0:	d2804000 	mov	x0, #0x200                 	// #512
   80bf4:	9400078f 	bl	82a30 <kalloc>
   80bf8:	f9402a77 	ldr	x23, [x19, #80]
   80bfc:	b94012f6 	ldr	w22, [x23, #16]
   80c00:	72041adf 	tst	w22, #0xf0000007
   80c04:	54001160 	b.eq	80e30 <fat_lookup+0x280>  // b.none
   80c08:	aa0003f8 	mov	x24, x0
   80c0c:	a9046bf9 	stp	x25, x26, [sp, #64]
   80c10:	b000003a 	adrp	x26, 85000 <sync_invalid_el1t+0x7c>
   80c14:	91370340 	add	x0, x26, #0xdc0
   80c18:	b0000035 	adrp	x21, 85000 <sync_invalid_el1t+0x7c>
   80c1c:	910243f9 	add	x25, sp, #0x90
   80c20:	913782b5 	add	x21, x21, #0xde0
   80c24:	f90037e0 	str	x0, [sp, #104]
   80c28:	91006b00 	add	x0, x24, #0x1a
   80c2c:	f9003be0 	str	x0, [sp, #112]
   80c30:	910a43e0 	add	x0, sp, #0x290
   80c34:	f9003fe0 	str	x0, [sp, #120]
   80c38:	f94037e0 	ldr	x0, [sp, #104]
   80c3c:	2a1603e1 	mov	w1, w22
   80c40:	aa1803fa 	mov	x26, x24
   80c44:	aa1903f3 	mov	x19, x25
   80c48:	5280001c 	mov	w28, #0x0                   	// #0
   80c4c:	94000249 	bl	81570 <uart_println>
   80c50:	a9400ee7 	ldp	x7, x3, [x23]
   80c54:	aa1803e1 	mov	x1, x24
   80c58:	f9403bf4 	ldr	x20, [sp, #112]
   80c5c:	29410069 	ldp	w9, w0, [x3, #8]
   80c60:	39401064 	ldrb	w4, [x3, #4]
   80c64:	39400068 	ldrb	w8, [x3]
   80c68:	4b0002c0 	sub	w0, w22, w0
   80c6c:	b94000e7 	ldr	w7, [x7]
   80c70:	79400463 	ldrh	w3, [x3, #2]
   80c74:	1b097c84 	mul	w4, w4, w9
   80c78:	0b070063 	add	w3, w3, w7
   80c7c:	1b081000 	madd	w0, w0, w8, w4
   80c80:	0b030000 	add	w0, w0, w3
   80c84:	940002b3 	bl	81750 <readblock>
   80c88:	a9400ee7 	ldp	x7, x3, [x23]
   80c8c:	aa1903e1 	mov	x1, x25
   80c90:	29410069 	ldp	w9, w0, [x3, #8]
   80c94:	39401064 	ldrb	w4, [x3, #4]
   80c98:	39400068 	ldrb	w8, [x3]
   80c9c:	4b0002c0 	sub	w0, w22, w0
   80ca0:	79400463 	ldrh	w3, [x3, #2]
   80ca4:	b94000e7 	ldr	w7, [x7]
   80ca8:	1b097c84 	mul	w4, w4, w9
   80cac:	0b070063 	add	w3, w3, w7
   80cb0:	1b081000 	madd	w0, w0, w8, w4
   80cb4:	0b030000 	add	w0, w0, w3
   80cb8:	940002a6 	bl	81750 <readblock>
   80cbc:	d503201f 	nop
   80cc0:	f900027a 	str	x26, [x19]
   80cc4:	52800041 	mov	w1, #0x2                   	// #2
   80cc8:	91005340 	add	x0, x26, #0x14
   80ccc:	97ffffaa 	bl	80b74 <fat_read_member>
   80cd0:	aa0003e3 	mov	x3, x0
   80cd4:	79002a63 	strh	w3, [x19, #20]
   80cd8:	52800041 	mov	w1, #0x2                   	// #2
   80cdc:	aa1403e0 	mov	x0, x20
   80ce0:	97ffffa5 	bl	80b74 <fat_read_member>
   80ce4:	aa0003e3 	mov	x3, x0
   80ce8:	79003663 	strh	w3, [x19, #26]
   80cec:	52800081 	mov	w1, #0x4                   	// #4
   80cf0:	91007340 	add	x0, x26, #0x1c
   80cf4:	97ffffa0 	bl	80b74 <fat_read_member>
   80cf8:	aa0003e3 	mov	x3, x0
   80cfc:	f9400261 	ldr	x1, [x19]
   80d00:	b9001e63 	str	w3, [x19, #28]
   80d04:	aa1503e0 	mov	x0, x21
   80d08:	9400021a 	bl	81570 <uart_println>
   80d0c:	f9400264 	ldr	x4, [x19]
   80d10:	d2800000 	mov	x0, #0x0                   	// #0
   80d14:	d503201f 	nop
   80d18:	38606881 	ldrb	w1, [x4, x0]
   80d1c:	7100803f 	cmp	w1, #0x20
   80d20:	54000080 	b.eq	80d30 <fat_lookup+0x180>  // b.none
   80d24:	38606b63 	ldrb	w3, [x27, x0]
   80d28:	6b01007f 	cmp	w3, w1
   80d2c:	540005c1 	b.ne	80de4 <fat_lookup+0x234>  // b.any
   80d30:	91000400 	add	x0, x0, #0x1
   80d34:	f100201f 	cmp	x0, #0x8
   80d38:	54ffff01 	b.ne	80d18 <fat_lookup+0x168>  // b.any
   80d3c:	d2800b00 	mov	x0, #0x58                  	// #88
   80d40:	9400073c 	bl	82a30 <kalloc>
   80d44:	d0000022 	adrp	x2, 86000 <bh_core_timer_handler+0x674>
   80d48:	d0000021 	adrp	x1, 86000 <bh_core_timer_handler+0x674>
   80d4c:	aa0003f3 	mov	x19, x0
   80d50:	937b7f94 	sbfiz	x20, x28, #5, #32
   80d54:	f9459042 	ldr	x2, [x2, #2848]
   80d58:	910293e4 	add	x4, sp, #0xa4
   80d5c:	f945a021 	ldr	x1, [x1, #2880]
   80d60:	9102abe3 	add	x3, sp, #0xaa
   80d64:	f94043e0 	ldr	x0, [sp, #128]
   80d68:	78746895 	ldrh	w21, [x4, x20]
   80d6c:	78746863 	ldrh	w3, [x3, x20]
   80d70:	f9400004 	ldr	x4, [x0]
   80d74:	d2800400 	mov	x0, #0x20                  	// #32
   80d78:	f9400021 	ldr	x1, [x1]
   80d7c:	f9000a61 	str	x1, [x19, #16]
   80d80:	f9400042 	ldr	x2, [x2]
   80d84:	a9000a64 	stp	x4, x2, [x19]
   80d88:	0b154075 	add	w21, w3, w21, lsl #16
   80d8c:	94000729 	bl	82a30 <kalloc>
   80d90:	aa0003e2 	mov	x2, x0
   80d94:	a94006e3 	ldp	x3, x1, [x23]
   80d98:	b0000020 	adrp	x0, 85000 <sync_invalid_el1t+0x7c>
   80d9c:	a9000443 	stp	x3, x1, [x2]
   80da0:	91380000 	add	x0, x0, #0xe00
   80da4:	29025855 	stp	w21, w22, [x2, #16]
   80da8:	b900185c 	str	w28, [x2, #24]
   80dac:	f8746b21 	ldr	x1, [x25, x20]
   80db0:	f9002a62 	str	x2, [x19, #80]
   80db4:	f94047e2 	ldr	x2, [sp, #136]
   80db8:	f9000053 	str	x19, [x2]
   80dbc:	940001ed 	bl	81570 <uart_println>
   80dc0:	52800000 	mov	w0, #0x0                   	// #0
   80dc4:	a9407bfd 	ldp	x29, x30, [sp]
   80dc8:	a94153f3 	ldp	x19, x20, [sp, #16]
   80dcc:	a9425bf5 	ldp	x21, x22, [sp, #32]
   80dd0:	a94363f7 	ldp	x23, x24, [sp, #48]
   80dd4:	a9446bf9 	ldp	x25, x26, [sp, #64]
   80dd8:	a94573fb 	ldp	x27, x28, [sp, #80]
   80ddc:	911243ff 	add	sp, sp, #0x490
   80de0:	d65f03c0 	ret
   80de4:	1100079c 	add	w28, w28, #0x1
   80de8:	9100835a 	add	x26, x26, #0x20
   80dec:	91008273 	add	x19, x19, #0x20
   80df0:	91005e94 	add	x20, x20, #0x17
   80df4:	7100439f 	cmp	w28, #0x10
   80df8:	54fff641 	b.ne	80cc0 <fat_lookup+0x110>  // b.any
   80dfc:	a94002e3 	ldp	x3, x0, [x23]
   80e00:	f9403ff3 	ldr	x19, [sp, #120]
   80e04:	aa1303e1 	mov	x1, x19
   80e08:	79400400 	ldrh	w0, [x0, #2]
   80e0c:	b9400063 	ldr	w3, [x3]
   80e10:	0b030000 	add	w0, w0, w3
   80e14:	0b561c00 	add	w0, w0, w22, lsr #7
   80e18:	92401ad6 	and	x22, x22, #0x7f
   80e1c:	9400024d 	bl	81750 <readblock>
   80e20:	b8767a76 	ldr	w22, [x19, x22, lsl #2]
   80e24:	72041adf 	tst	w22, #0xf0000007
   80e28:	54fff081 	b.ne	80c38 <fat_lookup+0x88>  // b.any
   80e2c:	a9446bf9 	ldp	x25, x26, [sp, #64]
   80e30:	12800000 	mov	w0, #0xffffffff            	// #-1
   80e34:	a9407bfd 	ldp	x29, x30, [sp]
   80e38:	a94153f3 	ldp	x19, x20, [sp, #16]
   80e3c:	a9425bf5 	ldp	x21, x22, [sp, #32]
   80e40:	a94363f7 	ldp	x23, x24, [sp, #48]
   80e44:	a94573fb 	ldp	x27, x28, [sp, #80]
   80e48:	911243ff 	add	sp, sp, #0x490
   80e4c:	d65f03c0 	ret

0000000000080e50 <fat_getpartition>:
   80e50:	a9be7bfd 	stp	x29, x30, [sp, #-32]!
   80e54:	d2804000 	mov	x0, #0x200                 	// #512
   80e58:	910003fd 	mov	x29, sp
   80e5c:	f9000bf3 	str	x19, [sp, #16]
   80e60:	940006f4 	bl	82a30 <kalloc>
   80e64:	aa0003f3 	mov	x19, x0
   80e68:	52800000 	mov	w0, #0x0                   	// #0
   80e6c:	aa1303e1 	mov	x1, x19
   80e70:	94000238 	bl	81750 <readblock>
   80e74:	aa1303e0 	mov	x0, x19
   80e78:	f9400bf3 	ldr	x19, [sp, #16]
   80e7c:	a8c27bfd 	ldp	x29, x30, [sp], #32
   80e80:	d65f03c0 	ret

0000000000080e84 <fat_getbootsector>:
   80e84:	a9be7bfd 	stp	x29, x30, [sp, #-32]!
   80e88:	910003fd 	mov	x29, sp
   80e8c:	a90153f3 	stp	x19, x20, [sp, #16]
   80e90:	2a0003f4 	mov	w20, w0
   80e94:	d2804000 	mov	x0, #0x200                 	// #512
   80e98:	940006e6 	bl	82a30 <kalloc>
   80e9c:	aa0003f3 	mov	x19, x0
   80ea0:	aa1303e1 	mov	x1, x19
   80ea4:	2a1403e0 	mov	w0, w20
   80ea8:	9400022a 	bl	81750 <readblock>
   80eac:	aa1303e0 	mov	x0, x19
   80eb0:	a94153f3 	ldp	x19, x20, [sp, #16]
   80eb4:	a8c27bfd 	ldp	x29, x30, [sp], #32
   80eb8:	d65f03c0 	ret
   80ebc:	d503201f 	nop

0000000000080ec0 <setup_mount>:
   80ec0:	a9bc7bfd 	stp	x29, x30, [sp, #-64]!
   80ec4:	910003fd 	mov	x29, sp
   80ec8:	a90153f3 	stp	x19, x20, [sp, #16]
   80ecc:	a9025bf5 	stp	x21, x22, [sp, #32]
   80ed0:	aa0103f6 	mov	x22, x1
   80ed4:	f9001bf7 	str	x23, [sp, #48]
   80ed8:	aa0003f7 	mov	x23, x0
   80edc:	97ffffdd 	bl	80e50 <fat_getpartition>
   80ee0:	aa0003f3 	mov	x19, x0
   80ee4:	d2800080 	mov	x0, #0x4                   	// #4
   80ee8:	940006d2 	bl	82a30 <kalloc>
   80eec:	aa0003f5 	mov	x21, x0
   80ef0:	52800081 	mov	w1, #0x4                   	// #4
   80ef4:	91071a60 	add	x0, x19, #0x1c6
   80ef8:	97ffff1f 	bl	80b74 <fat_read_member>
   80efc:	b0000022 	adrp	x2, 85000 <sync_invalid_el1t+0x7c>
   80f00:	aa0003e1 	mov	x1, x0
   80f04:	b90002a1 	str	w1, [x21]
   80f08:	91386040 	add	x0, x2, #0xe18
   80f0c:	94000199 	bl	81570 <uart_println>
   80f10:	b94002a0 	ldr	w0, [x21]
   80f14:	97ffffdc 	bl	80e84 <fat_getbootsector>
   80f18:	aa0003f3 	mov	x19, x0
   80f1c:	d2800200 	mov	x0, #0x10                  	// #16
   80f20:	940006c4 	bl	82a30 <kalloc>
   80f24:	aa0003f4 	mov	x20, x0
   80f28:	52800021 	mov	w1, #0x1                   	// #1
   80f2c:	91003660 	add	x0, x19, #0xd
   80f30:	97ffff11 	bl	80b74 <fat_read_member>
   80f34:	52800041 	mov	w1, #0x2                   	// #2
   80f38:	39000280 	strb	w0, [x20]
   80f3c:	91003a60 	add	x0, x19, #0xe
   80f40:	97ffff0d 	bl	80b74 <fat_read_member>
   80f44:	79000680 	strh	w0, [x20, #2]
   80f48:	52800021 	mov	w1, #0x1                   	// #1
   80f4c:	91004260 	add	x0, x19, #0x10
   80f50:	97ffff09 	bl	80b74 <fat_read_member>
   80f54:	39001280 	strb	w0, [x20, #4]
   80f58:	52800081 	mov	w1, #0x4                   	// #4
   80f5c:	91009260 	add	x0, x19, #0x24
   80f60:	97ffff05 	bl	80b74 <fat_read_member>
   80f64:	b9000a80 	str	w0, [x20, #8]
   80f68:	52800081 	mov	w1, #0x4                   	// #4
   80f6c:	9100b260 	add	x0, x19, #0x2c
   80f70:	97ffff01 	bl	80b74 <fat_read_member>
   80f74:	b9000e80 	str	w0, [x20, #12]
   80f78:	39400281 	ldrb	w1, [x20]
   80f7c:	b0000022 	adrp	x2, 85000 <sync_invalid_el1t+0x7c>
   80f80:	91388040 	add	x0, x2, #0xe20
   80f84:	9400017b 	bl	81570 <uart_println>
   80f88:	79400681 	ldrh	w1, [x20, #2]
   80f8c:	b0000020 	adrp	x0, 85000 <sync_invalid_el1t+0x7c>
   80f90:	9138e000 	add	x0, x0, #0xe38
   80f94:	94000177 	bl	81570 <uart_println>
   80f98:	39401281 	ldrb	w1, [x20, #4]
   80f9c:	b0000020 	adrp	x0, 85000 <sync_invalid_el1t+0x7c>
   80fa0:	91394000 	add	x0, x0, #0xe50
   80fa4:	94000173 	bl	81570 <uart_println>
   80fa8:	b9400a81 	ldr	w1, [x20, #8]
   80fac:	b0000020 	adrp	x0, 85000 <sync_invalid_el1t+0x7c>
   80fb0:	9139a000 	add	x0, x0, #0xe68
   80fb4:	9400016f 	bl	81570 <uart_println>
   80fb8:	b9400e81 	ldr	w1, [x20, #12]
   80fbc:	b0000020 	adrp	x0, 85000 <sync_invalid_el1t+0x7c>
   80fc0:	913a0000 	add	x0, x0, #0xe80
   80fc4:	9400016b 	bl	81570 <uart_println>
   80fc8:	d2800b00 	mov	x0, #0x58                  	// #88
   80fcc:	94000699 	bl	82a30 <kalloc>
   80fd0:	d0000021 	adrp	x1, 86000 <bh_core_timer_handler+0x674>
   80fd4:	d0000022 	adrp	x2, 86000 <bh_core_timer_handler+0x674>
   80fd8:	aa0003f3 	mov	x19, x0
   80fdc:	52800023 	mov	w3, #0x1                   	// #1
   80fe0:	f9459020 	ldr	x0, [x1, #2848]
   80fe4:	b0000021 	adrp	x1, 85000 <sync_invalid_el1t+0x7c>
   80fe8:	f945a042 	ldr	x2, [x2, #2880]
   80fec:	913a6021 	add	x1, x1, #0xe98
   80ff0:	f9400004 	ldr	x4, [x0]
   80ff4:	b9001a63 	str	w3, [x19, #24]
   80ff8:	f9400040 	ldr	x0, [x2]
   80ffc:	a9008264 	stp	x4, x0, [x19, #8]
   81000:	d2800400 	mov	x0, #0x20                  	// #32
   81004:	b9002a63 	str	w3, [x19, #40]
   81008:	a9037e73 	stp	x19, xzr, [x19, #48]
   8100c:	a904067f 	stp	xzr, x1, [x19, #64]
   81010:	94000688 	bl	82a30 <kalloc>
   81014:	aa0003e2 	mov	x2, x0
   81018:	b0000021 	adrp	x1, 86000 <bh_core_timer_handler+0x674>
   8101c:	b9400e83 	ldr	w3, [x20, #12]
   81020:	52800000 	mov	w0, #0x0                   	// #0
   81024:	f9454c21 	ldr	x1, [x1, #2712]
   81028:	a9005055 	stp	x21, x20, [x2]
   8102c:	b9001043 	str	w3, [x2, #16]
   81030:	f801405f 	stur	xzr, [x2, #20]
   81034:	f9002a62 	str	x2, [x19, #80]
   81038:	a9005ed3 	stp	x19, x23, [x22]
   8103c:	a9425bf5 	ldp	x21, x22, [sp, #32]
   81040:	f9401bf7 	ldr	x23, [sp, #48]
   81044:	f9000033 	str	x19, [x1]
   81048:	a94153f3 	ldp	x19, x20, [sp, #16]
   8104c:	a8c47bfd 	ldp	x29, x30, [sp], #64
   81050:	d65f03c0 	ret

0000000000081054 <create_fat32>:
   81054:	a9bf7bfd 	stp	x29, x30, [sp, #-16]!
   81058:	d2800200 	mov	x0, #0x10                  	// #16
   8105c:	910003fd 	mov	x29, sp
   81060:	94000674 	bl	82a30 <kalloc>
   81064:	90000022 	adrp	x2, 85000 <sync_invalid_el1t+0x7c>
   81068:	913a8043 	add	x3, x2, #0xea0
   8106c:	f0ffffe2 	adrp	x2, 80000 <__start>
   81070:	913b0042 	add	x2, x2, #0xec0
   81074:	a9000803 	stp	x3, x2, [x0]
   81078:	a8c17bfd 	ldp	x29, x30, [sp], #16
   8107c:	d65f03c0 	ret

0000000000081080 <enable_interrupt_controller>:
   81080:	d2964200 	mov	x0, #0xb210                	// #45584
   81084:	52a40001 	mov	w1, #0x20000000            	// #536870912
   81088:	f2a7e000 	movk	x0, #0x3f00, lsl #16
   8108c:	b9000001 	str	w1, [x0]
   81090:	d65f03c0 	ret

0000000000081094 <timer_read_counter>:
   81094:	d5033fdf 	isb
   81098:	d53be020 	mrs	x0, cntpct_el0
   8109c:	d65f03c0 	ret

00000000000810a0 <irq_handler>:
   810a0:	a9ba7bfd 	stp	x29, x30, [sp, #-96]!
   810a4:	d2800c01 	mov	x1, #0x60                  	// #96
   810a8:	f2a80001 	movk	x1, #0x4000, lsl #16
   810ac:	910003fd 	mov	x29, sp
   810b0:	a90363f7 	stp	x23, x24, [sp, #48]
   810b4:	b0000038 	adrp	x24, 86000 <bh_core_timer_handler+0x674>
   810b8:	d2964080 	mov	x0, #0xb204                	// #45572
   810bc:	a9025bf5 	stp	x21, x22, [sp, #32]
   810c0:	f2a7e000 	movk	x0, #0x3f00, lsl #16
   810c4:	b9400036 	ldr	w22, [x1]
   810c8:	f9456718 	ldr	x24, [x24, #2760]
   810cc:	121f02d7 	and	w23, w22, #0x2
   810d0:	121502d6 	and	w22, w22, #0x800
   810d4:	a9046bf9 	stp	x25, x26, [sp, #64]
   810d8:	90000039 	adrp	x25, 85000 <sync_invalid_el1t+0x7c>
   810dc:	913d0339 	add	x25, x25, #0xf40
   810e0:	b000003a 	adrp	x26, 86000 <bh_core_timer_handler+0x674>
   810e4:	a90153f3 	stp	x19, x20, [sp, #16]
   810e8:	b9400014 	ldr	w20, [x0]
   810ec:	f9002bfb 	str	x27, [sp, #80]
   810f0:	12030295 	and	w21, w20, #0x20000000
   810f4:	350001d7 	cbnz	w23, 8112c <irq_handler+0x8c>
   810f8:	b0000033 	adrp	x19, 86000 <bh_core_timer_handler+0x674>
   810fc:	35000376 	cbnz	w22, 81168 <irq_handler+0xc8>
   81100:	350005b5 	cbnz	w21, 811b4 <irq_handler+0x114>
   81104:	2a1403e1 	mov	w1, w20
   81108:	90000020 	adrp	x0, 85000 <sync_invalid_el1t+0x7c>
   8110c:	a94153f3 	ldp	x19, x20, [sp, #16]
   81110:	913da000 	add	x0, x0, #0xf68
   81114:	a9425bf5 	ldp	x21, x22, [sp, #32]
   81118:	a94363f7 	ldp	x23, x24, [sp, #48]
   8111c:	a9446bf9 	ldp	x25, x26, [sp, #64]
   81120:	f9402bfb 	ldr	x27, [sp, #80]
   81124:	a8c67bfd 	ldp	x29, x30, [sp], #96
   81128:	14000112 	b	81570 <uart_println>
   8112c:	b0000033 	adrp	x19, 86000 <bh_core_timer_handler+0x674>
   81130:	f945a660 	ldr	x0, [x19, #2888]
   81134:	b9400000 	ldr	w0, [x0]
   81138:	7100041f 	cmp	w0, #0x1
   8113c:	54000440 	b.eq	811c4 <irq_handler+0x124>  // b.none
   81140:	94001210 	bl	85980 <core_timer_handler>
   81144:	b0000022 	adrp	x2, 86000 <bh_core_timer_handler+0x674>
   81148:	90000020 	adrp	x0, 85000 <sync_invalid_el1t+0x7c>
   8114c:	913c6000 	add	x0, x0, #0xf18
   81150:	f945a842 	ldr	x2, [x2, #2896]
   81154:	f9400041 	ldr	x1, [x2]
   81158:	91000423 	add	x3, x1, #0x1
   8115c:	f9000043 	str	x3, [x2]
   81160:	94000104 	bl	81570 <uart_println>
   81164:	34000176 	cbz	w22, 81190 <irq_handler+0xf0>
   81168:	f945a673 	ldr	x19, [x19, #2888]
   8116c:	b9400260 	ldr	w0, [x19]
   81170:	7100041f 	cmp	w0, #0x1
   81174:	54000420 	b.eq	811f8 <irq_handler+0x158>  // b.none
   81178:	94000be6 	bl	84110 <local_timer_handler>
   8117c:	f9400301 	ldr	x1, [x24]
   81180:	aa1903e0 	mov	x0, x25
   81184:	91000422 	add	x2, x1, #0x1
   81188:	f9000302 	str	x2, [x24]
   8118c:	940000f9 	bl	81570 <uart_println>
   81190:	35000135 	cbnz	w21, 811b4 <irq_handler+0x114>
   81194:	35fffaf4 	cbnz	w20, 810f0 <irq_handler+0x50>
   81198:	a94153f3 	ldp	x19, x20, [sp, #16]
   8119c:	a9425bf5 	ldp	x21, x22, [sp, #32]
   811a0:	a94363f7 	ldp	x23, x24, [sp, #48]
   811a4:	a9446bf9 	ldp	x25, x26, [sp, #64]
   811a8:	f9402bfb 	ldr	x27, [sp, #80]
   811ac:	a8c67bfd 	ldp	x29, x30, [sp], #96
   811b0:	d65f03c0 	ret
   811b4:	12027a94 	and	w20, w20, #0xdfffffff
   811b8:	94000b87 	bl	83fd4 <uart_irq_handler>
   811bc:	35fff9b4 	cbnz	w20, 810f0 <irq_handler+0x50>
   811c0:	17fffff6 	b	81198 <irq_handler+0xf8>
   811c4:	940011f2 	bl	8598c <bh_core_timer_handler>
   811c8:	97fffbc3 	bl	800d4 <extract_bh_handler>
   811cc:	aa0003fb 	mov	x27, x0
   811d0:	b4000200 	cbz	x0, 81210 <irq_handler+0x170>
   811d4:	90000020 	adrp	x0, 85000 <sync_invalid_el1t+0x7c>
   811d8:	913aa000 	add	x0, x0, #0xea8
   811dc:	940000e5 	bl	81570 <uart_println>
   811e0:	d63f0360 	blr	x27
   811e4:	34fffd76 	cbz	w22, 81190 <irq_handler+0xf0>
   811e8:	f945a673 	ldr	x19, [x19, #2888]
   811ec:	b9400260 	ldr	w0, [x19]
   811f0:	7100041f 	cmp	w0, #0x1
   811f4:	54fffc21 	b.ne	81178 <irq_handler+0xd8>  // b.any
   811f8:	f945c340 	ldr	x0, [x26, #2944]
   811fc:	52800001 	mov	w1, #0x0                   	// #0
   81200:	97fffbc8 	bl	80120 <push_bh_handle>
   81204:	94000bc8 	bl	84124 <clear_local_timer_interrupt>
   81208:	34fffc75 	cbz	w21, 81194 <irq_handler+0xf4>
   8120c:	17ffffea 	b	811b4 <irq_handler+0x114>
   81210:	90000020 	adrp	x0, 85000 <sync_invalid_el1t+0x7c>
   81214:	913b8000 	add	x0, x0, #0xee0
   81218:	940000d6 	bl	81570 <uart_println>
   8121c:	35fffa76 	cbnz	w22, 81168 <irq_handler+0xc8>
   81220:	34fffbb5 	cbz	w21, 81194 <irq_handler+0xf4>
   81224:	17ffffe4 	b	811b4 <irq_handler+0x114>
   81228:	d503201f 	nop
   8122c:	d503201f 	nop

0000000000081230 <init_uart_irq>:
   81230:	d2964280 	mov	x0, #0xb214                	// #45588
   81234:	52a04001 	mov	w1, #0x2000000             	// #33554432
   81238:	f2a7e000 	movk	x0, #0x3f00, lsl #16
   8123c:	b9000001 	str	w1, [x0]
   81240:	d65f03c0 	ret
	...

0000000000081250 <itoa>:
   81250:	340002a0 	cbz	w0, 812a4 <itoa+0x54>
   81254:	b0000028 	adrp	x8, 86000 <bh_core_timer_handler+0x674>
   81258:	91374104 	add	x4, x8, #0xdd0
   8125c:	90000027 	adrp	x7, 85000 <sync_invalid_el1t+0x7c>
   81260:	91007884 	add	x4, x4, #0x1e
   81264:	913e00e7 	add	x7, x7, #0xf80
   81268:	528003c2 	mov	w2, #0x1e                  	// #30
   8126c:	d503201f 	nop
   81270:	1ac10c03 	sdiv	w3, w0, w1
   81274:	2a0203e6 	mov	w6, w2
   81278:	51000442 	sub	w2, w2, #0x1
   8127c:	1b018065 	msub	w5, w3, w1, w0
   81280:	7100007f 	cmp	w3, #0x0
   81284:	2a0303e0 	mov	w0, w3
   81288:	7a401844 	ccmp	w2, #0x0, #0x4, ne  // ne = any
   8128c:	3865c8e3 	ldrb	w3, [x7, w5, sxtw]
   81290:	381ff483 	strb	w3, [x4], #-1
   81294:	54fffee1 	b.ne	81270 <itoa+0x20>  // b.any
   81298:	91374100 	add	x0, x8, #0xdd0
   8129c:	8b26c000 	add	x0, x0, w6, sxtw
   812a0:	d65f03c0 	ret
   812a4:	b0000020 	adrp	x0, 86000 <bh_core_timer_handler+0x674>
   812a8:	91374000 	add	x0, x0, #0xdd0
   812ac:	52800601 	mov	w1, #0x30                  	// #48
   812b0:	3801ec01 	strb	w1, [x0, #30]!
   812b4:	d65f03c0 	ret
   812b8:	d503201f 	nop
   812bc:	d503201f 	nop

00000000000812c0 <sstrcmp>:
   812c0:	39400003 	ldrb	w3, [x0]
   812c4:	d1000424 	sub	x4, x1, #0x1
   812c8:	d2800022 	mov	x2, #0x1                   	// #1
   812cc:	39400021 	ldrb	w1, [x1]
   812d0:	350000c3 	cbnz	w3, 812e8 <sstrcmp+0x28>
   812d4:	14000007 	b	812f0 <sstrcmp+0x30>
   812d8:	38626803 	ldrb	w3, [x0, x2]
   812dc:	91000442 	add	x2, x2, #0x1
   812e0:	38626881 	ldrb	w1, [x4, x2]
   812e4:	340000a3 	cbz	w3, 812f8 <sstrcmp+0x38>
   812e8:	6b01007f 	cmp	w3, w1
   812ec:	54ffff60 	b.eq	812d8 <sstrcmp+0x18>  // b.none
   812f0:	4b010060 	sub	w0, w3, w1
   812f4:	d65f03c0 	ret
   812f8:	52800003 	mov	w3, #0x0                   	// #0
   812fc:	4b010060 	sub	w0, w3, w1
   81300:	d65f03c0 	ret

0000000000081304 <memset>:
   81304:	8b020004 	add	x4, x0, x2
   81308:	12001c21 	and	w1, w1, #0xff
   8130c:	aa0003e3 	mov	x3, x0
   81310:	b40000a2 	cbz	x2, 81324 <memset+0x20>
   81314:	d503201f 	nop
   81318:	38001461 	strb	w1, [x3], #1
   8131c:	eb04007f 	cmp	x3, x4
   81320:	54ffffc1 	b.ne	81318 <memset+0x14>  // b.any
   81324:	d65f03c0 	ret
   81328:	d503201f 	nop
   8132c:	d503201f 	nop

0000000000081330 <memcpy>:
   81330:	b40000e2 	cbz	x2, 8134c <memcpy+0x1c>
   81334:	d2800003 	mov	x3, #0x0                   	// #0
   81338:	38636824 	ldrb	w4, [x1, x3]
   8133c:	38236804 	strb	w4, [x0, x3]
   81340:	91000463 	add	x3, x3, #0x1
   81344:	eb02007f 	cmp	x3, x2
   81348:	54ffff81 	b.ne	81338 <memcpy+0x8>  // b.any
   8134c:	d65f03c0 	ret

0000000000081350 <abort>:
   81350:	90000020 	adrp	x0, 85000 <sync_invalid_el1t+0x7c>
   81354:	913e6000 	add	x0, x0, #0xf98
   81358:	a9bf7bfd 	stp	x29, x30, [sp, #-16]!
   8135c:	910003fd 	mov	x29, sp
   81360:	94000adc 	bl	83ed0 <uart_puts>
   81364:	97fffb2a 	bl	8000c <halt>
   81368:	d503201f 	nop
   8136c:	d503201f 	nop

0000000000081370 <uart_print>:
   81370:	a9b67bfd 	stp	x29, x30, [sp, #-160]!
   81374:	128006e8 	mov	w8, #0xffffffc8            	// #-56
   81378:	910003fd 	mov	x29, sp
   8137c:	a90153f3 	stp	x19, x20, [sp, #16]
   81380:	aa0003f3 	mov	x19, x0
   81384:	910183e9 	add	x9, sp, #0x60
   81388:	a9068be1 	stp	x1, x2, [sp, #104]
   8138c:	910283e1 	add	x1, sp, #0xa0
   81390:	39400000 	ldrb	w0, [x0]
   81394:	a90407e1 	stp	x1, x1, [sp, #64]
   81398:	f9002be9 	str	x9, [sp, #80]
   8139c:	290b7fe8 	stp	w8, wzr, [sp, #88]
   813a0:	a90793e3 	stp	x3, x4, [sp, #120]
   813a4:	a9089be5 	stp	x5, x6, [sp, #136]
   813a8:	f9004fe7 	str	x7, [sp, #152]
   813ac:	340004a0 	cbz	w0, 81440 <uart_print+0xd0>
   813b0:	a9025bf5 	stp	x21, x22, [sp, #32]
   813b4:	52800616 	mov	w22, #0x30                  	// #48
   813b8:	a90363f7 	stp	x23, x24, [sp, #48]
   813bc:	528006f7 	mov	w23, #0x37                  	// #55
   813c0:	7100941f 	cmp	w0, #0x25
   813c4:	540000e0 	b.eq	813e0 <uart_print+0x70>  // b.none
   813c8:	94000aa6 	bl	83e60 <uart_send>
   813cc:	38401e60 	ldrb	w0, [x19, #1]!
   813d0:	7100941f 	cmp	w0, #0x25
   813d4:	7a401804 	ccmp	w0, #0x0, #0x4, ne  // ne = any
   813d8:	54ffff81 	b.ne	813c8 <uart_print+0x58>  // b.any
   813dc:	340002e0 	cbz	w0, 81438 <uart_print+0xc8>
   813e0:	39400660 	ldrb	w0, [x19, #1]
   813e4:	aa1303f5 	mov	x21, x19
   813e8:	7101cc1f 	cmp	w0, #0x73
   813ec:	54000640 	b.eq	814b4 <uart_print+0x144>  // b.none
   813f0:	540002e8 	b.hi	8144c <uart_print+0xdc>  // b.pmore
   813f4:	71018c1f 	cmp	w0, #0x63
   813f8:	54000700 	b.eq	814d8 <uart_print+0x168>  // b.none
   813fc:	7101901f 	cmp	w0, #0x64
   81400:	54000501 	b.ne	814a0 <uart_print+0x130>  // b.any
   81404:	b9405be1 	ldr	w1, [sp, #88]
   81408:	f94023e0 	ldr	x0, [sp, #64]
   8140c:	37f80941 	tbnz	w1, #31, 81534 <uart_print+0x1c4>
   81410:	91002c01 	add	x1, x0, #0xb
   81414:	927df021 	and	x1, x1, #0xfffffffffffffff8
   81418:	f90023e1 	str	x1, [sp, #64]
   8141c:	b9400000 	ldr	w0, [x0]
   81420:	52800141 	mov	w1, #0xa                   	// #10
   81424:	97ffff8b 	bl	81250 <itoa>
   81428:	94000aaa 	bl	83ed0 <uart_puts>
   8142c:	39400aa0 	ldrb	w0, [x21, #2]
   81430:	91000a73 	add	x19, x19, #0x2
   81434:	35fffc60 	cbnz	w0, 813c0 <uart_print+0x50>
   81438:	a9425bf5 	ldp	x21, x22, [sp, #32]
   8143c:	a94363f7 	ldp	x23, x24, [sp, #48]
   81440:	a94153f3 	ldp	x19, x20, [sp, #16]
   81444:	a8ca7bfd 	ldp	x29, x30, [sp], #160
   81448:	d65f03c0 	ret
   8144c:	7101e01f 	cmp	w0, #0x78
   81450:	54000281 	b.ne	814a0 <uart_print+0x130>  // b.any
   81454:	b9405be1 	ldr	w1, [sp, #88]
   81458:	f94023e0 	ldr	x0, [sp, #64]
   8145c:	37f807a1 	tbnz	w1, #31, 81550 <uart_print+0x1e0>
   81460:	91002c01 	add	x1, x0, #0xb
   81464:	927df021 	and	x1, x1, #0xfffffffffffffff8
   81468:	f90023e1 	str	x1, [sp, #64]
   8146c:	b9400018 	ldr	w24, [x0]
   81470:	52800394 	mov	w20, #0x1c                  	// #28
   81474:	d503201f 	nop
   81478:	1ad42700 	lsr	w0, w24, w20
   8147c:	12000c00 	and	w0, w0, #0xf
   81480:	7100241f 	cmp	w0, #0x9
   81484:	51001294 	sub	w20, w20, #0x4
   81488:	1a9682e1 	csel	w1, w23, w22, hi  // hi = pmore
   8148c:	0b000020 	add	w0, w1, w0
   81490:	94000a74 	bl	83e60 <uart_send>
   81494:	3100129f 	cmn	w20, #0x4
   81498:	54ffff01 	b.ne	81478 <uart_print+0x108>  // b.any
   8149c:	17ffffe4 	b	8142c <uart_print+0xbc>
   814a0:	528004a0 	mov	w0, #0x25                  	// #37
   814a4:	94000a6f 	bl	83e60 <uart_send>
   814a8:	39400660 	ldrb	w0, [x19, #1]
   814ac:	94000a6d 	bl	83e60 <uart_send>
   814b0:	17ffffdf 	b	8142c <uart_print+0xbc>
   814b4:	b9405be1 	ldr	w1, [sp, #88]
   814b8:	f94023e0 	ldr	x0, [sp, #64]
   814bc:	37f80201 	tbnz	w1, #31, 814fc <uart_print+0x18c>
   814c0:	91003c01 	add	x1, x0, #0xf
   814c4:	927df021 	and	x1, x1, #0xfffffffffffffff8
   814c8:	f90023e1 	str	x1, [sp, #64]
   814cc:	f9400000 	ldr	x0, [x0]
   814d0:	94000a80 	bl	83ed0 <uart_puts>
   814d4:	17ffffd6 	b	8142c <uart_print+0xbc>
   814d8:	b9405be1 	ldr	w1, [sp, #88]
   814dc:	f94023e0 	ldr	x0, [sp, #64]
   814e0:	37f801c1 	tbnz	w1, #31, 81518 <uart_print+0x1a8>
   814e4:	91002c01 	add	x1, x0, #0xb
   814e8:	927df021 	and	x1, x1, #0xfffffffffffffff8
   814ec:	f90023e1 	str	x1, [sp, #64]
   814f0:	b9400000 	ldr	w0, [x0]
   814f4:	94000a5b 	bl	83e60 <uart_send>
   814f8:	17ffffcd 	b	8142c <uart_print+0xbc>
   814fc:	11002022 	add	w2, w1, #0x8
   81500:	b9005be2 	str	w2, [sp, #88]
   81504:	7100005f 	cmp	w2, #0x0
   81508:	54fffdcc 	b.gt	814c0 <uart_print+0x150>
   8150c:	f94027e0 	ldr	x0, [sp, #72]
   81510:	8b21c000 	add	x0, x0, w1, sxtw
   81514:	17ffffee 	b	814cc <uart_print+0x15c>
   81518:	11002022 	add	w2, w1, #0x8
   8151c:	b9005be2 	str	w2, [sp, #88]
   81520:	7100005f 	cmp	w2, #0x0
   81524:	54fffe0c 	b.gt	814e4 <uart_print+0x174>
   81528:	f94027e0 	ldr	x0, [sp, #72]
   8152c:	8b21c000 	add	x0, x0, w1, sxtw
   81530:	17fffff0 	b	814f0 <uart_print+0x180>
   81534:	11002022 	add	w2, w1, #0x8
   81538:	b9005be2 	str	w2, [sp, #88]
   8153c:	7100005f 	cmp	w2, #0x0
   81540:	54fff68c 	b.gt	81410 <uart_print+0xa0>
   81544:	f94027e0 	ldr	x0, [sp, #72]
   81548:	8b21c000 	add	x0, x0, w1, sxtw
   8154c:	17ffffb4 	b	8141c <uart_print+0xac>
   81550:	11002022 	add	w2, w1, #0x8
   81554:	b9005be2 	str	w2, [sp, #88]
   81558:	7100005f 	cmp	w2, #0x0
   8155c:	54fff82c 	b.gt	81460 <uart_print+0xf0>
   81560:	f94027e0 	ldr	x0, [sp, #72]
   81564:	8b21c000 	add	x0, x0, w1, sxtw
   81568:	17ffffc1 	b	8146c <uart_print+0xfc>
   8156c:	d503201f 	nop

0000000000081570 <uart_println>:
   81570:	a9bf7bfd 	stp	x29, x30, [sp, #-16]!
   81574:	910003fd 	mov	x29, sp
   81578:	97ffff7e 	bl	81370 <uart_print>
   8157c:	90000020 	adrp	x0, 85000 <sync_invalid_el1t+0x7c>
   81580:	912e6000 	add	x0, x0, #0xb98
   81584:	94000a53 	bl	83ed0 <uart_puts>
   81588:	a8c17bfd 	ldp	x29, x30, [sp], #16
   8158c:	d65f03c0 	ret

0000000000081590 <insert_node>:
   81590:	b0000023 	adrp	x3, 86000 <bh_core_timer_handler+0x674>
   81594:	d374cc25 	lsl	x5, x1, #12
   81598:	f9400006 	ldr	x6, [x0]
   8159c:	f9454463 	ldr	x3, [x3, #2696]
   815a0:	f9400064 	ldr	x4, [x3]
   815a4:	8b0400a3 	add	x3, x5, x4
   815a8:	f82468a1 	str	x1, [x5, x4]
   815ac:	a9009862 	stp	x2, x6, [x3, #8]
   815b0:	f9000003 	str	x3, [x0]
   815b4:	d65f03c0 	ret
   815b8:	d503201f 	nop
   815bc:	d503201f 	nop

00000000000815c0 <remove_node>:
   815c0:	f9400003 	ldr	x3, [x0]
   815c4:	aa0003e2 	mov	x2, x0
   815c8:	b40000a3 	cbz	x3, 815dc <remove_node+0x1c>
   815cc:	a9400460 	ldp	x0, x1, [x3]
   815d0:	f9400863 	ldr	x3, [x3, #16]
   815d4:	f9000043 	str	x3, [x2]
   815d8:	d65f03c0 	ret
   815dc:	d2800000 	mov	x0, #0x0                   	// #0
   815e0:	d2800001 	mov	x1, #0x0                   	// #0
   815e4:	d65f03c0 	ret
   815e8:	d503201f 	nop
   815ec:	d503201f 	nop

00000000000815f0 <show_nodes>:
   815f0:	b4000340 	cbz	x0, 81658 <show_nodes+0x68>
   815f4:	a9bd7bfd 	stp	x29, x30, [sp, #-48]!
   815f8:	910003fd 	mov	x29, sp
   815fc:	a90153f3 	stp	x19, x20, [sp, #16]
   81600:	90000034 	adrp	x20, 85000 <sync_invalid_el1t+0x7c>
   81604:	aa0003f3 	mov	x19, x0
   81608:	913f0294 	add	x20, x20, #0xfc0
   8160c:	a9025bf5 	stp	x21, x22, [sp, #32]
   81610:	90000036 	adrp	x22, 85000 <sync_invalid_el1t+0x7c>
   81614:	90000035 	adrp	x21, 85000 <sync_invalid_el1t+0x7c>
   81618:	913ec2d6 	add	x22, x22, #0xfb0
   8161c:	913ee2b5 	add	x21, x21, #0xfb8
   81620:	aa1603e0 	mov	x0, x22
   81624:	97ffff53 	bl	81370 <uart_print>
   81628:	f9400261 	ldr	x1, [x19]
   8162c:	aa1503e0 	mov	x0, x21
   81630:	97ffff50 	bl	81370 <uart_print>
   81634:	f9400661 	ldr	x1, [x19, #8]
   81638:	aa1403e0 	mov	x0, x20
   8163c:	97ffff4d 	bl	81370 <uart_print>
   81640:	f9400a73 	ldr	x19, [x19, #16]
   81644:	b5fffef3 	cbnz	x19, 81620 <show_nodes+0x30>
   81648:	a94153f3 	ldp	x19, x20, [sp, #16]
   8164c:	a9425bf5 	ldp	x21, x22, [sp, #32]
   81650:	a8c37bfd 	ldp	x29, x30, [sp], #48
   81654:	d65f03c0 	ret
   81658:	d65f03c0 	ret
   8165c:	00000000 	.inst	0x00000000 ; undefined

0000000000081660 <disable_aligned_check>:
   81660:	d5381000 	mrs	x0, sctlr_el1
   81664:	92800141 	mov	x1, #0xfffffffffffffff5    	// #-11
   81668:	8a010000 	and	x0, x0, x1
   8166c:	b27a0000 	orr	x0, x0, #0x40
   81670:	d5181000 	msr	sctlr_el1, x0
   81674:	d5381000 	mrs	x0, sctlr_el1
   81678:	d65f03c0 	ret
   8167c:	00000000 	.inst	0x00000000 ; undefined

0000000000081680 <main>:
   81680:	a9be7bfd 	stp	x29, x30, [sp, #-32]!
   81684:	b0000020 	adrp	x0, 86000 <bh_core_timer_handler+0x674>
   81688:	910003fd 	mov	x29, sp
   8168c:	f945a400 	ldr	x0, [x0, #2888]
   81690:	f9000bf3 	str	x19, [sp, #16]
   81694:	b900001f 	str	wzr, [x0]
   81698:	94000986 	bl	83cb0 <uart_init>
   8169c:	940008a9 	bl	83940 <lfb_init>
   816a0:	d2a00101 	mov	x1, #0x80000               	// #524288
   816a4:	d2a00800 	mov	x0, #0x400000              	// #4194304
   816a8:	940010aa 	bl	85950 <memzero>
   816ac:	b0000022 	adrp	x2, 86000 <bh_core_timer_handler+0x674>
   816b0:	d2a00801 	mov	x1, #0x400000              	// #4194304
   816b4:	52801000 	mov	w0, #0x80                  	// #128
   816b8:	f9457042 	ldr	x2, [x2, #2784]
   816bc:	f9400442 	ldr	x2, [x2, #8]
   816c0:	d63f0040 	blr	x2
   816c4:	aa0003f3 	mov	x19, x0
   816c8:	90000020 	adrp	x0, 85000 <sync_invalid_el1t+0x7c>
   816cc:	913f2000 	add	x0, x0, #0xfc8
   816d0:	97ffffa8 	bl	81570 <uart_println>
   816d4:	b0000020 	adrp	x0, 86000 <bh_core_timer_handler+0x674>
   816d8:	f9457c00 	ldr	x0, [x0, #2808]
   816dc:	f9000013 	str	x19, [x0]
   816e0:	b4000293 	cbz	x19, 81730 <main+0xb0>
   816e4:	aa1303e0 	mov	x0, x19
   816e8:	940004f7 	bl	82ac4 <kalloc_init>
   816ec:	940000a9 	bl	81990 <sd_init>
   816f0:	97fffe59 	bl	81054 <create_fat32>
   816f4:	aa0003f3 	mov	x19, x0
   816f8:	d2800200 	mov	x0, #0x10                  	// #16
   816fc:	940004cd 	bl	82a30 <kalloc>
   81700:	b0000022 	adrp	x2, 86000 <bh_core_timer_handler+0x674>
   81704:	aa0003e1 	mov	x1, x0
   81708:	f9400663 	ldr	x3, [x19, #8]
   8170c:	aa1303e0 	mov	x0, x19
   81710:	f9455c42 	ldr	x2, [x2, #2744]
   81714:	f9000041 	str	x1, [x2]
   81718:	d63f0060 	blr	x3
   8171c:	94000361 	bl	824a0 <shell>
   81720:	52800000 	mov	w0, #0x0                   	// #0
   81724:	f9400bf3 	ldr	x19, [sp, #16]
   81728:	a8c27bfd 	ldp	x29, x30, [sp], #32
   8172c:	d65f03c0 	ret
   81730:	90000020 	adrp	x0, 85000 <sync_invalid_el1t+0x7c>
   81734:	913f6000 	add	x0, x0, #0xfd8
   81738:	97ffff8e 	bl	81570 <uart_println>
   8173c:	12800000 	mov	w0, #0xffffffff            	// #-1
   81740:	17fffff9 	b	81724 <main+0xa4>
	...

0000000000081750 <readblock>:
   81750:	b0000022 	adrp	x2, 86000 <bh_core_timer_handler+0x674>
   81754:	2a0003e8 	mov	w8, w0
   81758:	53175800 	lsl	w0, w0, #9
   8175c:	52840792 	mov	w18, #0x203c                	// #8252
   81760:	b94df842 	ldr	w2, [x2, #3576]
   81764:	52840a10 	mov	w16, #0x2050                	// #8272
   81768:	5284008a 	mov	w10, #0x2004                	// #8196
   8176c:	52840007 	mov	w7, #0x2000                	// #8192
   81770:	7100005f 	cmp	w2, #0x0
   81774:	52840403 	mov	w3, #0x2020                	// #8224
   81778:	52840805 	mov	w5, #0x2040                	// #8256
   8177c:	aa0103e9 	mov	x9, x1
   81780:	91080026 	add	x6, x1, #0x200
   81784:	1a880008 	csel	w8, w0, w8, eq  // eq = none
   81788:	72a7e412 	movk	w18, #0x3f20, lsl #16
   8178c:	52804011 	mov	w17, #0x200                 	// #512
   81790:	72a7e410 	movk	w16, #0x3f20, lsl #16
   81794:	5280002f 	mov	w15, #0x1                   	// #1
   81798:	72a7e40a 	movk	w10, #0x3f20, lsl #16
   8179c:	72a7e407 	movk	w7, #0x3f20, lsl #16
   817a0:	52900a2e 	mov	w14, #0x8051                	// #32849
   817a4:	72a7e403 	movk	w3, #0x3f20, lsl #16
   817a8:	72a7e405 	movk	w5, #0x3f20, lsl #16
   817ac:	52801f0d 	mov	w13, #0xf8                  	// #248
   817b0:	5280000c 	mov	w12, #0x0                   	// #0
   817b4:	5291018b 	mov	w11, #0x880c                	// #34828
   817b8:	b9000251 	str	w17, [x18]
   817bc:	b900020f 	str	w15, [x16]
   817c0:	b9000148 	str	w8, [x10]
   817c4:	b90000ee 	str	w14, [x7]
   817c8:	52884800 	mov	w0, #0x4240                	// #16960
   817cc:	72a001e0 	movk	w0, #0xf, lsl #16
   817d0:	b94000e1 	ldr	w1, [x7]
   817d4:	51000400 	sub	w0, w0, #0x1
   817d8:	f271003f 	tst	x1, #0x8000
   817dc:	7a401804 	ccmp	w0, #0x0, #0x4, ne  // ne = any
   817e0:	54ffff81 	b.ne	817d0 <readblock+0x80>  // b.any
   817e4:	aa0903e4 	mov	x4, x9
   817e8:	52884802 	mov	w2, #0x4240                	// #16960
   817ec:	72a001e2 	movk	w2, #0xf, lsl #16
   817f0:	b9400060 	ldr	w0, [x3]
   817f4:	71000442 	subs	w2, w2, #0x1
   817f8:	12000001 	and	w1, w0, #0x1
   817fc:	1a9f17e0 	cset	w0, eq  // eq = none
   81800:	2a010000 	orr	w0, w0, w1
   81804:	34ffff60 	cbz	w0, 817f0 <readblock+0xa0>
   81808:	b94000a0 	ldr	w0, [x5]
   8180c:	b8004480 	str	w0, [x4], #4
   81810:	eb06009f 	cmp	x4, x6
   81814:	54fffea1 	b.ne	817e8 <readblock+0x98>  // b.any
   81818:	b9400060 	ldr	w0, [x3]
   8181c:	721d101f 	tst	w0, #0xf8
   81820:	54000180 	b.eq	81850 <readblock+0x100>  // b.none
   81824:	b900006d 	str	w13, [x3]
   81828:	b900014c 	str	w12, [x10]
   8182c:	b90000eb 	str	w11, [x7]
   81830:	52884800 	mov	w0, #0x4240                	// #16960
   81834:	72a001e0 	movk	w0, #0xf, lsl #16
   81838:	14000003 	b	81844 <readblock+0xf4>
   8183c:	71000400 	subs	w0, w0, #0x1
   81840:	54fffbc0 	b.eq	817b8 <readblock+0x68>  // b.none
   81844:	b94000e1 	ldr	w1, [x7]
   81848:	377fffa1 	tbnz	w1, #15, 8183c <readblock+0xec>
   8184c:	17ffffdb 	b	817b8 <readblock+0x68>
   81850:	52840681 	mov	w1, #0x2034                	// #8244
   81854:	72a7e401 	movk	w1, #0x3f20, lsl #16
   81858:	b9400020 	ldr	w0, [x1]
   8185c:	12000c00 	and	w0, w0, #0xf
   81860:	7100041f 	cmp	w0, #0x1
   81864:	54ffffa1 	b.ne	81858 <readblock+0x108>  // b.any
   81868:	d65f03c0 	ret
   8186c:	d503201f 	nop

0000000000081870 <writeblock>:
   81870:	b0000022 	adrp	x2, 86000 <bh_core_timer_handler+0x674>
   81874:	2a0003e8 	mov	w8, w0
   81878:	53175800 	lsl	w0, w0, #9
   8187c:	52840792 	mov	w18, #0x203c                	// #8252
   81880:	b94df842 	ldr	w2, [x2, #3576]
   81884:	52840a10 	mov	w16, #0x2050                	// #8272
   81888:	5284008a 	mov	w10, #0x2004                	// #8196
   8188c:	52840007 	mov	w7, #0x2000                	// #8192
   81890:	7100005f 	cmp	w2, #0x0
   81894:	52840403 	mov	w3, #0x2020                	// #8224
   81898:	52840805 	mov	w5, #0x2040                	// #8256
   8189c:	aa0103e9 	mov	x9, x1
   818a0:	91080026 	add	x6, x1, #0x200
   818a4:	1a880008 	csel	w8, w0, w8, eq  // eq = none
   818a8:	72a7e412 	movk	w18, #0x3f20, lsl #16
   818ac:	52804011 	mov	w17, #0x200                 	// #512
   818b0:	72a7e410 	movk	w16, #0x3f20, lsl #16
   818b4:	5280002f 	mov	w15, #0x1                   	// #1
   818b8:	72a7e40a 	movk	w10, #0x3f20, lsl #16
   818bc:	72a7e407 	movk	w7, #0x3f20, lsl #16
   818c0:	5290130e 	mov	w14, #0x8098                	// #32920
   818c4:	72a7e403 	movk	w3, #0x3f20, lsl #16
   818c8:	72a7e405 	movk	w5, #0x3f20, lsl #16
   818cc:	52801f0d 	mov	w13, #0xf8                  	// #248
   818d0:	5280000c 	mov	w12, #0x0                   	// #0
   818d4:	5291018b 	mov	w11, #0x880c                	// #34828
   818d8:	b9000251 	str	w17, [x18]
   818dc:	b900020f 	str	w15, [x16]
   818e0:	b9000148 	str	w8, [x10]
   818e4:	b90000ee 	str	w14, [x7]
   818e8:	52884800 	mov	w0, #0x4240                	// #16960
   818ec:	72a001e0 	movk	w0, #0xf, lsl #16
   818f0:	b94000e1 	ldr	w1, [x7]
   818f4:	51000400 	sub	w0, w0, #0x1
   818f8:	f271003f 	tst	x1, #0x8000
   818fc:	7a401804 	ccmp	w0, #0x0, #0x4, ne  // ne = any
   81900:	54ffff81 	b.ne	818f0 <writeblock+0x80>  // b.any
   81904:	aa0903e4 	mov	x4, x9
   81908:	52884802 	mov	w2, #0x4240                	// #16960
   8190c:	72a001e2 	movk	w2, #0xf, lsl #16
   81910:	b9400060 	ldr	w0, [x3]
   81914:	71000442 	subs	w2, w2, #0x1
   81918:	12000001 	and	w1, w0, #0x1
   8191c:	1a9f17e0 	cset	w0, eq  // eq = none
   81920:	2a010000 	orr	w0, w0, w1
   81924:	34ffff60 	cbz	w0, 81910 <writeblock+0xa0>
   81928:	b8404480 	ldr	w0, [x4], #4
   8192c:	b90000a0 	str	w0, [x5]
   81930:	eb06009f 	cmp	x4, x6
   81934:	54fffea1 	b.ne	81908 <writeblock+0x98>  // b.any
   81938:	b9400060 	ldr	w0, [x3]
   8193c:	721d101f 	tst	w0, #0xf8
   81940:	54000180 	b.eq	81970 <writeblock+0x100>  // b.none
   81944:	b900006d 	str	w13, [x3]
   81948:	b900014c 	str	w12, [x10]
   8194c:	b90000eb 	str	w11, [x7]
   81950:	52884800 	mov	w0, #0x4240                	// #16960
   81954:	72a001e0 	movk	w0, #0xf, lsl #16
   81958:	14000003 	b	81964 <writeblock+0xf4>
   8195c:	71000400 	subs	w0, w0, #0x1
   81960:	54fffbc0 	b.eq	818d8 <writeblock+0x68>  // b.none
   81964:	b94000e1 	ldr	w1, [x7]
   81968:	377fffa1 	tbnz	w1, #15, 8195c <writeblock+0xec>
   8196c:	17ffffdb 	b	818d8 <writeblock+0x68>
   81970:	52840681 	mov	w1, #0x2034                	// #8244
   81974:	72a7e401 	movk	w1, #0x3f20, lsl #16
   81978:	b9400020 	ldr	w0, [x1]
   8197c:	12000c00 	and	w0, w0, #0xf
   81980:	7100041f 	cmp	w0, #0x1
   81984:	54ffffa1 	b.ne	81978 <writeblock+0x108>  // b.any
   81988:	d65f03c0 	ret
   8198c:	d503201f 	nop

0000000000081990 <sd_init>:
   81990:	52800200 	mov	w0, #0x10                  	// #16
   81994:	52a48001 	mov	w1, #0x24000000            	// #603979776
   81998:	72a7e400 	movk	w0, #0x3f20, lsl #16
   8199c:	b9000001 	str	w1, [x0]
   819a0:	52812481 	mov	w1, #0x924                 	// #2340
   819a4:	11001000 	add	w0, w0, #0x4
   819a8:	b9000001 	str	w1, [x0]
   819ac:	52800001 	mov	w1, #0x0                   	// #0
   819b0:	11020000 	add	w0, w0, #0x80
   819b4:	b9000001 	str	w1, [x0]
   819b8:	d2875300 	mov	x0, #0x3a98                	// #15000
   819bc:	d503201f 	nop
   819c0:	d503201f 	nop
   819c4:	f1000400 	subs	x0, x0, #0x1
   819c8:	54ffffc1 	b.ne	819c0 <sd_init+0x30>  // b.any
   819cc:	52801380 	mov	w0, #0x9c                  	// #156
   819d0:	12800001 	mov	w1, #0xffffffff            	// #-1
   819d4:	72a7e400 	movk	w0, #0x3f20, lsl #16
   819d8:	b9000001 	str	w1, [x0]
   819dc:	d2875300 	mov	x0, #0x3a98                	// #15000
   819e0:	d503201f 	nop
   819e4:	f1000400 	subs	x0, x0, #0x1
   819e8:	54ffffc1 	b.ne	819e0 <sd_init+0x50>  // b.any
   819ec:	52801381 	mov	w1, #0x9c                  	// #156
   819f0:	52800000 	mov	w0, #0x0                   	// #0
   819f4:	72a7e401 	movk	w1, #0x3f20, lsl #16
   819f8:	b9000020 	str	w0, [x1]
   819fc:	52840601 	mov	w1, #0x2030                	// #8240
   81a00:	72a7e401 	movk	w1, #0x3f20, lsl #16
   81a04:	b9000020 	str	w0, [x1]
   81a08:	5100c021 	sub	w1, w1, #0x30
   81a0c:	b9000020 	str	w0, [x1]
   81a10:	11001021 	add	w1, w1, #0x4
   81a14:	b9000020 	str	w0, [x1]
   81a18:	52a01e02 	mov	w2, #0xf00000              	// #15728640
   81a1c:	11001021 	add	w1, w1, #0x4
   81a20:	b9000022 	str	w2, [x1]
   81a24:	11001021 	add	w1, w1, #0x4
   81a28:	b9000020 	str	w0, [x1]
   81a2c:	5280ff02 	mov	w2, #0x7f8                 	// #2040
   81a30:	11005021 	add	w1, w1, #0x14
   81a34:	b9000022 	str	w2, [x1]
   81a38:	11006021 	add	w1, w1, #0x18
   81a3c:	b9000020 	str	w0, [x1]
   81a40:	11006021 	add	w1, w1, #0x18
   81a44:	b9000020 	str	w0, [x1]
   81a48:	51005021 	sub	w1, w1, #0x14
   81a4c:	b9000020 	str	w0, [x1]
   81a50:	51002021 	sub	w1, w1, #0x8
   81a54:	b9400020 	ldr	w0, [x1]
   81a58:	52810002 	mov	w2, #0x800                 	// #2048
   81a5c:	120d5400 	and	w0, w0, #0xfff801ff
   81a60:	72a00022 	movk	w2, #0x1, lsl #16
   81a64:	2a020000 	orr	w0, w0, w2
   81a68:	b9000020 	str	w0, [x1]
   81a6c:	d29a1200 	mov	x0, #0xd090                	// #53392
   81a70:	f2a00060 	movk	x0, #0x3, lsl #16
   81a74:	d503201f 	nop
   81a78:	d503201f 	nop
   81a7c:	f1000400 	subs	x0, x0, #0x1
   81a80:	54ffffc1 	b.ne	81a78 <sd_init+0xe8>  // b.any
   81a84:	52840600 	mov	w0, #0x2030                	// #8240
   81a88:	52800021 	mov	w1, #0x1                   	// #1
   81a8c:	72a7e400 	movk	w0, #0x3f20, lsl #16
   81a90:	b9000001 	str	w1, [x0]
   81a94:	d29a1200 	mov	x0, #0xd090                	// #53392
   81a98:	f2a00060 	movk	x0, #0x3, lsl #16
   81a9c:	d503201f 	nop
   81aa0:	d503201f 	nop
   81aa4:	f1000400 	subs	x0, x0, #0x1
   81aa8:	54ffffc1 	b.ne	81aa0 <sd_init+0x110>  // b.any
   81aac:	52840700 	mov	w0, #0x2038                	// #8248
   81ab0:	52800341 	mov	w1, #0x1a                  	// #26
   81ab4:	72a7e400 	movk	w0, #0x3f20, lsl #16
   81ab8:	b9000001 	str	w1, [x0]
   81abc:	52802901 	mov	w1, #0x148                 	// #328
   81ac0:	5100b000 	sub	w0, w0, #0x2c
   81ac4:	b9000001 	str	w1, [x0]
   81ac8:	52800001 	mov	w1, #0x0                   	// #0
   81acc:	51002000 	sub	w0, w0, #0x8
   81ad0:	b9000001 	str	w1, [x0]
   81ad4:	52840002 	mov	w2, #0x2000                	// #8192
   81ad8:	52908000 	mov	w0, #0x8400                	// #33792
   81adc:	72a7e402 	movk	w2, #0x3f20, lsl #16
   81ae0:	b9000040 	str	w0, [x2]
   81ae4:	52884800 	mov	w0, #0x4240                	// #16960
   81ae8:	72a001e0 	movk	w0, #0xf, lsl #16
   81aec:	d503201f 	nop
   81af0:	b9400041 	ldr	w1, [x2]
   81af4:	51000400 	sub	w0, w0, #0x1
   81af8:	f271003f 	tst	x1, #0x8000
   81afc:	7a401804 	ccmp	w0, #0x0, #0x4, ne  // ne = any
   81b00:	54ffff81 	b.ne	81af0 <sd_init+0x160>  // b.any
   81b04:	52840080 	mov	w0, #0x2004                	// #8196
   81b08:	52803541 	mov	w1, #0x1aa                 	// #426
   81b0c:	72a7e400 	movk	w0, #0x3f20, lsl #16
   81b10:	b9000001 	str	w1, [x0]
   81b14:	52900100 	mov	w0, #0x8008                	// #32776
   81b18:	b9000040 	str	w0, [x2]
   81b1c:	52884800 	mov	w0, #0x4240                	// #16960
   81b20:	52840002 	mov	w2, #0x2000                	// #8192
   81b24:	72a001e0 	movk	w0, #0xf, lsl #16
   81b28:	72a7e402 	movk	w2, #0x3f20, lsl #16
   81b2c:	d503201f 	nop
   81b30:	b9400041 	ldr	w1, [x2]
   81b34:	51000400 	sub	w0, w0, #0x1
   81b38:	f271003f 	tst	x1, #0x8000
   81b3c:	7a401804 	ccmp	w0, #0x0, #0x4, ne  // ne = any
   81b40:	54ffff81 	b.ne	81b30 <sd_init+0x1a0>  // b.any
   81b44:	52840206 	mov	w6, #0x2010                	// #8208
   81b48:	72a7e406 	movk	w6, #0x3f20, lsl #16
   81b4c:	b94000c0 	ldr	w0, [x6]
   81b50:	7106a81f 	cmp	w0, #0x1aa
   81b54:	54000d41 	b.ne	81cfc <sd_init+0x36c>  // b.any
   81b58:	52840083 	mov	w3, #0x2004                	// #8196
   81b5c:	52840002 	mov	w2, #0x2000                	// #8192
   81b60:	72a7e403 	movk	w3, #0x3f20, lsl #16
   81b64:	52800005 	mov	w5, #0x0                   	// #0
   81b68:	72a7e402 	movk	w2, #0x3f20, lsl #16
   81b6c:	529006e4 	mov	w4, #0x8037                	// #32823
   81b70:	52a80408 	mov	w8, #0x40200000            	// #1075838976
   81b74:	52900527 	mov	w7, #0x8029                	// #32809
   81b78:	14000003 	b	81b84 <sd_init+0x1f4>
   81b7c:	71000400 	subs	w0, w0, #0x1
   81b80:	540000a1 	b.ne	81b94 <sd_init+0x204>  // b.any
   81b84:	b9000065 	str	w5, [x3]
   81b88:	b9000044 	str	w4, [x2]
   81b8c:	52884800 	mov	w0, #0x4240                	// #16960
   81b90:	72a001e0 	movk	w0, #0xf, lsl #16
   81b94:	b9400041 	ldr	w1, [x2]
   81b98:	377fff21 	tbnz	w1, #15, 81b7c <sd_init+0x1ec>
   81b9c:	b9000068 	str	w8, [x3]
   81ba0:	b9000047 	str	w7, [x2]
   81ba4:	52884800 	mov	w0, #0x4240                	// #16960
   81ba8:	72a001e0 	movk	w0, #0xf, lsl #16
   81bac:	d503201f 	nop
   81bb0:	b9400041 	ldr	w1, [x2]
   81bb4:	51000400 	sub	w0, w0, #0x1
   81bb8:	f271003f 	tst	x1, #0x8000
   81bbc:	7a401804 	ccmp	w0, #0x0, #0x4, ne  // ne = any
   81bc0:	54ffff81 	b.ne	81bb0 <sd_init+0x220>  // b.any
   81bc4:	b94000c0 	ldr	w0, [x6]
   81bc8:	37f80100 	tbnz	w0, #31, 81be8 <sd_init+0x258>
   81bcc:	d2884800 	mov	x0, #0x4240                	// #16960
   81bd0:	f2a001e0 	movk	x0, #0xf, lsl #16
   81bd4:	d503201f 	nop
   81bd8:	d503201f 	nop
   81bdc:	f1000400 	subs	x0, x0, #0x1
   81be0:	54ffffc1 	b.ne	81bd8 <sd_init+0x248>  // b.any
   81be4:	17ffffe8 	b	81b84 <sd_init+0x1f4>
   81be8:	b0000024 	adrp	x4, 86000 <bh_core_timer_handler+0x674>
   81bec:	52840081 	mov	w1, #0x2004                	// #8196
   81bf0:	12020000 	and	w0, w0, #0x40000000
   81bf4:	72a7e401 	movk	w1, #0x3f20, lsl #16
   81bf8:	52800003 	mov	w3, #0x0                   	// #0
   81bfc:	b90df880 	str	w0, [x4, #3576]
   81c00:	b9000023 	str	w3, [x1]
   81c04:	52904040 	mov	w0, #0x8202                	// #33282
   81c08:	b9000040 	str	w0, [x2]
   81c0c:	52884800 	mov	w0, #0x4240                	// #16960
   81c10:	52840002 	mov	w2, #0x2000                	// #8192
   81c14:	72a001e0 	movk	w0, #0xf, lsl #16
   81c18:	72a7e402 	movk	w2, #0x3f20, lsl #16
   81c1c:	d503201f 	nop
   81c20:	b9400041 	ldr	w1, [x2]
   81c24:	51000400 	sub	w0, w0, #0x1
   81c28:	f271003f 	tst	x1, #0x8000
   81c2c:	7a401804 	ccmp	w0, #0x0, #0x4, ne  // ne = any
   81c30:	54ffff81 	b.ne	81c20 <sd_init+0x290>  // b.any
   81c34:	52840080 	mov	w0, #0x2004                	// #8196
   81c38:	52800001 	mov	w1, #0x0                   	// #0
   81c3c:	72a7e400 	movk	w0, #0x3f20, lsl #16
   81c40:	b9000001 	str	w1, [x0]
   81c44:	52900060 	mov	w0, #0x8003                	// #32771
   81c48:	b9000040 	str	w0, [x2]
   81c4c:	52884800 	mov	w0, #0x4240                	// #16960
   81c50:	52840002 	mov	w2, #0x2000                	// #8192
   81c54:	72a001e0 	movk	w0, #0xf, lsl #16
   81c58:	72a7e402 	movk	w2, #0x3f20, lsl #16
   81c5c:	d503201f 	nop
   81c60:	b9400041 	ldr	w1, [x2]
   81c64:	51000400 	sub	w0, w0, #0x1
   81c68:	f271003f 	tst	x1, #0x8000
   81c6c:	7a401804 	ccmp	w0, #0x0, #0x4, ne  // ne = any
   81c70:	54ffff81 	b.ne	81c60 <sd_init+0x2d0>  // b.any
   81c74:	52840200 	mov	w0, #0x2010                	// #8208
   81c78:	72a7e400 	movk	w0, #0x3f20, lsl #16
   81c7c:	b9400000 	ldr	w0, [x0]
   81c80:	52840081 	mov	w1, #0x2004                	// #8196
   81c84:	72a7e401 	movk	w1, #0x3f20, lsl #16
   81c88:	b9000020 	str	w0, [x1]
   81c8c:	529000e0 	mov	w0, #0x8007                	// #32775
   81c90:	b9000040 	str	w0, [x2]
   81c94:	52884800 	mov	w0, #0x4240                	// #16960
   81c98:	52840002 	mov	w2, #0x2000                	// #8192
   81c9c:	72a001e0 	movk	w0, #0xf, lsl #16
   81ca0:	72a7e402 	movk	w2, #0x3f20, lsl #16
   81ca4:	d503201f 	nop
   81ca8:	b9400041 	ldr	w1, [x2]
   81cac:	51000400 	sub	w0, w0, #0x1
   81cb0:	f271003f 	tst	x1, #0x8000
   81cb4:	7a401804 	ccmp	w0, #0x0, #0x4, ne  // ne = any
   81cb8:	54ffff81 	b.ne	81ca8 <sd_init+0x318>  // b.any
   81cbc:	52840080 	mov	w0, #0x2004                	// #8196
   81cc0:	52804001 	mov	w1, #0x200                 	// #512
   81cc4:	72a7e400 	movk	w0, #0x3f20, lsl #16
   81cc8:	b9000001 	str	w1, [x0]
   81ccc:	52900200 	mov	w0, #0x8010                	// #32784
   81cd0:	b9000040 	str	w0, [x2]
   81cd4:	52884800 	mov	w0, #0x4240                	// #16960
   81cd8:	52840002 	mov	w2, #0x2000                	// #8192
   81cdc:	72a001e0 	movk	w0, #0xf, lsl #16
   81ce0:	72a7e402 	movk	w2, #0x3f20, lsl #16
   81ce4:	d503201f 	nop
   81ce8:	b9400041 	ldr	w1, [x2]
   81cec:	51000400 	sub	w0, w0, #0x1
   81cf0:	f271003f 	tst	x1, #0x8000
   81cf4:	7a401804 	ccmp	w0, #0x0, #0x4, ne  // ne = any
   81cf8:	54ffff81 	b.ne	81ce8 <sd_init+0x358>  // b.any
   81cfc:	d65f03c0 	ret

0000000000081d00 <fat32_test>:
   81d00:	a9bc7bfd 	stp	x29, x30, [sp, #-64]!
   81d04:	52800001 	mov	w1, #0x0                   	// #0
   81d08:	910003fd 	mov	x29, sp
   81d0c:	a9025bf5 	stp	x21, x22, [sp, #32]
   81d10:	b0000035 	adrp	x21, 86000 <bh_core_timer_handler+0x674>
   81d14:	910022b5 	add	x21, x21, #0x8
   81d18:	aa1503e0 	mov	x0, x21
   81d1c:	a90153f3 	stp	x19, x20, [sp, #16]
   81d20:	94000698 	bl	83780 <vfs_open>
   81d24:	aa0003f3 	mov	x19, x0
   81d28:	f9000c1f 	str	xzr, [x0, #24]
   81d2c:	d28000a2 	mov	x2, #0x5                   	// #5
   81d30:	b0000021 	adrp	x1, 86000 <bh_core_timer_handler+0x674>
   81d34:	91004021 	add	x1, x1, #0x10
   81d38:	940005e7 	bl	834d4 <vfs_write>
   81d3c:	f9000e7f 	str	xzr, [x19, #24]
   81d40:	9100c3f4 	add	x20, sp, #0x30
   81d44:	aa1403e1 	mov	x1, x20
   81d48:	aa1303e0 	mov	x0, x19
   81d4c:	d28000a2 	mov	x2, #0x5                   	// #5
   81d50:	b0000036 	adrp	x22, 86000 <bh_core_timer_handler+0x674>
   81d54:	940005e4 	bl	834e4 <vfs_read>
   81d58:	910062d6 	add	x22, x22, #0x18
   81d5c:	aa1503e1 	mov	x1, x21
   81d60:	aa1603e0 	mov	x0, x22
   81d64:	aa1403e2 	mov	x2, x20
   81d68:	3900d7ff 	strb	wzr, [sp, #53]
   81d6c:	97fffe01 	bl	81570 <uart_println>
   81d70:	f9000e7f 	str	xzr, [x19, #24]
   81d74:	aa1303e0 	mov	x0, x19
   81d78:	d28000e2 	mov	x2, #0x7                   	// #7
   81d7c:	b0000021 	adrp	x1, 86000 <bh_core_timer_handler+0x674>
   81d80:	9100e021 	add	x1, x1, #0x38
   81d84:	940005d4 	bl	834d4 <vfs_write>
   81d88:	f9000e7f 	str	xzr, [x19, #24]
   81d8c:	aa1403e1 	mov	x1, x20
   81d90:	aa1303e0 	mov	x0, x19
   81d94:	d28000c2 	mov	x2, #0x6                   	// #6
   81d98:	940005d3 	bl	834e4 <vfs_read>
   81d9c:	aa1503e1 	mov	x1, x21
   81da0:	aa1603e0 	mov	x0, x22
   81da4:	aa1403e2 	mov	x2, x20
   81da8:	3900dfff 	strb	wzr, [sp, #55]
   81dac:	97fffdf1 	bl	81570 <uart_println>
   81db0:	a94153f3 	ldp	x19, x20, [sp, #16]
   81db4:	a9425bf5 	ldp	x21, x22, [sp, #32]
   81db8:	a8c47bfd 	ldp	x29, x30, [sp], #64
   81dbc:	d65f03c0 	ret

0000000000081dc0 <test_buddy>:
   81dc0:	a9b87bfd 	stp	x29, x30, [sp, #-128]!
   81dc4:	b0000020 	adrp	x0, 86000 <bh_core_timer_handler+0x674>
   81dc8:	910003fd 	mov	x29, sp
   81dcc:	f9457c00 	ldr	x0, [x0, #2808]
   81dd0:	a90363f7 	stp	x23, x24, [sp, #48]
   81dd4:	b0000037 	adrp	x23, 86000 <bh_core_timer_handler+0x674>
   81dd8:	a9025bf5 	stp	x21, x22, [sp, #32]
   81ddc:	910183f8 	add	x24, sp, #0x60
   81de0:	d2800035 	mov	x21, #0x1                   	// #1
   81de4:	f9400016 	ldr	x22, [x0]
   81de8:	f9002bfb 	str	x27, [sp, #80]
   81dec:	f94572fb 	ldr	x27, [x23, #2784]
   81df0:	a90153f3 	stp	x19, x20, [sp, #16]
   81df4:	aa1603e0 	mov	x0, x22
   81df8:	a9046bf9 	stp	x25, x26, [sp, #64]
   81dfc:	b0000039 	adrp	x25, 86000 <bh_core_timer_handler+0x674>
   81e00:	91010339 	add	x25, x25, #0x40
   81e04:	f9400b61 	ldr	x1, [x27, #16]
   81e08:	d63f0020 	blr	x1
   81e0c:	a9067fff 	stp	xzr, xzr, [sp, #96]
   81e10:	a9077fff 	stp	xzr, xzr, [sp, #112]
   81e14:	aa1603e0 	mov	x0, x22
   81e18:	f9400f62 	ldr	x2, [x27, #24]
   81e1c:	52800201 	mov	w1, #0x10                  	// #16
   81e20:	d63f0040 	blr	x2
   81e24:	aa0103f4 	mov	x20, x1
   81e28:	aa0003f3 	mov	x19, x0
   81e2c:	97fff925 	bl	802c0 <bd_phy2n>
   81e30:	2a0003fa 	mov	w26, w0
   81e34:	aa1403e0 	mov	x0, x20
   81e38:	97fff922 	bl	802c0 <bd_phy2n>
   81e3c:	2a0003e4 	mov	w4, w0
   81e40:	2a1a03e3 	mov	w3, w26
   81e44:	aa1403e2 	mov	x2, x20
   81e48:	aa1303e1 	mov	x1, x19
   81e4c:	aa1903e0 	mov	x0, x25
   81e50:	97fffdc8 	bl	81570 <uart_println>
   81e54:	aa1303e0 	mov	x0, x19
   81e58:	97fff91a 	bl	802c0 <bd_phy2n>
   81e5c:	93407c01 	sxtw	x1, w0
   81e60:	f9400b62 	ldr	x2, [x27, #16]
   81e64:	8b150f03 	add	x3, x24, x21, lsl #3
   81e68:	aa1603e0 	mov	x0, x22
   81e6c:	910006b5 	add	x21, x21, #0x1
   81e70:	f81f8061 	stur	x1, [x3, #-8]
   81e74:	d63f0040 	blr	x2
   81e78:	f10016bf 	cmp	x21, #0x5
   81e7c:	54fffcc1 	b.ne	81e14 <test_buddy+0x54>  // b.any
   81e80:	f94572f7 	ldr	x23, [x23, #2784]
   81e84:	d2800033 	mov	x19, #0x1                   	// #1
   81e88:	8b130f01 	add	x1, x24, x19, lsl #3
   81e8c:	aa1603e0 	mov	x0, x22
   81e90:	f94012e2 	ldr	x2, [x23, #32]
   81e94:	91000673 	add	x19, x19, #0x1
   81e98:	b85f8021 	ldur	w1, [x1, #-8]
   81e9c:	d63f0040 	blr	x2
   81ea0:	f100167f 	cmp	x19, #0x5
   81ea4:	54ffff21 	b.ne	81e88 <test_buddy+0xc8>  // b.any
   81ea8:	aa1603e0 	mov	x0, x22
   81eac:	f9400ae1 	ldr	x1, [x23, #16]
   81eb0:	a94153f3 	ldp	x19, x20, [sp, #16]
   81eb4:	aa0103f0 	mov	x16, x1
   81eb8:	a9425bf5 	ldp	x21, x22, [sp, #32]
   81ebc:	a94363f7 	ldp	x23, x24, [sp, #48]
   81ec0:	a9446bf9 	ldp	x25, x26, [sp, #64]
   81ec4:	f9402bfb 	ldr	x27, [sp, #80]
   81ec8:	a8c87bfd 	ldp	x29, x30, [sp], #128
   81ecc:	d61f0200 	br	x16

0000000000081ed0 <test_fs>:
   81ed0:	a9bc7bfd 	stp	x29, x30, [sp, #-64]!
   81ed4:	910003fd 	mov	x29, sp
   81ed8:	a9025bf5 	stp	x21, x22, [sp, #32]
   81edc:	b0000035 	adrp	x21, 86000 <bh_core_timer_handler+0x674>
   81ee0:	9101a2b5 	add	x21, x21, #0x68
   81ee4:	aa1503e0 	mov	x0, x21
   81ee8:	a90153f3 	stp	x19, x20, [sp, #16]
   81eec:	b0000034 	adrp	x20, 86000 <bh_core_timer_handler+0x674>
   81ef0:	f9001bf7 	str	x23, [sp, #48]
   81ef4:	940005db 	bl	83660 <vfs_mkdir>
   81ef8:	52800021 	mov	w1, #0x1                   	// #1
   81efc:	b0000020 	adrp	x0, 86000 <bh_core_timer_handler+0x674>
   81f00:	9101c000 	add	x0, x0, #0x70
   81f04:	9400061f 	bl	83780 <vfs_open>
   81f08:	b0000021 	adrp	x1, 86000 <bh_core_timer_handler+0x674>
   81f0c:	aa0003f3 	mov	x19, x0
   81f10:	91028294 	add	x20, x20, #0xa0
   81f14:	91020020 	add	x0, x1, #0x80
   81f18:	97fffd96 	bl	81570 <uart_println>
   81f1c:	b0000037 	adrp	x23, 86000 <bh_core_timer_handler+0x674>
   81f20:	aa1403e0 	mov	x0, x20
   81f24:	97fffd93 	bl	81570 <uart_println>
   81f28:	52800001 	mov	w1, #0x0                   	// #0
   81f2c:	aa1503e0 	mov	x0, x21
   81f30:	94000614 	bl	83780 <vfs_open>
   81f34:	910322f7 	add	x23, x23, #0xc8
   81f38:	aa1403e0 	mov	x0, x20
   81f3c:	97fffd8d 	bl	81570 <uart_println>
   81f40:	b0000021 	adrp	x1, 86000 <bh_core_timer_handler+0x674>
   81f44:	91030021 	add	x1, x1, #0xc0
   81f48:	d28000c2 	mov	x2, #0x6                   	// #6
   81f4c:	aa1303e0 	mov	x0, x19
   81f50:	94000561 	bl	834d4 <vfs_write>
   81f54:	aa1703e0 	mov	x0, x23
   81f58:	940005e7 	bl	836f4 <vfs_chdir>
   81f5c:	52800021 	mov	w1, #0x1                   	// #1
   81f60:	b0000020 	adrp	x0, 86000 <bh_core_timer_handler+0x674>
   81f64:	91034000 	add	x0, x0, #0xd0
   81f68:	94000606 	bl	83780 <vfs_open>
   81f6c:	b0000021 	adrp	x1, 86000 <bh_core_timer_handler+0x674>
   81f70:	91038021 	add	x1, x1, #0xe0
   81f74:	d28000c2 	mov	x2, #0x6                   	// #6
   81f78:	aa0003f4 	mov	x20, x0
   81f7c:	94000556 	bl	834d4 <vfs_write>
   81f80:	aa1303e0 	mov	x0, x19
   81f84:	9400053b 	bl	83470 <vfs_close>
   81f88:	aa1403e0 	mov	x0, x20
   81f8c:	94000539 	bl	83470 <vfs_close>
   81f90:	b0000020 	adrp	x0, 86000 <bh_core_timer_handler+0x674>
   81f94:	9103a000 	add	x0, x0, #0xe8
   81f98:	940005d7 	bl	836f4 <vfs_chdir>
   81f9c:	b0000034 	adrp	x20, 86000 <bh_core_timer_handler+0x674>
   81fa0:	52800001 	mov	w1, #0x0                   	// #0
   81fa4:	b0000020 	adrp	x0, 86000 <bh_core_timer_handler+0x674>
   81fa8:	9103c000 	add	x0, x0, #0xf0
   81fac:	940005f5 	bl	83780 <vfs_open>
   81fb0:	b0000021 	adrp	x1, 86000 <bh_core_timer_handler+0x674>
   81fb4:	aa0003f3 	mov	x19, x0
   81fb8:	91040020 	add	x0, x1, #0x100
   81fbc:	52800001 	mov	w1, #0x0                   	// #0
   81fc0:	940005f0 	bl	83780 <vfs_open>
   81fc4:	aa0003f6 	mov	x22, x0
   81fc8:	f945be94 	ldr	x20, [x20, #2936]
   81fcc:	aa1303e0 	mov	x0, x19
   81fd0:	d2800c82 	mov	x2, #0x64                  	// #100
   81fd4:	aa1403e1 	mov	x1, x20
   81fd8:	94000543 	bl	834e4 <vfs_read>
   81fdc:	2a0003f3 	mov	w19, w0
   81fe0:	d2800022 	mov	x2, #0x1                   	// #1
   81fe4:	aa1603e0 	mov	x0, x22
   81fe8:	8b33c281 	add	x1, x20, w19, sxtw
   81fec:	9400053e 	bl	834e4 <vfs_read>
   81ff0:	0b000273 	add	w19, w19, w0
   81ff4:	d2800042 	mov	x2, #0x2                   	// #2
   81ff8:	aa1603e0 	mov	x0, x22
   81ffc:	8b33c281 	add	x1, x20, w19, sxtw
   82000:	94000539 	bl	834e4 <vfs_read>
   82004:	0b000273 	add	w19, w19, w0
   82008:	d2800062 	mov	x2, #0x3                   	// #3
   8200c:	aa1603e0 	mov	x0, x22
   82010:	8b33c281 	add	x1, x20, w19, sxtw
   82014:	94000534 	bl	834e4 <vfs_read>
   82018:	0b000273 	add	w19, w19, w0
   8201c:	d2800082 	mov	x2, #0x4                   	// #4
   82020:	aa1603e0 	mov	x0, x22
   82024:	8b33c281 	add	x1, x20, w19, sxtw
   82028:	9400052f 	bl	834e4 <vfs_read>
   8202c:	0b000273 	add	w19, w19, w0
   82030:	aa1403e1 	mov	x1, x20
   82034:	f0000000 	adrp	x0, 85000 <sync_invalid_el1t+0x7c>
   82038:	9137e000 	add	x0, x0, #0xdf8
   8203c:	3833ca9f 	strb	wzr, [x20, w19, sxtw]
   82040:	97fffd4c 	bl	81570 <uart_println>
   82044:	52800001 	mov	w1, #0x0                   	// #0
   82048:	aa1503e0 	mov	x0, x21
   8204c:	940005cd 	bl	83780 <vfs_open>
   82050:	90000020 	adrp	x0, 86000 <bh_core_timer_handler+0x674>
   82054:	91044000 	add	x0, x0, #0x110
   82058:	97fffd46 	bl	81570 <uart_println>
   8205c:	aa1703e1 	mov	x1, x23
   82060:	90000022 	adrp	x2, 86000 <bh_core_timer_handler+0x674>
   82064:	9104e042 	add	x2, x2, #0x138
   82068:	aa0203e0 	mov	x0, x2
   8206c:	940005c6 	bl	83784 <vfs_mount>
   82070:	90000020 	adrp	x0, 86000 <bh_core_timer_handler+0x674>
   82074:	91050000 	add	x0, x0, #0x140
   82078:	97fffd3e 	bl	81570 <uart_println>
   8207c:	52800001 	mov	w1, #0x0                   	// #0
   82080:	aa1503e0 	mov	x0, x21
   82084:	940005bf 	bl	83780 <vfs_open>
   82088:	90000020 	adrp	x0, 86000 <bh_core_timer_handler+0x674>
   8208c:	9105a000 	add	x0, x0, #0x168
   82090:	97fffd38 	bl	81570 <uart_println>
   82094:	aa1703e0 	mov	x0, x23
   82098:	940005fa 	bl	83880 <vfs_umount>
   8209c:	90000020 	adrp	x0, 86000 <bh_core_timer_handler+0x674>
   820a0:	91064000 	add	x0, x0, #0x190
   820a4:	97fffd33 	bl	81570 <uart_println>
   820a8:	aa1503e0 	mov	x0, x21
   820ac:	52800001 	mov	w1, #0x0                   	// #0
   820b0:	a94153f3 	ldp	x19, x20, [sp, #16]
   820b4:	a9425bf5 	ldp	x21, x22, [sp, #32]
   820b8:	f9401bf7 	ldr	x23, [sp, #48]
   820bc:	a8c47bfd 	ldp	x29, x30, [sp], #64
   820c0:	140005b0 	b	83780 <vfs_open>

00000000000820c4 <test_slab_example>:
   820c4:	a9be7bfd 	stp	x29, x30, [sp, #-32]!
   820c8:	90000020 	adrp	x0, 86000 <bh_core_timer_handler+0x674>
   820cc:	910003fd 	mov	x29, sp
   820d0:	f9457c00 	ldr	x0, [x0, #2808]
   820d4:	a90153f3 	stp	x19, x20, [sp, #16]
   820d8:	f9400000 	ldr	x0, [x0]
   820dc:	9400027a 	bl	82ac4 <kalloc_init>
   820e0:	90000020 	adrp	x0, 86000 <bh_core_timer_handler+0x674>
   820e4:	9106e000 	add	x0, x0, #0x1b8
   820e8:	97fffd22 	bl	81570 <uart_println>
   820ec:	d2800080 	mov	x0, #0x4                   	// #4
   820f0:	94000250 	bl	82a30 <kalloc>
   820f4:	aa0003f3 	mov	x19, x0
   820f8:	52800f61 	mov	w1, #0x7b                  	// #123
   820fc:	d2800100 	mov	x0, #0x8                   	// #8
   82100:	b9000261 	str	w1, [x19]
   82104:	9400024b 	bl	82a30 <kalloc>
   82108:	aa0003f4 	mov	x20, x0
   8210c:	b9400261 	ldr	w1, [x19]
   82110:	d2803902 	mov	x2, #0x1c8                 	// #456
   82114:	90000020 	adrp	x0, 86000 <bh_core_timer_handler+0x674>
   82118:	91072000 	add	x0, x0, #0x1c8
   8211c:	f9000282 	str	x2, [x20]
   82120:	97fffd14 	bl	81570 <uart_println>
   82124:	aa1303e0 	mov	x0, x19
   82128:	94000253 	bl	82a74 <kfree>
   8212c:	aa1403e0 	mov	x0, x20
   82130:	94000251 	bl	82a74 <kfree>
   82134:	d2800600 	mov	x0, #0x30                  	// #48
   82138:	9400023e 	bl	82a30 <kalloc>
   8213c:	aa0003f3 	mov	x19, x0
   82140:	d2800141 	mov	x1, #0xa                   	// #10
   82144:	52800183 	mov	w3, #0xc                   	// #12
   82148:	f2c00161 	movk	x1, #0xb, lsl #32
   8214c:	52800162 	mov	w2, #0xb                   	// #11
   82150:	90000020 	adrp	x0, 86000 <bh_core_timer_handler+0x674>
   82154:	f9000261 	str	x1, [x19]
   82158:	91078000 	add	x0, x0, #0x1e0
   8215c:	b9001e63 	str	w3, [x19, #28]
   82160:	52800141 	mov	w1, #0xa                   	// #10
   82164:	97fffd03 	bl	81570 <uart_println>
   82168:	aa1303e0 	mov	x0, x19
   8216c:	a94153f3 	ldp	x19, x20, [sp, #16]
   82170:	a8c27bfd 	ldp	x29, x30, [sp], #32
   82174:	14000240 	b	82a74 <kfree>
   82178:	d503201f 	nop
   8217c:	d503201f 	nop

0000000000082180 <help>:
   82180:	90000020 	adrp	x0, 86000 <bh_core_timer_handler+0x674>
   82184:	9107e000 	add	x0, x0, #0x1f8
   82188:	14000752 	b	83ed0 <uart_puts>
   8218c:	d503201f 	nop

0000000000082190 <hello>:
   82190:	90000020 	adrp	x0, 86000 <bh_core_timer_handler+0x674>
   82194:	910e0000 	add	x0, x0, #0x380
   82198:	1400074e 	b	83ed0 <uart_puts>
   8219c:	d503201f 	nop

00000000000821a0 <get_system_timer>:
   821a0:	a9bf27e8 	stp	x8, x9, [sp, #-16]!
   821a4:	d2800028 	mov	x8, #0x1                   	// #1
   821a8:	d4000001 	svc	#0x0
   821ac:	a8c127e8 	ldp	x8, x9, [sp], #16
   821b0:	d65f03c0 	ret

00000000000821b4 <reset>:
   821b4:	d2800401 	mov	x1, #0x20                  	// #32
   821b8:	d2800484 	mov	x4, #0x24                  	// #36
   821bc:	f2a7e201 	movk	x1, #0x3f10, lsl #16
   821c0:	5280aaa7 	mov	w7, #0x555                 	// #1365
   821c4:	f2a7e204 	movk	x4, #0x3f10, lsl #16
   821c8:	d2800382 	mov	x2, #0x1c                  	// #28
   821cc:	b9400020 	ldr	w0, [x1]
   821d0:	52ab4006 	mov	w6, #0x5a000000            	// #1509949440
   821d4:	f2a7e202 	movk	x2, #0x3f10, lsl #16
   821d8:	52800145 	mov	w5, #0xa                   	// #10
   821dc:	0a070000 	and	w0, w0, w7
   821e0:	72ab4005 	movk	w5, #0x5a00, lsl #16
   821e4:	2a060000 	orr	w0, w0, w6
   821e8:	b9000020 	str	w0, [x1]
   821ec:	52800403 	mov	w3, #0x20                  	// #32
   821f0:	b9000085 	str	w5, [x4]
   821f4:	72ab4003 	movk	w3, #0x5a00, lsl #16
   821f8:	b9000043 	str	w3, [x2]
   821fc:	14000000 	b	821fc <reset+0x48>

0000000000082200 <get_current_el>:
   82200:	d5384241 	mrs	x1, currentel
   82204:	d342fc21 	lsr	x1, x1, #2
   82208:	90000020 	adrp	x0, 86000 <bh_core_timer_handler+0x674>
   8220c:	910e4000 	add	x0, x0, #0x390
   82210:	17fffcd8 	b	81570 <uart_println>

0000000000082214 <svc1>:
   82214:	d4000021 	svc	#0x1
   82218:	d65f03c0 	ret
   8221c:	d503201f 	nop

0000000000082220 <timer_interrupt>:
   82220:	a9bf7bfd 	stp	x29, x30, [sp, #-16]!
   82224:	910003fd 	mov	x29, sp
   82228:	940007b3 	bl	840f4 <local_timer_init>
   8222c:	a8c17bfd 	ldp	x29, x30, [sp], #16
   82230:	140007a5 	b	840c4 <core_timer_enable>

0000000000082234 <core_timer_interrupt>:
   82234:	140007a4 	b	840c4 <core_timer_enable>
   82238:	d503201f 	nop
   8223c:	d503201f 	nop

0000000000082240 <local_timer_interrupt>:
   82240:	140007ad 	b	840f4 <local_timer_init>

0000000000082244 <bottom_half_mode>:
   82244:	90000020 	adrp	x0, 86000 <bh_core_timer_handler+0x674>
   82248:	52800021 	mov	w1, #0x1                   	// #1
   8224c:	f945a400 	ldr	x0, [x0, #2888]
   82250:	b9000001 	str	w1, [x0]
   82254:	140007a3 	b	840e0 <core_timer_enable_w4sec>
   82258:	d503201f 	nop
   8225c:	d503201f 	nop

0000000000082260 <get_board_revision>:
   82260:	a9be7bfd 	stp	x29, x30, [sp, #-32]!
   82264:	52800383 	mov	w3, #0x1c                  	// #28
   82268:	52800042 	mov	w2, #0x2                   	// #2
   8226c:	910003fd 	mov	x29, sp
   82270:	f9000bf3 	str	x19, [sp, #16]
   82274:	90000033 	adrp	x19, 86000 <bh_core_timer_handler+0x674>
   82278:	72a00022 	movk	w2, #0x1, lsl #16
   8227c:	52800081 	mov	w1, #0x4                   	// #4
   82280:	f9455a73 	ldr	x19, [x19, #2736]
   82284:	52800100 	mov	w0, #0x8                   	// #8
   82288:	b9000263 	str	w3, [x19]
   8228c:	b900067f 	str	wzr, [x19, #4]
   82290:	b9000a62 	str	w2, [x19, #8]
   82294:	b9000e61 	str	w1, [x19, #12]
   82298:	b900127f 	str	wzr, [x19, #16]
   8229c:	b900167f 	str	wzr, [x19, #20]
   822a0:	b9001a7f 	str	wzr, [x19, #24]
   822a4:	94000643 	bl	83bb0 <mbox_call>
   822a8:	340000e0 	cbz	w0, 822c4 <get_board_revision+0x64>
   822ac:	b9401661 	ldr	w1, [x19, #20]
   822b0:	90000020 	adrp	x0, 86000 <bh_core_timer_handler+0x674>
   822b4:	f9400bf3 	ldr	x19, [sp, #16]
   822b8:	910ec000 	add	x0, x0, #0x3b0
   822bc:	a8c27bfd 	ldp	x29, x30, [sp], #32
   822c0:	17fffcac 	b	81570 <uart_println>
   822c4:	f9400bf3 	ldr	x19, [sp, #16]
   822c8:	90000020 	adrp	x0, 86000 <bh_core_timer_handler+0x674>
   822cc:	a8c27bfd 	ldp	x29, x30, [sp], #32
   822d0:	910f4000 	add	x0, x0, #0x3d0
   822d4:	17fffca7 	b	81570 <uart_println>
   822d8:	d503201f 	nop
   822dc:	d503201f 	nop

00000000000822e0 <get_vc_memory>:
   822e0:	a9be7bfd 	stp	x29, x30, [sp, #-32]!
   822e4:	52800403 	mov	w3, #0x20                  	// #32
   822e8:	528000c2 	mov	w2, #0x6                   	// #6
   822ec:	910003fd 	mov	x29, sp
   822f0:	f9000bf3 	str	x19, [sp, #16]
   822f4:	90000033 	adrp	x19, 86000 <bh_core_timer_handler+0x674>
   822f8:	72a00022 	movk	w2, #0x1, lsl #16
   822fc:	52800101 	mov	w1, #0x8                   	// #8
   82300:	f9455a73 	ldr	x19, [x19, #2736]
   82304:	2a0103e0 	mov	w0, w1
   82308:	b9000263 	str	w3, [x19]
   8230c:	b900067f 	str	wzr, [x19, #4]
   82310:	b9000a62 	str	w2, [x19, #8]
   82314:	b9000e61 	str	w1, [x19, #12]
   82318:	b900127f 	str	wzr, [x19, #16]
   8231c:	b900167f 	str	wzr, [x19, #20]
   82320:	b9001a7f 	str	wzr, [x19, #24]
   82324:	b9001e7f 	str	wzr, [x19, #28]
   82328:	94000622 	bl	83bb0 <mbox_call>
   8232c:	34000100 	cbz	w0, 8234c <get_vc_memory+0x6c>
   82330:	b9401661 	ldr	w1, [x19, #20]
   82334:	90000020 	adrp	x0, 86000 <bh_core_timer_handler+0x674>
   82338:	b9401a62 	ldr	w2, [x19, #24]
   8233c:	910fc000 	add	x0, x0, #0x3f0
   82340:	f9400bf3 	ldr	x19, [sp, #16]
   82344:	a8c27bfd 	ldp	x29, x30, [sp], #32
   82348:	17fffc8a 	b	81570 <uart_println>
   8234c:	f9400bf3 	ldr	x19, [sp, #16]
   82350:	90000020 	adrp	x0, 86000 <bh_core_timer_handler+0x674>
   82354:	a8c27bfd 	ldp	x29, x30, [sp], #32
   82358:	91106000 	add	x0, x0, #0x418
   8235c:	17fffc85 	b	81570 <uart_println>

0000000000082360 <get_arm_memory>:
   82360:	a9be7bfd 	stp	x29, x30, [sp, #-32]!
   82364:	52800403 	mov	w3, #0x20                  	// #32
   82368:	528000a2 	mov	w2, #0x5                   	// #5
   8236c:	910003fd 	mov	x29, sp
   82370:	f9000bf3 	str	x19, [sp, #16]
   82374:	90000033 	adrp	x19, 86000 <bh_core_timer_handler+0x674>
   82378:	72a00022 	movk	w2, #0x1, lsl #16
   8237c:	52800101 	mov	w1, #0x8                   	// #8
   82380:	f9455a73 	ldr	x19, [x19, #2736]
   82384:	2a0103e0 	mov	w0, w1
   82388:	b9000263 	str	w3, [x19]
   8238c:	b900067f 	str	wzr, [x19, #4]
   82390:	b9000a62 	str	w2, [x19, #8]
   82394:	b9000e61 	str	w1, [x19, #12]
   82398:	b900127f 	str	wzr, [x19, #16]
   8239c:	b900167f 	str	wzr, [x19, #20]
   823a0:	b9001a7f 	str	wzr, [x19, #24]
   823a4:	b9001e7f 	str	wzr, [x19, #28]
   823a8:	94000602 	bl	83bb0 <mbox_call>
   823ac:	34000100 	cbz	w0, 823cc <get_arm_memory+0x6c>
   823b0:	b9401661 	ldr	w1, [x19, #20]
   823b4:	90000020 	adrp	x0, 86000 <bh_core_timer_handler+0x674>
   823b8:	b9401a62 	ldr	w2, [x19, #24]
   823bc:	9110e000 	add	x0, x0, #0x438
   823c0:	f9400bf3 	ldr	x19, [sp, #16]
   823c4:	a8c27bfd 	ldp	x29, x30, [sp], #32
   823c8:	17fffc6a 	b	81570 <uart_println>
   823cc:	f9400bf3 	ldr	x19, [sp, #16]
   823d0:	90000020 	adrp	x0, 86000 <bh_core_timer_handler+0x674>
   823d4:	a8c27bfd 	ldp	x29, x30, [sp], #32
   823d8:	91116000 	add	x0, x0, #0x458
   823dc:	17fffc65 	b	81570 <uart_println>

00000000000823e0 <getcmd>:
   823e0:	a9bd7bfd 	stp	x29, x30, [sp, #-48]!
   823e4:	910003fd 	mov	x29, sp
   823e8:	a9025bf5 	stp	x21, x22, [sp, #32]
   823ec:	aa0003f5 	mov	x21, x0
   823f0:	90000036 	adrp	x22, 86000 <bh_core_timer_handler+0x674>
   823f4:	911202d6 	add	x22, x22, #0x480
   823f8:	a90153f3 	stp	x19, x20, [sp, #16]
   823fc:	aa1503f3 	mov	x19, x21
   82400:	2a0103f4 	mov	w20, w1
   82404:	90000020 	adrp	x0, 86000 <bh_core_timer_handler+0x674>
   82408:	9111e000 	add	x0, x0, #0x478
   8240c:	940006b1 	bl	83ed0 <uart_puts>
   82410:	93407e82 	sxtw	x2, w20
   82414:	aa1503e0 	mov	x0, x21
   82418:	52800001 	mov	w1, #0x0                   	// #0
   8241c:	97fffbba 	bl	81304 <memset>
   82420:	940006ec 	bl	83fd0 <getc>
   82424:	2a0003f4 	mov	w20, w0
   82428:	12001c00 	and	w0, w0, #0xff
   8242c:	7100341f 	cmp	w0, #0xd
   82430:	540001c0 	b.eq	82468 <getcmd+0x88>  // b.none
   82434:	7101fc1f 	cmp	w0, #0x7f
   82438:	7a481804 	ccmp	w0, #0x8, #0x4, ne  // ne = any
   8243c:	540002c1 	b.ne	82494 <getcmd+0xb4>  // b.any
   82440:	aa1603e0 	mov	x0, x22
   82444:	eb15027f 	cmp	x19, x21
   82448:	54fffec0 	b.eq	82420 <getcmd+0x40>  // b.none
   8244c:	940006a1 	bl	83ed0 <uart_puts>
   82450:	381ff67f 	strb	wzr, [x19], #-1
   82454:	940006df 	bl	83fd0 <getc>
   82458:	2a0003f4 	mov	w20, w0
   8245c:	12001c00 	and	w0, w0, #0xff
   82460:	7100341f 	cmp	w0, #0xd
   82464:	54fffe81 	b.ne	82434 <getcmd+0x54>  // b.any
   82468:	f0000000 	adrp	x0, 85000 <sync_invalid_el1t+0x7c>
   8246c:	912e6000 	add	x0, x0, #0xb98
   82470:	94000698 	bl	83ed0 <uart_puts>
   82474:	3900027f 	strb	wzr, [x19]
   82478:	394002a0 	ldrb	w0, [x21]
   8247c:	a94153f3 	ldp	x19, x20, [sp, #16]
   82480:	7100001f 	cmp	w0, #0x0
   82484:	5a9f13e0 	csetm	w0, eq  // eq = none
   82488:	a9425bf5 	ldp	x21, x22, [sp, #32]
   8248c:	a8c37bfd 	ldp	x29, x30, [sp], #48
   82490:	d65f03c0 	ret
   82494:	94000673 	bl	83e60 <uart_send>
   82498:	38001674 	strb	w20, [x19], #1
   8249c:	17ffffe1 	b	82420 <getcmd+0x40>

00000000000824a0 <shell>:
   824a0:	a9ba7bfd 	stp	x29, x30, [sp, #-96]!
   824a4:	910003fd 	mov	x29, sp
   824a8:	a90153f3 	stp	x19, x20, [sp, #16]
   824ac:	90000033 	adrp	x19, 86000 <bh_core_timer_handler+0x674>
   824b0:	90000034 	adrp	x20, 86000 <bh_core_timer_handler+0x674>
   824b4:	91380273 	add	x19, x19, #0xe00
   824b8:	91122294 	add	x20, x20, #0x488
   824bc:	a9025bf5 	stp	x21, x22, [sp, #32]
   824c0:	90000035 	adrp	x21, 86000 <bh_core_timer_handler+0x674>
   824c4:	90000036 	adrp	x22, 86000 <bh_core_timer_handler+0x674>
   824c8:	911242b5 	add	x21, x21, #0x490
   824cc:	911262d6 	add	x22, x22, #0x498
   824d0:	a90363f7 	stp	x23, x24, [sp, #48]
   824d4:	90000037 	adrp	x23, 86000 <bh_core_timer_handler+0x674>
   824d8:	90000038 	adrp	x24, 86000 <bh_core_timer_handler+0x674>
   824dc:	a9046bf9 	stp	x25, x26, [sp, #64]
   824e0:	90000039 	adrp	x25, 86000 <bh_core_timer_handler+0x674>
   824e4:	9000003a 	adrp	x26, 86000 <bh_core_timer_handler+0x674>
   824e8:	a90573fb 	stp	x27, x28, [sp, #80]
   824ec:	9000003b 	adrp	x27, 86000 <bh_core_timer_handler+0x674>
   824f0:	9000003c 	adrp	x28, 86000 <bh_core_timer_handler+0x674>
   824f4:	97ffff5b 	bl	82260 <get_board_revision>
   824f8:	97ffff9a 	bl	82360 <get_arm_memory>
   824fc:	97ffff79 	bl	822e0 <get_vc_memory>
   82500:	aa1303e0 	mov	x0, x19
   82504:	52808001 	mov	w1, #0x400                 	// #1024
   82508:	97ffffb6 	bl	823e0 <getcmd>
   8250c:	3100041f 	cmn	w0, #0x1
   82510:	54ffff80 	b.eq	82500 <shell+0x60>  // b.none
   82514:	aa1303e1 	mov	x1, x19
   82518:	aa1403e0 	mov	x0, x20
   8251c:	97fffb69 	bl	812c0 <sstrcmp>
   82520:	34000880 	cbz	w0, 82630 <shell+0x190>
   82524:	aa1303e1 	mov	x1, x19
   82528:	aa1503e0 	mov	x0, x21
   8252c:	97fffb65 	bl	812c0 <sstrcmp>
   82530:	34000840 	cbz	w0, 82638 <shell+0x198>
   82534:	aa1303e1 	mov	x1, x19
   82538:	aa1603e0 	mov	x0, x22
   8253c:	97fffb61 	bl	812c0 <sstrcmp>
   82540:	34000800 	cbz	w0, 82640 <shell+0x1a0>
   82544:	aa1303e1 	mov	x1, x19
   82548:	911282e0 	add	x0, x23, #0x4a0
   8254c:	97fffb5d 	bl	812c0 <sstrcmp>
   82550:	340007c0 	cbz	w0, 82648 <shell+0x1a8>
   82554:	aa1303e1 	mov	x1, x19
   82558:	9112a300 	add	x0, x24, #0x4a8
   8255c:	97fffb59 	bl	812c0 <sstrcmp>
   82560:	34000780 	cbz	w0, 82650 <shell+0x1b0>
   82564:	aa1303e1 	mov	x1, x19
   82568:	9112c320 	add	x0, x25, #0x4b0
   8256c:	97fffb55 	bl	812c0 <sstrcmp>
   82570:	34000740 	cbz	w0, 82658 <shell+0x1b8>
   82574:	aa1303e1 	mov	x1, x19
   82578:	9112e340 	add	x0, x26, #0x4b8
   8257c:	97fffb51 	bl	812c0 <sstrcmp>
   82580:	34000700 	cbz	w0, 82660 <shell+0x1c0>
   82584:	aa1303e1 	mov	x1, x19
   82588:	91132360 	add	x0, x27, #0x4c8
   8258c:	97fffb4d 	bl	812c0 <sstrcmp>
   82590:	340006c0 	cbz	w0, 82668 <shell+0x1c8>
   82594:	aa1303e1 	mov	x1, x19
   82598:	91134380 	add	x0, x28, #0x4d0
   8259c:	97fffb49 	bl	812c0 <sstrcmp>
   825a0:	34000680 	cbz	w0, 82670 <shell+0x1d0>
   825a4:	90000020 	adrp	x0, 86000 <bh_core_timer_handler+0x674>
   825a8:	aa1303e1 	mov	x1, x19
   825ac:	91136000 	add	x0, x0, #0x4d8
   825b0:	97fffb44 	bl	812c0 <sstrcmp>
   825b4:	34000620 	cbz	w0, 82678 <shell+0x1d8>
   825b8:	90000020 	adrp	x0, 86000 <bh_core_timer_handler+0x674>
   825bc:	aa1303e1 	mov	x1, x19
   825c0:	91138000 	add	x0, x0, #0x4e0
   825c4:	97fffb3f 	bl	812c0 <sstrcmp>
   825c8:	340005c0 	cbz	w0, 82680 <shell+0x1e0>
   825cc:	90000020 	adrp	x0, 86000 <bh_core_timer_handler+0x674>
   825d0:	aa1303e1 	mov	x1, x19
   825d4:	9113a000 	add	x0, x0, #0x4e8
   825d8:	97fffb3a 	bl	812c0 <sstrcmp>
   825dc:	34000560 	cbz	w0, 82688 <shell+0x1e8>
   825e0:	90000020 	adrp	x0, 86000 <bh_core_timer_handler+0x674>
   825e4:	aa1303e1 	mov	x1, x19
   825e8:	9113c000 	add	x0, x0, #0x4f0
   825ec:	97fffb35 	bl	812c0 <sstrcmp>
   825f0:	34000540 	cbz	w0, 82698 <shell+0x1f8>
   825f4:	90000020 	adrp	x0, 86000 <bh_core_timer_handler+0x674>
   825f8:	aa1303e1 	mov	x1, x19
   825fc:	91140000 	add	x0, x0, #0x500
   82600:	97fffb30 	bl	812c0 <sstrcmp>
   82604:	34000460 	cbz	w0, 82690 <shell+0x1f0>
   82608:	90000020 	adrp	x0, 86000 <bh_core_timer_handler+0x674>
   8260c:	aa1303e1 	mov	x1, x19
   82610:	91144000 	add	x0, x0, #0x510
   82614:	97fffb2b 	bl	812c0 <sstrcmp>
   82618:	34000440 	cbz	w0, 826a0 <shell+0x200>
   8261c:	aa1303e1 	mov	x1, x19
   82620:	90000020 	adrp	x0, 86000 <bh_core_timer_handler+0x674>
   82624:	91146000 	add	x0, x0, #0x518
   82628:	97fffbd2 	bl	81570 <uart_println>
   8262c:	17ffffb5 	b	82500 <shell+0x60>
   82630:	97fffed4 	bl	82180 <help>
   82634:	17ffffb3 	b	82500 <shell+0x60>
   82638:	97fffdb2 	bl	81d00 <fat32_test>
   8263c:	17ffffb1 	b	82500 <shell+0x60>
   82640:	97fffde0 	bl	81dc0 <test_buddy>
   82644:	17ffffaf 	b	82500 <shell+0x60>
   82648:	97fffe9f 	bl	820c4 <test_slab_example>
   8264c:	17ffffad 	b	82500 <shell+0x60>
   82650:	97fffe20 	bl	81ed0 <test_fs>
   82654:	17ffffab 	b	82500 <shell+0x60>
   82658:	97fffece 	bl	82190 <hello>
   8265c:	17ffffa9 	b	82500 <shell+0x60>
   82660:	97fffed0 	bl	821a0 <get_system_timer>
   82664:	17ffffa7 	b	82500 <shell+0x60>
   82668:	94000522 	bl	83af0 <lfb_showpicture>
   8266c:	17ffffa5 	b	82500 <shell+0x60>
   82670:	97fffed1 	bl	821b4 <reset>
   82674:	17ffffa3 	b	82500 <shell+0x60>
   82678:	97fffee2 	bl	82200 <get_current_el>
   8267c:	17ffffa1 	b	82500 <shell+0x60>
   82680:	97fffee5 	bl	82214 <svc1>
   82684:	17ffff9f 	b	82500 <shell+0x60>
   82688:	97fffee6 	bl	82220 <timer_interrupt>
   8268c:	17ffff9d 	b	82500 <shell+0x60>
   82690:	97fffeec 	bl	82240 <local_timer_interrupt>
   82694:	17ffff9b 	b	82500 <shell+0x60>
   82698:	97fffee7 	bl	82234 <core_timer_interrupt>
   8269c:	17ffff99 	b	82500 <shell+0x60>
   826a0:	97fffee9 	bl	82244 <bottom_half_mode>
   826a4:	17ffff97 	b	82500 <shell+0x60>
	...

00000000000826b0 <next_pow2>:
   826b0:	f100041f 	cmp	x0, #0x1
   826b4:	54000100 	b.eq	826d4 <next_pow2+0x24>  // b.none
   826b8:	d1000400 	sub	x0, x0, #0x1
   826bc:	52800802 	mov	w2, #0x40                  	// #64
   826c0:	dac01001 	clz	x1, x0
   826c4:	52800020 	mov	w0, #0x1                   	// #1
   826c8:	4b010041 	sub	w1, w2, w1
   826cc:	1ac12000 	lsl	w0, w0, w1
   826d0:	93407c00 	sxtw	x0, w0
   826d4:	d65f03c0 	ret
   826d8:	d503201f 	nop
   826dc:	d503201f 	nop

00000000000826e0 <init_slab>:
   826e0:	52820005 	mov	w5, #0x1000                	// #4096
   826e4:	aa0103e3 	mov	x3, x1
   826e8:	a900041f 	stp	xzr, x1, [x0]
   826ec:	1ac20ca5 	sdiv	w5, w5, w2
   826f0:	f9000801 	str	x1, [x0, #16]
   826f4:	b9001802 	str	w2, [x0, #24]
   826f8:	510004a1 	sub	w1, w5, #0x1
   826fc:	29038401 	stp	w1, w1, [x0, #28]
   82700:	93407c26 	sxtw	x6, w1
   82704:	f10004df 	cmp	x6, #0x1
   82708:	54000229 	b.ls	8274c <init_slab+0x6c>  // b.plast
   8270c:	93407c42 	sxtw	x2, w2
   82710:	93407ca5 	sxtw	x5, w5
   82714:	8b030047 	add	x7, x2, x3
   82718:	d10004a5 	sub	x5, x5, #0x1
   8271c:	aa0703e1 	mov	x1, x7
   82720:	d2800020 	mov	x0, #0x1                   	// #1
   82724:	d503201f 	nop
   82728:	aa0303e4 	mov	x4, x3
   8272c:	91000400 	add	x0, x0, #0x1
   82730:	aa0103e3 	mov	x3, x1
   82734:	8b020021 	add	x1, x1, x2
   82738:	f9000083 	str	x3, [x4]
   8273c:	eb05001f 	cmp	x0, x5
   82740:	54ffff41 	b.ne	82728 <init_slab+0x48>  // b.any
   82744:	d10008c3 	sub	x3, x6, #0x2
   82748:	9b021c63 	madd	x3, x3, x2, x7
   8274c:	f900007f 	str	xzr, [x3]
   82750:	d65f03c0 	ret

0000000000082754 <slab_alloc>:
   82754:	aa0003e3 	mov	x3, x0
   82758:	b9801800 	ldrsw	x0, [x0, #24]
   8275c:	eb01001f 	cmp	x0, x1
   82760:	54000161 	b.ne	8278c <slab_alloc+0x38>  // b.any
   82764:	f9400461 	ldr	x1, [x3, #8]
   82768:	b4000121 	cbz	x1, 8278c <slab_alloc+0x38>
   8276c:	b9401c64 	ldr	w4, [x3, #28]
   82770:	52800020 	mov	w0, #0x1                   	// #1
   82774:	f9000041 	str	x1, [x2]
   82778:	f9400022 	ldr	x2, [x1]
   8277c:	51000481 	sub	w1, w4, #0x1
   82780:	f9000462 	str	x2, [x3, #8]
   82784:	b9001c61 	str	w1, [x3, #28]
   82788:	d65f03c0 	ret
   8278c:	52800000 	mov	w0, #0x0                   	// #0
   82790:	d65f03c0 	ret

0000000000082794 <slab_free>:
   82794:	f9400803 	ldr	x3, [x0, #16]
   82798:	eb01007f 	cmp	x3, x1
   8279c:	54000208 	b.hi	827dc <slab_free+0x48>  // b.pmore
   827a0:	91400464 	add	x4, x3, #0x1, lsl #12
   827a4:	aa0003e2 	mov	x2, x0
   827a8:	52800000 	mov	w0, #0x0                   	// #0
   827ac:	eb01009f 	cmp	x4, x1
   827b0:	54000143 	b.cc	827d8 <slab_free+0x44>  // b.lo, b.ul, b.last
   827b4:	29439444 	ldp	w4, w5, [x2, #28]
   827b8:	f9400440 	ldr	x0, [x2, #8]
   827bc:	f9000020 	str	x0, [x1]
   827c0:	52800020 	mov	w0, #0x1                   	// #1
   827c4:	0b000084 	add	w4, w4, w0
   827c8:	f9000441 	str	x1, [x2, #8]
   827cc:	b9001c44 	str	w4, [x2, #28]
   827d0:	6b05009f 	cmp	w4, w5
   827d4:	54000080 	b.eq	827e4 <slab_free+0x50>  // b.none
   827d8:	d65f03c0 	ret
   827dc:	52800000 	mov	w0, #0x0                   	// #0
   827e0:	d65f03c0 	ret
   827e4:	b9402440 	ldr	w0, [x2, #36]
   827e8:	7100041f 	cmp	w0, #0x1
   827ec:	54ffff60 	b.eq	827d8 <slab_free+0x44>  // b.none
   827f0:	a9be7bfd 	stp	x29, x30, [sp, #-32]!
   827f4:	90000021 	adrp	x1, 86000 <bh_core_timer_handler+0x674>
   827f8:	90000022 	adrp	x2, 86000 <bh_core_timer_handler+0x674>
   827fc:	910003fd 	mov	x29, sp
   82800:	f945cc21 	ldr	x1, [x1, #2968]
   82804:	aa0303e0 	mov	x0, x3
   82808:	f9457042 	ldr	x2, [x2, #2784]
   8280c:	90000024 	adrp	x4, 86000 <bh_core_timer_handler+0x674>
   82810:	f9400023 	ldr	x3, [x1]
   82814:	a90153f3 	stp	x19, x20, [sp, #16]
   82818:	f9457c84 	ldr	x4, [x4, #2808]
   8281c:	f9401053 	ldr	x19, [x2, #32]
   82820:	f9400062 	ldr	x2, [x3]
   82824:	f9000022 	str	x2, [x1]
   82828:	f9400094 	ldr	x20, [x4]
   8282c:	97fff6a5 	bl	802c0 <bd_phy2n>
   82830:	2a0003e1 	mov	w1, w0
   82834:	aa1403e0 	mov	x0, x20
   82838:	d63f0260 	blr	x19
   8283c:	52800020 	mov	w0, #0x1                   	// #1
   82840:	a94153f3 	ldp	x19, x20, [sp, #16]
   82844:	a8c27bfd 	ldp	x29, x30, [sp], #32
   82848:	d65f03c0 	ret
   8284c:	d503201f 	nop

0000000000082850 <slab_meta_alloc>:
   82850:	a9bb7bfd 	stp	x29, x30, [sp, #-80]!
   82854:	52800502 	mov	w2, #0x28                  	// #40
   82858:	910003fd 	mov	x29, sp
   8285c:	a90153f3 	stp	x19, x20, [sp, #16]
   82860:	9100a3f4 	add	x20, sp, #0x28
   82864:	aa0003f3 	mov	x19, x0
   82868:	aa1303e1 	mov	x1, x19
   8286c:	aa1403e0 	mov	x0, x20
   82870:	97ffff9c 	bl	826e0 <init_slab>
   82874:	aa1403e0 	mov	x0, x20
   82878:	910083e2 	add	x2, sp, #0x20
   8287c:	d2800501 	mov	x1, #0x28                  	// #40
   82880:	97ffffb5 	bl	82754 <slab_alloc>
   82884:	340001e0 	cbz	w0, 828c0 <slab_meta_alloc+0x70>
   82888:	f94013e1 	ldr	x1, [sp, #32]
   8288c:	d2800000 	mov	x0, #0x0                   	// #0
   82890:	eb13003f 	cmp	x1, x19
   82894:	54000101 	b.ne	828b4 <slab_meta_alloc+0x64>  // b.any
   82898:	aa0103e0 	mov	x0, x1
   8289c:	a94297e4 	ldp	x4, x5, [sp, #40]
   828a0:	a9001424 	stp	x4, x5, [x1]
   828a4:	a9438fe2 	ldp	x2, x3, [sp, #56]
   828a8:	a9010c22 	stp	x2, x3, [x1, #16]
   828ac:	f94027e1 	ldr	x1, [sp, #72]
   828b0:	f9001001 	str	x1, [x0, #32]
   828b4:	a94153f3 	ldp	x19, x20, [sp, #16]
   828b8:	a8c57bfd 	ldp	x29, x30, [sp], #80
   828bc:	d65f03c0 	ret
   828c0:	d2800000 	mov	x0, #0x0                   	// #0
   828c4:	a94153f3 	ldp	x19, x20, [sp, #16]
   828c8:	a8c57bfd 	ldp	x29, x30, [sp], #80
   828cc:	d65f03c0 	ret

00000000000828d0 <register_allocator>:
   828d0:	a9bb7bfd 	stp	x29, x30, [sp, #-80]!
   828d4:	910003fd 	mov	x29, sp
   828d8:	a9025bf5 	stp	x21, x22, [sp, #32]
   828dc:	90000035 	adrp	x21, 86000 <bh_core_timer_handler+0x674>
   828e0:	2a0103f6 	mov	w22, w1
   828e4:	f94562b5 	ldr	x21, [x21, #2752]
   828e8:	a90363f7 	stp	x23, x24, [sp, #48]
   828ec:	aa0003f7 	mov	x23, x0
   828f0:	910123f8 	add	x24, sp, #0x48
   828f4:	d2800501 	mov	x1, #0x28                  	// #40
   828f8:	f94002a0 	ldr	x0, [x21]
   828fc:	aa1803e2 	mov	x2, x24
   82900:	a90153f3 	stp	x19, x20, [sp, #16]
   82904:	90000034 	adrp	x20, 86000 <bh_core_timer_handler+0x674>
   82908:	90000033 	adrp	x19, 86000 <bh_core_timer_handler+0x674>
   8290c:	97ffff92 	bl	82754 <slab_alloc>
   82910:	35000180 	cbnz	w0, 82940 <register_allocator+0x70>
   82914:	f9457e80 	ldr	x0, [x20, #2808]
   82918:	52800021 	mov	w1, #0x1                   	// #1
   8291c:	f9457262 	ldr	x2, [x19, #2784]
   82920:	f9400000 	ldr	x0, [x0]
   82924:	f9400c42 	ldr	x2, [x2, #24]
   82928:	d63f0040 	blr	x2
   8292c:	97ffffc9 	bl	82850 <slab_meta_alloc>
   82930:	f90002a0 	str	x0, [x21]
   82934:	aa1803e2 	mov	x2, x24
   82938:	d2800501 	mov	x1, #0x28                  	// #40
   8293c:	97ffff86 	bl	82754 <slab_alloc>
   82940:	f9457263 	ldr	x3, [x19, #2784]
   82944:	52800021 	mov	w1, #0x1                   	// #1
   82948:	f9457e94 	ldr	x20, [x20, #2808]
   8294c:	f9400c62 	ldr	x2, [x3, #24]
   82950:	f9400280 	ldr	x0, [x20]
   82954:	f94027f3 	ldr	x19, [sp, #72]
   82958:	d63f0040 	blr	x2
   8295c:	aa0003e1 	mov	x1, x0
   82960:	2a1703e2 	mov	w2, w23
   82964:	aa1303e0 	mov	x0, x19
   82968:	97ffff5e 	bl	826e0 <init_slab>
   8296c:	90000022 	adrp	x2, 86000 <bh_core_timer_handler+0x674>
   82970:	aa1303e0 	mov	x0, x19
   82974:	a94363f7 	ldp	x23, x24, [sp, #48]
   82978:	b9002676 	str	w22, [x19, #36]
   8297c:	f945cc41 	ldr	x1, [x2, #2968]
   82980:	a9425bf5 	ldp	x21, x22, [sp, #32]
   82984:	f9400022 	ldr	x2, [x1]
   82988:	f9000262 	str	x2, [x19]
   8298c:	f9000033 	str	x19, [x1]
   82990:	a94153f3 	ldp	x19, x20, [sp, #16]
   82994:	a8c57bfd 	ldp	x29, x30, [sp], #80
   82998:	d65f03c0 	ret
   8299c:	d503201f 	nop

00000000000829a0 <__kalloc>:
   829a0:	a9bc7bfd 	stp	x29, x30, [sp, #-64]!
   829a4:	90000021 	adrp	x1, 86000 <bh_core_timer_handler+0x674>
   829a8:	910003fd 	mov	x29, sp
   829ac:	f945cc21 	ldr	x1, [x1, #2968]
   829b0:	a90153f3 	stp	x19, x20, [sp, #16]
   829b4:	aa0003f4 	mov	x20, x0
   829b8:	f9400033 	ldr	x19, [x1]
   829bc:	f90013f5 	str	x21, [sp, #32]
   829c0:	9100e3f5 	add	x21, sp, #0x38
   829c4:	b5000093 	cbnz	x19, 829d4 <__kalloc+0x34>
   829c8:	1400000d 	b	829fc <__kalloc+0x5c>
   829cc:	f9400273 	ldr	x19, [x19]
   829d0:	b4000173 	cbz	x19, 829fc <__kalloc+0x5c>
   829d4:	aa1503e2 	mov	x2, x21
   829d8:	aa1403e1 	mov	x1, x20
   829dc:	aa1303e0 	mov	x0, x19
   829e0:	97ffff5d 	bl	82754 <slab_alloc>
   829e4:	34ffff40 	cbz	w0, 829cc <__kalloc+0x2c>
   829e8:	a94153f3 	ldp	x19, x20, [sp, #16]
   829ec:	f94013f5 	ldr	x21, [sp, #32]
   829f0:	f9401fe0 	ldr	x0, [sp, #56]
   829f4:	a8c47bfd 	ldp	x29, x30, [sp], #64
   829f8:	d65f03c0 	ret
   829fc:	aa1403e0 	mov	x0, x20
   82a00:	52800001 	mov	w1, #0x0                   	// #0
   82a04:	97ffffb3 	bl	828d0 <register_allocator>
   82a08:	aa1503e2 	mov	x2, x21
   82a0c:	aa1403e1 	mov	x1, x20
   82a10:	97ffff51 	bl	82754 <slab_alloc>
   82a14:	a94153f3 	ldp	x19, x20, [sp, #16]
   82a18:	f94013f5 	ldr	x21, [sp, #32]
   82a1c:	f9401fe0 	ldr	x0, [sp, #56]
   82a20:	a8c47bfd 	ldp	x29, x30, [sp], #64
   82a24:	d65f03c0 	ret
   82a28:	d503201f 	nop
   82a2c:	d503201f 	nop

0000000000082a30 <kalloc>:
   82a30:	f1001c1f 	cmp	x0, #0x7
   82a34:	54000109 	b.ls	82a54 <kalloc+0x24>  // b.plast
   82a38:	f140041f 	cmp	x0, #0x1, lsl #12
   82a3c:	54000188 	b.hi	82a6c <kalloc+0x3c>  // b.pmore
   82a40:	a9bf7bfd 	stp	x29, x30, [sp, #-16]!
   82a44:	910003fd 	mov	x29, sp
   82a48:	97ffff1a 	bl	826b0 <next_pow2>
   82a4c:	a8c17bfd 	ldp	x29, x30, [sp], #16
   82a50:	17ffffd4 	b	829a0 <__kalloc>
   82a54:	a9bf7bfd 	stp	x29, x30, [sp, #-16]!
   82a58:	d2800100 	mov	x0, #0x8                   	// #8
   82a5c:	910003fd 	mov	x29, sp
   82a60:	97ffff14 	bl	826b0 <next_pow2>
   82a64:	a8c17bfd 	ldp	x29, x30, [sp], #16
   82a68:	17ffffce 	b	829a0 <__kalloc>
   82a6c:	d2800000 	mov	x0, #0x0                   	// #0
   82a70:	d65f03c0 	ret

0000000000082a74 <kfree>:
   82a74:	b4000260 	cbz	x0, 82ac0 <kfree+0x4c>
   82a78:	a9be7bfd 	stp	x29, x30, [sp, #-32]!
   82a7c:	910003fd 	mov	x29, sp
   82a80:	a90153f3 	stp	x19, x20, [sp, #16]
   82a84:	aa0003f4 	mov	x20, x0
   82a88:	90000020 	adrp	x0, 86000 <bh_core_timer_handler+0x674>
   82a8c:	f945cc00 	ldr	x0, [x0, #2968]
   82a90:	f9400013 	ldr	x19, [x0]
   82a94:	b5000093 	cbnz	x19, 82aa4 <kfree+0x30>
   82a98:	14000007 	b	82ab4 <kfree+0x40>
   82a9c:	f9400273 	ldr	x19, [x19]
   82aa0:	b40000b3 	cbz	x19, 82ab4 <kfree+0x40>
   82aa4:	aa1403e1 	mov	x1, x20
   82aa8:	aa1303e0 	mov	x0, x19
   82aac:	97ffff3a 	bl	82794 <slab_free>
   82ab0:	34ffff60 	cbz	w0, 82a9c <kfree+0x28>
   82ab4:	a94153f3 	ldp	x19, x20, [sp, #16]
   82ab8:	a8c27bfd 	ldp	x29, x30, [sp], #32
   82abc:	d65f03c0 	ret
   82ac0:	d65f03c0 	ret

0000000000082ac4 <kalloc_init>:
   82ac4:	a9bd7bfd 	stp	x29, x30, [sp, #-48]!
   82ac8:	90000022 	adrp	x2, 86000 <bh_core_timer_handler+0x674>
   82acc:	52800021 	mov	w1, #0x1                   	// #1
   82ad0:	910003fd 	mov	x29, sp
   82ad4:	f9457042 	ldr	x2, [x2, #2784]
   82ad8:	a90153f3 	stp	x19, x20, [sp, #16]
   82adc:	90000034 	adrp	x20, 86000 <bh_core_timer_handler+0x674>
   82ae0:	91158294 	add	x20, x20, #0x560
   82ae4:	f9400c42 	ldr	x2, [x2, #24]
   82ae8:	f90013f5 	str	x21, [sp, #32]
   82aec:	d63f0040 	blr	x2
   82af0:	aa0003f3 	mov	x19, x0
   82af4:	90000020 	adrp	x0, 86000 <bh_core_timer_handler+0x674>
   82af8:	9114e000 	add	x0, x0, #0x538
   82afc:	97fffa9d 	bl	81570 <uart_println>
   82b00:	aa1303e0 	mov	x0, x19
   82b04:	97ffff53 	bl	82850 <slab_meta_alloc>
   82b08:	90000021 	adrp	x1, 86000 <bh_core_timer_handler+0x674>
   82b0c:	90000033 	adrp	x19, 86000 <bh_core_timer_handler+0x674>
   82b10:	f9456021 	ldr	x1, [x1, #2752]
   82b14:	f945d673 	ldr	x19, [x19, #2984]
   82b18:	f9000020 	str	x0, [x1]
   82b1c:	91008275 	add	x21, x19, #0x20
   82b20:	b9400261 	ldr	w1, [x19]
   82b24:	aa1403e0 	mov	x0, x20
   82b28:	97fffa92 	bl	81570 <uart_println>
   82b2c:	b8804660 	ldrsw	x0, [x19], #4
   82b30:	52800021 	mov	w1, #0x1                   	// #1
   82b34:	97ffff67 	bl	828d0 <register_allocator>
   82b38:	eb15027f 	cmp	x19, x21
   82b3c:	54ffff21 	b.ne	82b20 <kalloc_init+0x5c>  // b.any
   82b40:	a94153f3 	ldp	x19, x20, [sp, #16]
   82b44:	f94013f5 	ldr	x21, [sp, #32]
   82b48:	a8c37bfd 	ldp	x29, x30, [sp], #48
   82b4c:	d65f03c0 	ret

0000000000082b50 <tmpfs_setup_mount>:
   82b50:	d65f03c0 	ret

0000000000082b54 <tmpfs_construct>:
   82b54:	d65f03c0 	ret
   82b58:	d503201f 	nop
   82b5c:	d503201f 	nop

0000000000082b60 <tmpfs_new>:
   82b60:	a9be7bfd 	stp	x29, x30, [sp, #-32]!
   82b64:	90000023 	adrp	x3, 86000 <bh_core_timer_handler+0x674>
   82b68:	aa0103e2 	mov	x2, x1
   82b6c:	910003fd 	mov	x29, sp
   82b70:	f9000bf3 	str	x19, [sp, #16]
   82b74:	aa0003f3 	mov	x19, x0
   82b78:	f9454863 	ldr	x3, [x3, #2704]
   82b7c:	9100a001 	add	x1, x0, #0x28
   82b80:	a9008a61 	stp	x1, x2, [x19, #8]
   82b84:	90000020 	adrp	x0, 86000 <bh_core_timer_handler+0x674>
   82b88:	91164000 	add	x0, x0, #0x590
   82b8c:	a901fe61 	stp	x1, xzr, [x19, #24]
   82b90:	f9000061 	str	x1, [x3]
   82b94:	97fffa77 	bl	81570 <uart_println>
   82b98:	aa1303e0 	mov	x0, x19
   82b9c:	f9400bf3 	ldr	x19, [sp, #16]
   82ba0:	a8c27bfd 	ldp	x29, x30, [sp], #32
   82ba4:	d65f03c0 	ret
   82ba8:	d503201f 	nop
   82bac:	d503201f 	nop

0000000000082bb0 <tmpfs_node_lookup>:
   82bb0:	a9bd7bfd 	stp	x29, x30, [sp, #-48]!
   82bb4:	910003fd 	mov	x29, sp
   82bb8:	a90153f3 	stp	x19, x20, [sp, #16]
   82bbc:	f9402013 	ldr	x19, [x0, #64]
   82bc0:	b4000233 	cbz	x19, 82c04 <tmpfs_node_lookup+0x54>
   82bc4:	aa0203f4 	mov	x20, x2
   82bc8:	f90013f5 	str	x21, [sp, #32]
   82bcc:	aa0103f5 	mov	x21, x1
   82bd0:	14000003 	b	82bdc <tmpfs_node_lookup+0x2c>
   82bd4:	f9401e73 	ldr	x19, [x19, #56]
   82bd8:	b4000153 	cbz	x19, 82c00 <tmpfs_node_lookup+0x50>
   82bdc:	f9402660 	ldr	x0, [x19, #72]
   82be0:	aa1403e1 	mov	x1, x20
   82be4:	97fff9b7 	bl	812c0 <sstrcmp>
   82be8:	35ffff60 	cbnz	w0, 82bd4 <tmpfs_node_lookup+0x24>
   82bec:	f90002b3 	str	x19, [x21]
   82bf0:	a94153f3 	ldp	x19, x20, [sp, #16]
   82bf4:	f94013f5 	ldr	x21, [sp, #32]
   82bf8:	a8c37bfd 	ldp	x29, x30, [sp], #48
   82bfc:	d65f03c0 	ret
   82c00:	f94013f5 	ldr	x21, [sp, #32]
   82c04:	12800000 	mov	w0, #0xffffffff            	// #-1
   82c08:	a94153f3 	ldp	x19, x20, [sp, #16]
   82c0c:	a8c37bfd 	ldp	x29, x30, [sp], #48
   82c10:	d65f03c0 	ret

0000000000082c14 <tmpfs_node_create>:
   82c14:	a9bc7bfd 	stp	x29, x30, [sp, #-64]!
   82c18:	910003fd 	mov	x29, sp
   82c1c:	a90153f3 	stp	x19, x20, [sp, #16]
   82c20:	aa0003f4 	mov	x20, x0
   82c24:	d2800b00 	mov	x0, #0x58                  	// #88
   82c28:	a9025bf5 	stp	x21, x22, [sp, #32]
   82c2c:	aa0203f6 	mov	x22, x2
   82c30:	a90363f7 	stp	x23, x24, [sp, #48]
   82c34:	aa0103f8 	mov	x24, x1
   82c38:	97ffff7e 	bl	82a30 <kalloc>
   82c3c:	aa0003f3 	mov	x19, x0
   82c40:	d2800200 	mov	x0, #0x10                  	// #16
   82c44:	97ffff7b 	bl	82a30 <kalloc>
   82c48:	aa0003f5 	mov	x21, x0
   82c4c:	90000022 	adrp	x2, 86000 <bh_core_timer_handler+0x674>
   82c50:	90000021 	adrp	x1, 86000 <bh_core_timer_handler+0x674>
   82c54:	f9002a75 	str	x21, [x19, #80]
   82c58:	f9455442 	ldr	x2, [x2, #2728]
   82c5c:	f9459821 	ldr	x1, [x1, #2864]
   82c60:	f9400040 	ldr	x0, [x2]
   82c64:	f9400821 	ldr	x1, [x1, #16]
   82c68:	f90002b6 	str	x22, [x21]
   82c6c:	d63f0020 	blr	x1
   82c70:	aa0003f7 	mov	x23, x0
   82c74:	aa1703e1 	mov	x1, x23
   82c78:	90000020 	adrp	x0, 86000 <bh_core_timer_handler+0x674>
   82c7c:	9116c000 	add	x0, x0, #0x5b0
   82c80:	97fffa3c 	bl	81570 <uart_println>
   82c84:	f9400280 	ldr	x0, [x20]
   82c88:	f90006b7 	str	x23, [x21, #8]
   82c8c:	f9000260 	str	x0, [x19]
   82c90:	d2800300 	mov	x0, #0x18                  	// #24
   82c94:	f9002676 	str	x22, [x19, #72]
   82c98:	97ffff66 	bl	82a30 <kalloc>
   82c9c:	90000022 	adrp	x2, 86000 <bh_core_timer_handler+0x674>
   82ca0:	90000023 	adrp	x3, 86000 <bh_core_timer_handler+0x674>
   82ca4:	90000021 	adrp	x1, 86000 <bh_core_timer_handler+0x674>
   82ca8:	f945d042 	ldr	x2, [x2, #2976]
   82cac:	f9458821 	ldr	x1, [x1, #2832]
   82cb0:	f9457863 	ldr	x3, [x3, #2800]
   82cb4:	a9425bf5 	ldp	x21, x22, [sp, #32]
   82cb8:	f9000660 	str	x0, [x19, #8]
   82cbc:	a9000803 	stp	x3, x2, [x0]
   82cc0:	f9000801 	str	x1, [x0, #16]
   82cc4:	52800000 	mov	w0, #0x0                   	// #0
   82cc8:	b9001a7f 	str	wzr, [x19, #24]
   82ccc:	f9001a7f 	str	xzr, [x19, #48]
   82cd0:	f9000313 	str	x19, [x24]
   82cd4:	a94363f7 	ldp	x23, x24, [sp, #48]
   82cd8:	f9402281 	ldr	x1, [x20, #64]
   82cdc:	f9001e61 	str	x1, [x19, #56]
   82ce0:	f9002293 	str	x19, [x20, #64]
   82ce4:	a94153f3 	ldp	x19, x20, [sp, #16]
   82ce8:	a8c47bfd 	ldp	x29, x30, [sp], #64
   82cec:	d65f03c0 	ret

0000000000082cf0 <setup_mount>:
   82cf0:	a9bd7bfd 	stp	x29, x30, [sp, #-48]!
   82cf4:	90000022 	adrp	x2, 86000 <bh_core_timer_handler+0x674>
   82cf8:	910003fd 	mov	x29, sp
   82cfc:	f9459842 	ldr	x2, [x2, #2864]
   82d00:	a90153f3 	stp	x19, x20, [sp, #16]
   82d04:	aa0103f4 	mov	x20, x1
   82d08:	b2762fe1 	mov	x1, #0x3ffc00              	// #4193280
   82d0c:	f9400442 	ldr	x2, [x2, #8]
   82d10:	f90013f5 	str	x21, [sp, #32]
   82d14:	aa0003f5 	mov	x21, x0
   82d18:	d2a00200 	mov	x0, #0x100000              	// #1048576
   82d1c:	d63f0040 	blr	x2
   82d20:	aa0003f3 	mov	x19, x0
   82d24:	b2762fe2 	mov	x2, #0x3ffc00              	// #4193280
   82d28:	90000020 	adrp	x0, 86000 <bh_core_timer_handler+0x674>
   82d2c:	d2a00201 	mov	x1, #0x100000              	// #1048576
   82d30:	91172000 	add	x0, x0, #0x5c8
   82d34:	97fffa0f 	bl	81570 <uart_println>
   82d38:	90000020 	adrp	x0, 86000 <bh_core_timer_handler+0x674>
   82d3c:	f9455400 	ldr	x0, [x0, #2728]
   82d40:	f9000013 	str	x19, [x0]
   82d44:	b4000513 	cbz	x19, 82de4 <setup_mount+0xf4>
   82d48:	d2800b00 	mov	x0, #0x58                  	// #88
   82d4c:	97ffff39 	bl	82a30 <kalloc>
   82d50:	aa0003f3 	mov	x19, x0
   82d54:	d2800200 	mov	x0, #0x10                  	// #16
   82d58:	f9000274 	str	x20, [x19]
   82d5c:	97ffff35 	bl	82a30 <kalloc>
   82d60:	f9002a60 	str	x0, [x19, #80]
   82d64:	d2800300 	mov	x0, #0x18                  	// #24
   82d68:	97ffff32 	bl	82a30 <kalloc>
   82d6c:	f9000660 	str	x0, [x19, #8]
   82d70:	90000023 	adrp	x3, 86000 <bh_core_timer_handler+0x674>
   82d74:	90000022 	adrp	x2, 86000 <bh_core_timer_handler+0x674>
   82d78:	90000021 	adrp	x1, 86000 <bh_core_timer_handler+0x674>
   82d7c:	f9402a64 	ldr	x4, [x19, #80]
   82d80:	f9458821 	ldr	x1, [x1, #2832]
   82d84:	f9000801 	str	x1, [x0, #16]
   82d88:	f9457863 	ldr	x3, [x3, #2800]
   82d8c:	f0000001 	adrp	x1, 85000 <sync_invalid_el1t+0x7c>
   82d90:	f945d042 	ldr	x2, [x2, #2976]
   82d94:	a9000803 	stp	x3, x2, [x0]
   82d98:	913a6021 	add	x1, x1, #0xe98
   82d9c:	52800020 	mov	w0, #0x1                   	// #1
   82da0:	b9001a60 	str	w0, [x19, #24]
   82da4:	b9002a60 	str	w0, [x19, #40]
   82da8:	90000020 	adrp	x0, 86000 <bh_core_timer_handler+0x674>
   82dac:	a9037e73 	stp	x19, xzr, [x19, #48]
   82db0:	91184000 	add	x0, x0, #0x610
   82db4:	a904067f 	stp	xzr, x1, [x19, #64]
   82db8:	f9000081 	str	x1, [x4]
   82dbc:	97fff9ed 	bl	81570 <uart_println>
   82dc0:	a9005693 	stp	x19, x21, [x20]
   82dc4:	90000021 	adrp	x1, 86000 <bh_core_timer_handler+0x674>
   82dc8:	52800000 	mov	w0, #0x0                   	// #0
   82dcc:	f9454c21 	ldr	x1, [x1, #2712]
   82dd0:	f9000033 	str	x19, [x1]
   82dd4:	a94153f3 	ldp	x19, x20, [sp, #16]
   82dd8:	f94013f5 	ldr	x21, [sp, #32]
   82ddc:	a8c37bfd 	ldp	x29, x30, [sp], #48
   82de0:	d65f03c0 	ret
   82de4:	90000020 	adrp	x0, 86000 <bh_core_timer_handler+0x674>
   82de8:	91178000 	add	x0, x0, #0x5e0
   82dec:	97fff9e1 	bl	81570 <uart_println>
   82df0:	12800000 	mov	w0, #0xffffffff            	// #-1
   82df4:	17fffff8 	b	82dd4 <setup_mount+0xe4>
   82df8:	d503201f 	nop
   82dfc:	d503201f 	nop

0000000000082e00 <tmpfs_alloc>:
   82e00:	a9be7bfd 	stp	x29, x30, [sp, #-32]!
   82e04:	90000021 	adrp	x1, 86000 <bh_core_timer_handler+0x674>
   82e08:	910003fd 	mov	x29, sp
   82e0c:	f9000bf3 	str	x19, [sp, #16]
   82e10:	aa0003f3 	mov	x19, x0
   82e14:	9118c020 	add	x0, x1, #0x630
   82e18:	a9410662 	ldp	x2, x1, [x19, #16]
   82e1c:	91080021 	add	x1, x1, #0x200
   82e20:	97fff9d4 	bl	81570 <uart_println>
   82e24:	a9410261 	ldp	x1, x0, [x19, #16]
   82e28:	91080000 	add	x0, x0, #0x200
   82e2c:	eb01001f 	cmp	x0, x1
   82e30:	54000123 	b.cc	82e54 <tmpfs_alloc+0x54>  // b.lo, b.ul, b.last
   82e34:	52804001 	mov	w1, #0x200                 	// #512
   82e38:	90000020 	adrp	x0, 86000 <bh_core_timer_handler+0x674>
   82e3c:	911a4000 	add	x0, x0, #0x690
   82e40:	97fff9cc 	bl	81570 <uart_println>
   82e44:	92800000 	mov	x0, #0xffffffffffffffff    	// #-1
   82e48:	f9400bf3 	ldr	x19, [sp, #16]
   82e4c:	a8c27bfd 	ldp	x29, x30, [sp], #32
   82e50:	d65f03c0 	ret
   82e54:	f9000e60 	str	x0, [x19, #24]
   82e58:	52804001 	mov	w1, #0x200                 	// #512
   82e5c:	90000020 	adrp	x0, 86000 <bh_core_timer_handler+0x674>
   82e60:	91198000 	add	x0, x0, #0x660
   82e64:	97fff9c3 	bl	81570 <uart_println>
   82e68:	f9401260 	ldr	x0, [x19, #32]
   82e6c:	91000401 	add	x1, x0, #0x1
   82e70:	f9001261 	str	x1, [x19, #32]
   82e74:	f9400bf3 	ldr	x19, [sp, #16]
   82e78:	a8c27bfd 	ldp	x29, x30, [sp], #32
   82e7c:	d65f03c0 	ret

0000000000082e80 <init_tmpfs>:
   82e80:	90000021 	adrp	x1, 86000 <bh_core_timer_handler+0x674>
   82e84:	90000022 	adrp	x2, 86000 <bh_core_timer_handler+0x674>
   82e88:	9104e042 	add	x2, x2, #0x138
   82e8c:	f9458c21 	ldr	x1, [x1, #2840]
   82e90:	a9000402 	stp	x2, x1, [x0]
   82e94:	d65f03c0 	ret
   82e98:	d503201f 	nop
   82e9c:	d503201f 	nop

0000000000082ea0 <bid2addr>:
   82ea0:	90000021 	adrp	x1, 86000 <bh_core_timer_handler+0x674>
   82ea4:	f9455421 	ldr	x1, [x1, #2728]
   82ea8:	f9400021 	ldr	x1, [x1]
   82eac:	f9400421 	ldr	x1, [x1, #8]
   82eb0:	8b002420 	add	x0, x1, x0, lsl #9
   82eb4:	d65f03c0 	ret
   82eb8:	d503201f 	nop
   82ebc:	d503201f 	nop

0000000000082ec0 <tmpfs_file_write>:
   82ec0:	a9bd7bfd 	stp	x29, x30, [sp, #-48]!
   82ec4:	910003fd 	mov	x29, sp
   82ec8:	a90153f3 	stp	x19, x20, [sp, #16]
   82ecc:	aa0003f4 	mov	x20, x0
   82ed0:	aa0203f3 	mov	x19, x2
   82ed4:	a9025bf5 	stp	x21, x22, [sp, #32]
   82ed8:	aa0103f6 	mov	x22, x1
   82edc:	90000020 	adrp	x0, 86000 <bh_core_timer_handler+0x674>
   82ee0:	f9400a81 	ldr	x1, [x20, #16]
   82ee4:	911b2000 	add	x0, x0, #0x6c8
   82ee8:	f9402821 	ldr	x1, [x1, #80]
   82eec:	f9400435 	ldr	x21, [x1, #8]
   82ef0:	aa1503e1 	mov	x1, x21
   82ef4:	97fff99f 	bl	81570 <uart_println>
   82ef8:	aa1503e0 	mov	x0, x21
   82efc:	97ffffe9 	bl	82ea0 <bid2addr>
   82f00:	aa0003f5 	mov	x21, x0
   82f04:	f9400e81 	ldr	x1, [x20, #24]
   82f08:	90000020 	adrp	x0, 86000 <bh_core_timer_handler+0x674>
   82f0c:	911bc000 	add	x0, x0, #0x6f0
   82f10:	8b0102b5 	add	x21, x21, x1
   82f14:	aa1503e1 	mov	x1, x21
   82f18:	97fff996 	bl	81570 <uart_println>
   82f1c:	f9400e83 	ldr	x3, [x20, #24]
   82f20:	d2804002 	mov	x2, #0x200                 	// #512
   82f24:	aa1603e1 	mov	x1, x22
   82f28:	aa1503e0 	mov	x0, x21
   82f2c:	8b130064 	add	x4, x3, x19
   82f30:	cb030042 	sub	x2, x2, x3
   82f34:	f108009f 	cmp	x4, #0x200
   82f38:	9a938053 	csel	x19, x2, x19, hi  // hi = pmore
   82f3c:	aa1303e2 	mov	x2, x19
   82f40:	97fff8fc 	bl	81330 <memcpy>
   82f44:	aa1303e1 	mov	x1, x19
   82f48:	90000020 	adrp	x0, 86000 <bh_core_timer_handler+0x674>
   82f4c:	911be000 	add	x0, x0, #0x6f8
   82f50:	97fff988 	bl	81570 <uart_println>
   82f54:	a9410a83 	ldp	x3, x2, [x20, #16]
   82f58:	90000020 	adrp	x0, 86000 <bh_core_timer_handler+0x674>
   82f5c:	911c4000 	add	x0, x0, #0x710
   82f60:	f9401061 	ldr	x1, [x3, #32]
   82f64:	8b020262 	add	x2, x19, x2
   82f68:	f9000e82 	str	x2, [x20, #24]
   82f6c:	eb02003f 	cmp	x1, x2
   82f70:	9a822021 	csel	x1, x1, x2, cs  // cs = hs, nlast
   82f74:	f9001061 	str	x1, [x3, #32]
   82f78:	97fff97e 	bl	81570 <uart_println>
   82f7c:	8b150261 	add	x1, x19, x21
   82f80:	90000020 	adrp	x0, 86000 <bh_core_timer_handler+0x674>
   82f84:	911cc000 	add	x0, x0, #0x730
   82f88:	97fff97a 	bl	81570 <uart_println>
   82f8c:	2a1303e0 	mov	w0, w19
   82f90:	a94153f3 	ldp	x19, x20, [sp, #16]
   82f94:	a9425bf5 	ldp	x21, x22, [sp, #32]
   82f98:	a8c37bfd 	ldp	x29, x30, [sp], #48
   82f9c:	d65f03c0 	ret

0000000000082fa0 <tmpfs_file_read>:
   82fa0:	a9bc7bfd 	stp	x29, x30, [sp, #-64]!
   82fa4:	910003fd 	mov	x29, sp
   82fa8:	a9025bf5 	stp	x21, x22, [sp, #32]
   82fac:	aa0003f6 	mov	x22, x0
   82fb0:	aa0103f5 	mov	x21, x1
   82fb4:	90000020 	adrp	x0, 86000 <bh_core_timer_handler+0x674>
   82fb8:	911d2000 	add	x0, x0, #0x748
   82fbc:	f9400ac1 	ldr	x1, [x22, #16]
   82fc0:	a90153f3 	stp	x19, x20, [sp, #16]
   82fc4:	aa0203f4 	mov	x20, x2
   82fc8:	f9402821 	ldr	x1, [x1, #80]
   82fcc:	f9001bf7 	str	x23, [sp, #48]
   82fd0:	f9400437 	ldr	x23, [x1, #8]
   82fd4:	aa1703e1 	mov	x1, x23
   82fd8:	97fff966 	bl	81570 <uart_println>
   82fdc:	aa1703e0 	mov	x0, x23
   82fe0:	97ffffb0 	bl	82ea0 <bid2addr>
   82fe4:	f9400ec2 	ldr	x2, [x22, #24]
   82fe8:	8b020013 	add	x19, x0, x2
   82fec:	8b140042 	add	x2, x2, x20
   82ff0:	8b140274 	add	x20, x19, x20
   82ff4:	f108005f 	cmp	x2, #0x200
   82ff8:	540003a8 	b.hi	8306c <tmpfs_file_read+0xcc>  // b.pmore
   82ffc:	90000020 	adrp	x0, 86000 <bh_core_timer_handler+0x674>
   83000:	aa1403e2 	mov	x2, x20
   83004:	911da000 	add	x0, x0, #0x768
   83008:	aa1303e1 	mov	x1, x19
   8300c:	97fff959 	bl	81570 <uart_println>
   83010:	eb13029f 	cmp	x20, x19
   83014:	54000349 	b.ls	8307c <tmpfs_file_read+0xdc>  // b.plast
   83018:	aa3303e2 	mvn	x2, x19
   8301c:	aa1303e1 	mov	x1, x19
   83020:	8b0202a2 	add	x2, x21, x2
   83024:	52800000 	mov	w0, #0x0                   	// #0
   83028:	14000005 	b	8303c <tmpfs_file_read+0x9c>
   8302c:	38216843 	strb	w3, [x2, x1]
   83030:	11000400 	add	w0, w0, #0x1
   83034:	eb01029f 	cmp	x20, x1
   83038:	54000080 	b.eq	83048 <tmpfs_file_read+0xa8>  // b.none
   8303c:	39400023 	ldrb	w3, [x1]
   83040:	91000421 	add	x1, x1, #0x1
   83044:	35ffff43 	cbnz	w3, 8302c <tmpfs_file_read+0x8c>
   83048:	93407c02 	sxtw	x2, w0
   8304c:	f9400ec1 	ldr	x1, [x22, #24]
   83050:	a94153f3 	ldp	x19, x20, [sp, #16]
   83054:	8b020021 	add	x1, x1, x2
   83058:	f9401bf7 	ldr	x23, [sp, #48]
   8305c:	f9000ec1 	str	x1, [x22, #24]
   83060:	a9425bf5 	ldp	x21, x22, [sp, #32]
   83064:	a8c47bfd 	ldp	x29, x30, [sp], #64
   83068:	d65f03c0 	ret
   8306c:	aa1703e0 	mov	x0, x23
   83070:	97ffff8c 	bl	82ea0 <bid2addr>
   83074:	91080014 	add	x20, x0, #0x200
   83078:	17ffffe1 	b	82ffc <tmpfs_file_read+0x5c>
   8307c:	d2800002 	mov	x2, #0x0                   	// #0
   83080:	52800000 	mov	w0, #0x0                   	// #0
   83084:	17fffff2 	b	8304c <tmpfs_file_read+0xac>
   83088:	d503201f 	nop
   8308c:	d503201f 	nop

0000000000083090 <unique_file_id>:
   83090:	90000021 	adrp	x1, 87000 <buf.0+0x200>
   83094:	b9461020 	ldr	w0, [x1, #1552]
   83098:	11000402 	add	w2, w0, #0x1
   8309c:	b9061022 	str	w2, [x1, #1552]
   830a0:	d65f03c0 	ret

00000000000830a4 <tmpfs_create_file>:
   830a4:	a9bd7bfd 	stp	x29, x30, [sp, #-48]!
   830a8:	910003fd 	mov	x29, sp
   830ac:	a90153f3 	stp	x19, x20, [sp, #16]
   830b0:	aa0103f4 	mov	x20, x1
   830b4:	f90013f5 	str	x21, [sp, #32]
   830b8:	aa0003f5 	mov	x21, x0
   830bc:	d2800600 	mov	x0, #0x30                  	// #48
   830c0:	97fffe5c 	bl	82a30 <kalloc>
   830c4:	f9000415 	str	x21, [x0, #8]
   830c8:	aa0003f3 	mov	x19, x0
   830cc:	f9000c1f 	str	xzr, [x0, #24]
   830d0:	97fffff0 	bl	83090 <unique_file_id>
   830d4:	2a0003e2 	mov	w2, w0
   830d8:	b9401a81 	ldr	w1, [x20, #24]
   830dc:	d2800200 	mov	x0, #0x10                  	// #16
   830e0:	b9000262 	str	w2, [x19]
   830e4:	11000421 	add	w1, w1, #0x1
   830e8:	f9000a74 	str	x20, [x19, #16]
   830ec:	b9001a81 	str	w1, [x20, #24]
   830f0:	97fffe50 	bl	82a30 <kalloc>
   830f4:	aa0003e1 	mov	x1, x0
   830f8:	f0000003 	adrp	x3, 86000 <bh_core_timer_handler+0x674>
   830fc:	f0000002 	adrp	x2, 86000 <bh_core_timer_handler+0x674>
   83100:	f94013f5 	ldr	x21, [sp, #32]
   83104:	f9001261 	str	x1, [x19, #32]
   83108:	f945b063 	ldr	x3, [x3, #2912]
   8310c:	aa1303e0 	mov	x0, x19
   83110:	f945c442 	ldr	x2, [x2, #2952]
   83114:	a94153f3 	ldp	x19, x20, [sp, #16]
   83118:	a9000823 	stp	x3, x2, [x1]
   8311c:	a8c37bfd 	ldp	x29, x30, [sp], #48
   83120:	d65f03c0 	ret

0000000000083124 <create_tmpfs>:
   83124:	a9bf7bfd 	stp	x29, x30, [sp, #-16]!
   83128:	d2800200 	mov	x0, #0x10                  	// #16
   8312c:	910003fd 	mov	x29, sp
   83130:	97fffe40 	bl	82a30 <kalloc>
   83134:	f0000002 	adrp	x2, 86000 <bh_core_timer_handler+0x674>
   83138:	f0000003 	adrp	x3, 86000 <bh_core_timer_handler+0x674>
   8313c:	9104e063 	add	x3, x3, #0x138
   83140:	f9457442 	ldr	x2, [x2, #2792]
   83144:	a9000803 	stp	x3, x2, [x0]
   83148:	a8c17bfd 	ldp	x29, x30, [sp], #16
   8314c:	d65f03c0 	ret

0000000000083150 <strlen>:
   83150:	39400001 	ldrb	w1, [x0]
   83154:	340000e1 	cbz	w1, 83170 <strlen+0x20>
   83158:	aa0003e1 	mov	x1, x0
   8315c:	d503201f 	nop
   83160:	38401c22 	ldrb	w2, [x1, #1]!
   83164:	35ffffe2 	cbnz	w2, 83160 <strlen+0x10>
   83168:	cb000020 	sub	x0, x1, x0
   8316c:	d65f03c0 	ret
   83170:	d2800000 	mov	x0, #0x0                   	// #0
   83174:	d65f03c0 	ret
   83178:	d503201f 	nop
   8317c:	d503201f 	nop

0000000000083180 <my_strtok>:
   83180:	a9bc7bfd 	stp	x29, x30, [sp, #-64]!
   83184:	f100001f 	cmp	x0, #0x0
   83188:	fa401824 	ccmp	x1, #0x0, #0x4, ne  // ne = any
   8318c:	910003fd 	mov	x29, sp
   83190:	a9025bf5 	stp	x21, x22, [sp, #32]
   83194:	540006a0 	b.eq	83268 <my_strtok+0xe8>  // b.none
   83198:	f0000016 	adrp	x22, 86000 <bh_core_timer_handler+0x674>
   8319c:	f9001bf7 	str	x23, [sp, #48]
   831a0:	a90153f3 	stp	x19, x20, [sp, #16]
   831a4:	aa0003f3 	mov	x19, x0
   831a8:	d2800015 	mov	x21, #0x0                   	// #0
   831ac:	f9456ad7 	ldr	x23, [x22, #2768]
   831b0:	b98002e0 	ldrsw	x0, [x23]
   831b4:	38606a60 	ldrb	w0, [x19, x0]
   831b8:	340004c0 	cbz	w0, 83250 <my_strtok+0xd0>
   831bc:	aa0103f4 	mov	x20, x1
   831c0:	d2800c80 	mov	x0, #0x64                  	// #100
   831c4:	97fffe1b 	bl	82a30 <kalloc>
   831c8:	aa0003f5 	mov	x21, x0
   831cc:	52800001 	mov	w1, #0x0                   	// #0
   831d0:	d2800c82 	mov	x2, #0x64                  	// #100
   831d4:	97fff84c 	bl	81304 <memset>
   831d8:	b94002e0 	ldr	w0, [x23]
   831dc:	93407c04 	sxtw	x4, w0
   831e0:	3860ca61 	ldrb	w1, [x19, w0, sxtw]
   831e4:	cb0402a6 	sub	x6, x21, x4
   831e8:	34000161 	cbz	w1, 83214 <my_strtok+0x94>
   831ec:	aa1403e5 	mov	x5, x20
   831f0:	384014a2 	ldrb	w2, [x5], #1
   831f4:	350000a2 	cbnz	w2, 83208 <my_strtok+0x88>
   831f8:	14000011 	b	8323c <my_strtok+0xbc>
   831fc:	382468c3 	strb	w3, [x6, x4]
   83200:	384014a2 	ldrb	w2, [x5], #1
   83204:	340001c2 	cbz	w2, 8323c <my_strtok+0xbc>
   83208:	38646a63 	ldrb	w3, [x19, x4]
   8320c:	6b02007f 	cmp	w3, w2
   83210:	54ffff61 	b.ne	831fc <my_strtok+0x7c>  // b.any
   83214:	f9456ad6 	ldr	x22, [x22, #2768]
   83218:	38246abf 	strb	wzr, [x21, x4]
   8321c:	11000400 	add	w0, w0, #0x1
   83220:	a94153f3 	ldp	x19, x20, [sp, #16]
   83224:	f9401bf7 	ldr	x23, [sp, #48]
   83228:	b90002c0 	str	w0, [x22]
   8322c:	aa1503e0 	mov	x0, x21
   83230:	a9425bf5 	ldp	x21, x22, [sp, #32]
   83234:	a8c47bfd 	ldp	x29, x30, [sp], #64
   83238:	d65f03c0 	ret
   8323c:	91000484 	add	x4, x4, #0x1
   83240:	11000400 	add	w0, w0, #0x1
   83244:	38646a61 	ldrb	w1, [x19, x4]
   83248:	35fffd21 	cbnz	w1, 831ec <my_strtok+0x6c>
   8324c:	17fffff2 	b	83214 <my_strtok+0x94>
   83250:	aa1503e0 	mov	x0, x21
   83254:	a94153f3 	ldp	x19, x20, [sp, #16]
   83258:	a9425bf5 	ldp	x21, x22, [sp, #32]
   8325c:	f9401bf7 	ldr	x23, [sp, #48]
   83260:	a8c47bfd 	ldp	x29, x30, [sp], #64
   83264:	d65f03c0 	ret
   83268:	d2800015 	mov	x21, #0x0                   	// #0
   8326c:	aa1503e0 	mov	x0, x21
   83270:	a9425bf5 	ldp	x21, x22, [sp, #32]
   83274:	a8c47bfd 	ldp	x29, x30, [sp], #64
   83278:	d65f03c0 	ret
   8327c:	d503201f 	nop

0000000000083280 <path_name_solver>:
   83280:	a9bb7bfd 	stp	x29, x30, [sp, #-80]!
   83284:	910003fd 	mov	x29, sp
   83288:	a90153f3 	stp	x19, x20, [sp, #16]
   8328c:	a9025bf5 	stp	x21, x22, [sp, #32]
   83290:	aa0003f5 	mov	x21, x0
   83294:	d2800200 	mov	x0, #0x10                  	// #16
   83298:	a90363f7 	stp	x23, x24, [sp, #48]
   8329c:	97fffde5 	bl	82a30 <kalloc>
   832a0:	aa0003f7 	mov	x23, x0
   832a4:	f0000001 	adrp	x1, 86000 <bh_core_timer_handler+0x674>
   832a8:	911e0020 	add	x0, x1, #0x780
   832ac:	910123f6 	add	x22, sp, #0x48
   832b0:	aa1703f3 	mov	x19, x23
   832b4:	f90002ff 	str	xzr, [x23]
   832b8:	97fff8ae 	bl	81570 <uart_println>
   832bc:	394002a0 	ldrb	w0, [x21]
   832c0:	528005e1 	mov	w1, #0x2f                  	// #47
   832c4:	790093e1 	strh	w1, [sp, #72]
   832c8:	7100bc1f 	cmp	w0, #0x2f
   832cc:	54000480 	b.eq	8335c <path_name_solver+0xdc>  // b.none
   832d0:	aa1603e1 	mov	x1, x22
   832d4:	aa1503e0 	mov	x0, x21
   832d8:	97ffffaa 	bl	83180 <my_strtok>
   832dc:	aa0003f4 	mov	x20, x0
   832e0:	b4000260 	cbz	x0, 8332c <path_name_solver+0xac>
   832e4:	f0000018 	adrp	x24, 86000 <bh_core_timer_handler+0x674>
   832e8:	911f0318 	add	x24, x24, #0x7c0
   832ec:	d503201f 	nop
   832f0:	aa1403e1 	mov	x1, x20
   832f4:	aa1803e0 	mov	x0, x24
   832f8:	97fff89e 	bl	81570 <uart_println>
   832fc:	f9000274 	str	x20, [x19]
   83300:	aa1303f4 	mov	x20, x19
   83304:	d2800200 	mov	x0, #0x10                  	// #16
   83308:	97fffdca 	bl	82a30 <kalloc>
   8330c:	aa0003f3 	mov	x19, x0
   83310:	aa1603e1 	mov	x1, x22
   83314:	aa1503e0 	mov	x0, x21
   83318:	f9000693 	str	x19, [x20, #8]
   8331c:	f900027f 	str	xzr, [x19]
   83320:	97ffff98 	bl	83180 <my_strtok>
   83324:	aa0003f4 	mov	x20, x0
   83328:	b5fffe40 	cbnz	x0, 832f0 <path_name_solver+0x70>
   8332c:	f0000001 	adrp	x1, 86000 <bh_core_timer_handler+0x674>
   83330:	f0000000 	adrp	x0, 86000 <bh_core_timer_handler+0x674>
   83334:	911f8000 	add	x0, x0, #0x7e0
   83338:	f9456821 	ldr	x1, [x1, #2768]
   8333c:	b900003f 	str	wzr, [x1]
   83340:	97fff88c 	bl	81570 <uart_println>
   83344:	aa1703e0 	mov	x0, x23
   83348:	a94153f3 	ldp	x19, x20, [sp, #16]
   8334c:	a9425bf5 	ldp	x21, x22, [sp, #32]
   83350:	a94363f7 	ldp	x23, x24, [sp, #48]
   83354:	a8c57bfd 	ldp	x29, x30, [sp], #80
   83358:	d65f03c0 	ret
   8335c:	f0000000 	adrp	x0, 86000 <bh_core_timer_handler+0x674>
   83360:	911ea000 	add	x0, x0, #0x7a8
   83364:	97fff883 	bl	81570 <uart_println>
   83368:	d0000000 	adrp	x0, 85000 <sync_invalid_el1t+0x7c>
   8336c:	913a6000 	add	x0, x0, #0xe98
   83370:	f90002e0 	str	x0, [x23]
   83374:	d2800200 	mov	x0, #0x10                  	// #16
   83378:	97fffdae 	bl	82a30 <kalloc>
   8337c:	aa0003f3 	mov	x19, x0
   83380:	f90006f3 	str	x19, [x23, #8]
   83384:	aa1603e1 	mov	x1, x22
   83388:	aa1503e0 	mov	x0, x21
   8338c:	f900027f 	str	xzr, [x19]
   83390:	97ffff7c 	bl	83180 <my_strtok>
   83394:	17ffffcf 	b	832d0 <path_name_solver+0x50>
   83398:	d503201f 	nop
   8339c:	d503201f 	nop

00000000000833a0 <show_dir>:
   833a0:	a9bd7bfd 	stp	x29, x30, [sp, #-48]!
   833a4:	910003fd 	mov	x29, sp
   833a8:	a90153f3 	stp	x19, x20, [sp, #16]
   833ac:	f9402013 	ldr	x19, [x0, #64]
   833b0:	b40001f3 	cbz	x19, 833ec <show_dir+0x4c>
   833b4:	f0000014 	adrp	x20, 86000 <bh_core_timer_handler+0x674>
   833b8:	91202294 	add	x20, x20, #0x808
   833bc:	f90013f5 	str	x21, [sp, #32]
   833c0:	f0000015 	adrp	x21, 86000 <bh_core_timer_handler+0x674>
   833c4:	912042b5 	add	x21, x21, #0x810
   833c8:	b9402a62 	ldr	w2, [x19, #40]
   833cc:	aa1403e0 	mov	x0, x20
   833d0:	f9402661 	ldr	x1, [x19, #72]
   833d4:	35000042 	cbnz	w2, 833dc <show_dir+0x3c>
   833d8:	aa1503e0 	mov	x0, x21
   833dc:	97fff7e5 	bl	81370 <uart_print>
   833e0:	f9401e73 	ldr	x19, [x19, #56]
   833e4:	b5ffff33 	cbnz	x19, 833c8 <show_dir+0x28>
   833e8:	f94013f5 	ldr	x21, [sp, #32]
   833ec:	d0000000 	adrp	x0, 85000 <sync_invalid_el1t+0x7c>
   833f0:	a94153f3 	ldp	x19, x20, [sp, #16]
   833f4:	913ea000 	add	x0, x0, #0xfa8
   833f8:	a8c37bfd 	ldp	x29, x30, [sp], #48
   833fc:	17fff85d 	b	81570 <uart_println>

0000000000083400 <__vfs_open>:
   83400:	a9bd7bfd 	stp	x29, x30, [sp, #-48]!
   83404:	f0000003 	adrp	x3, 86000 <bh_core_timer_handler+0x674>
   83408:	aa0003e2 	mov	x2, x0
   8340c:	910003fd 	mov	x29, sp
   83410:	f9454c63 	ldr	x3, [x3, #2712]
   83414:	f9400060 	ldr	x0, [x3]
   83418:	f9400403 	ldr	x3, [x0, #8]
   8341c:	f9400063 	ldr	x3, [x3]
   83420:	f9000bf3 	str	x19, [sp, #16]
   83424:	2a0103f3 	mov	w19, w1
   83428:	9100a3e1 	add	x1, sp, #0x28
   8342c:	d63f0060 	blr	x3
   83430:	340000a0 	cbz	w0, 83444 <__vfs_open+0x44>
   83434:	d2800000 	mov	x0, #0x0                   	// #0
   83438:	f9400bf3 	ldr	x19, [sp, #16]
   8343c:	a8c37bfd 	ldp	x29, x30, [sp], #48
   83440:	d65f03c0 	ret
   83444:	d2800600 	mov	x0, #0x30                  	// #48
   83448:	97fffd7a 	bl	82a30 <kalloc>
   8344c:	f94017e1 	ldr	x1, [sp, #40]
   83450:	f9400822 	ldr	x2, [x1, #16]
   83454:	a9017c01 	stp	x1, xzr, [x0, #16]
   83458:	f9001002 	str	x2, [x0, #32]
   8345c:	b9002813 	str	w19, [x0, #40]
   83460:	f9400bf3 	ldr	x19, [sp, #16]
   83464:	a8c37bfd 	ldp	x29, x30, [sp], #48
   83468:	d65f03c0 	ret
   8346c:	d503201f 	nop

0000000000083470 <vfs_close>:
   83470:	a9be7bfd 	stp	x29, x30, [sp, #-32]!
   83474:	f0000001 	adrp	x1, 86000 <bh_core_timer_handler+0x674>
   83478:	910003fd 	mov	x29, sp
   8347c:	f9000bf3 	str	x19, [sp, #16]
   83480:	aa0003f3 	mov	x19, x0
   83484:	91206020 	add	x0, x1, #0x818
   83488:	a9408a61 	ldp	x1, x2, [x19, #8]
   8348c:	b9401842 	ldr	w2, [x2, #24]
   83490:	51000443 	sub	w3, w2, #0x1
   83494:	97fff837 	bl	81570 <uart_println>
   83498:	f9400a61 	ldr	x1, [x19, #16]
   8349c:	b9401820 	ldr	w0, [x1, #24]
   834a0:	51000400 	sub	w0, w0, #0x1
   834a4:	b9001820 	str	w0, [x1, #24]
   834a8:	340000a0 	cbz	w0, 834bc <vfs_close+0x4c>
   834ac:	52800000 	mov	w0, #0x0                   	// #0
   834b0:	f9400bf3 	ldr	x19, [sp, #16]
   834b4:	a8c27bfd 	ldp	x29, x30, [sp], #32
   834b8:	d65f03c0 	ret
   834bc:	aa1303e0 	mov	x0, x19
   834c0:	97fffd6d 	bl	82a74 <kfree>
   834c4:	52800000 	mov	w0, #0x0                   	// #0
   834c8:	f9400bf3 	ldr	x19, [sp, #16]
   834cc:	a8c27bfd 	ldp	x29, x30, [sp], #32
   834d0:	d65f03c0 	ret

00000000000834d4 <vfs_write>:
   834d4:	f9401003 	ldr	x3, [x0, #32]
   834d8:	f9400063 	ldr	x3, [x3]
   834dc:	aa0303f0 	mov	x16, x3
   834e0:	d61f0200 	br	x16

00000000000834e4 <vfs_read>:
   834e4:	f9401003 	ldr	x3, [x0, #32]
   834e8:	f9400463 	ldr	x3, [x3, #8]
   834ec:	aa0303f0 	mov	x16, x3
   834f0:	d61f0200 	br	x16

00000000000834f4 <__vfs_mkdir>:
   834f4:	a9be7bfd 	stp	x29, x30, [sp, #-32]!
   834f8:	d0000001 	adrp	x1, 85000 <sync_invalid_el1t+0x7c>
   834fc:	913a6021 	add	x1, x1, #0xe98
   83500:	910003fd 	mov	x29, sp
   83504:	f9000bf3 	str	x19, [sp, #16]
   83508:	aa0003f3 	mov	x19, x0
   8350c:	97fff76d 	bl	812c0 <sstrcmp>
   83510:	35000080 	cbnz	w0, 83520 <__vfs_mkdir+0x2c>
   83514:	f9400bf3 	ldr	x19, [sp, #16]
   83518:	a8c27bfd 	ldp	x29, x30, [sp], #32
   8351c:	d65f03c0 	ret
   83520:	aa1303e0 	mov	x0, x19
   83524:	52800021 	mov	w1, #0x1                   	// #1
   83528:	97ffffb6 	bl	83400 <__vfs_open>
   8352c:	b40001a0 	cbz	x0, 83560 <__vfs_mkdir+0x6c>
   83530:	f0000002 	adrp	x2, 86000 <bh_core_timer_handler+0x674>
   83534:	52800024 	mov	w4, #0x1                   	// #1
   83538:	f9400803 	ldr	x3, [x0, #16]
   8353c:	f9454c41 	ldr	x1, [x2, #2712]
   83540:	b9002864 	str	w4, [x3, #40]
   83544:	f9400021 	ldr	x1, [x1]
   83548:	f9001861 	str	x1, [x3, #48]
   8354c:	97ffffc9 	bl	83470 <vfs_close>
   83550:	52800000 	mov	w0, #0x0                   	// #0
   83554:	f9400bf3 	ldr	x19, [sp, #16]
   83558:	a8c27bfd 	ldp	x29, x30, [sp], #32
   8355c:	d65f03c0 	ret
   83560:	12800000 	mov	w0, #0xffffffff            	// #-1
   83564:	17ffffec 	b	83514 <__vfs_mkdir+0x20>
   83568:	d503201f 	nop
   8356c:	d503201f 	nop

0000000000083570 <__vfs_chdir>:
   83570:	a9bd7bfd 	stp	x29, x30, [sp, #-48]!
   83574:	d0000001 	adrp	x1, 85000 <sync_invalid_el1t+0x7c>
   83578:	913a6021 	add	x1, x1, #0xe98
   8357c:	910003fd 	mov	x29, sp
   83580:	a90153f3 	stp	x19, x20, [sp, #16]
   83584:	aa0003f4 	mov	x20, x0
   83588:	97fff74e 	bl	812c0 <sstrcmp>
   8358c:	35000160 	cbnz	w0, 835b8 <__vfs_chdir+0x48>
   83590:	f0000002 	adrp	x2, 86000 <bh_core_timer_handler+0x674>
   83594:	f0000001 	adrp	x1, 86000 <bh_core_timer_handler+0x674>
   83598:	f9455c42 	ldr	x2, [x2, #2744]
   8359c:	f9454c21 	ldr	x1, [x1, #2712]
   835a0:	f9400042 	ldr	x2, [x2]
   835a4:	f9400042 	ldr	x2, [x2]
   835a8:	f9000022 	str	x2, [x1]
   835ac:	a94153f3 	ldp	x19, x20, [sp, #16]
   835b0:	a8c37bfd 	ldp	x29, x30, [sp], #48
   835b4:	d65f03c0 	ret
   835b8:	f0000001 	adrp	x1, 86000 <bh_core_timer_handler+0x674>
   835bc:	aa1403e0 	mov	x0, x20
   835c0:	9103a021 	add	x1, x1, #0xe8
   835c4:	97fff73f 	bl	812c0 <sstrcmp>
   835c8:	35000120 	cbnz	w0, 835ec <__vfs_chdir+0x7c>
   835cc:	f0000001 	adrp	x1, 86000 <bh_core_timer_handler+0x674>
   835d0:	a94153f3 	ldp	x19, x20, [sp, #16]
   835d4:	f9454c21 	ldr	x1, [x1, #2712]
   835d8:	f9400022 	ldr	x2, [x1]
   835dc:	f9401842 	ldr	x2, [x2, #48]
   835e0:	f9000022 	str	x2, [x1]
   835e4:	a8c37bfd 	ldp	x29, x30, [sp], #48
   835e8:	d65f03c0 	ret
   835ec:	f0000001 	adrp	x1, 86000 <bh_core_timer_handler+0x674>
   835f0:	aa1403e0 	mov	x0, x20
   835f4:	91210021 	add	x1, x1, #0x840
   835f8:	97fff732 	bl	812c0 <sstrcmp>
   835fc:	34fffd80 	cbz	w0, 835ac <__vfs_chdir+0x3c>
   83600:	f90013f5 	str	x21, [sp, #32]
   83604:	f0000015 	adrp	x21, 86000 <bh_core_timer_handler+0x674>
   83608:	f9454ea0 	ldr	x0, [x21, #2712]
   8360c:	f9400000 	ldr	x0, [x0]
   83610:	f9402013 	ldr	x19, [x0, #64]
   83614:	b4000133 	cbz	x19, 83638 <__vfs_chdir+0xc8>
   83618:	f9402661 	ldr	x1, [x19, #72]
   8361c:	aa1403e0 	mov	x0, x20
   83620:	97fff728 	bl	812c0 <sstrcmp>
   83624:	35000060 	cbnz	w0, 83630 <__vfs_chdir+0xc0>
   83628:	b9402a61 	ldr	w1, [x19, #40]
   8362c:	35000101 	cbnz	w1, 8364c <__vfs_chdir+0xdc>
   83630:	f9401e73 	ldr	x19, [x19, #56]
   83634:	b5ffff33 	cbnz	x19, 83618 <__vfs_chdir+0xa8>
   83638:	12800000 	mov	w0, #0xffffffff            	// #-1
   8363c:	a94153f3 	ldp	x19, x20, [sp, #16]
   83640:	f94013f5 	ldr	x21, [sp, #32]
   83644:	a8c37bfd 	ldp	x29, x30, [sp], #48
   83648:	d65f03c0 	ret
   8364c:	f9454eb5 	ldr	x21, [x21, #2712]
   83650:	f90002b3 	str	x19, [x21]
   83654:	f94013f5 	ldr	x21, [sp, #32]
   83658:	17ffffd5 	b	835ac <__vfs_chdir+0x3c>
   8365c:	d503201f 	nop

0000000000083660 <vfs_mkdir>:
   83660:	a9bd7bfd 	stp	x29, x30, [sp, #-48]!
   83664:	910003fd 	mov	x29, sp
   83668:	a90153f3 	stp	x19, x20, [sp, #16]
   8366c:	f0000014 	adrp	x20, 86000 <bh_core_timer_handler+0x674>
   83670:	f90013f5 	str	x21, [sp, #32]
   83674:	97ffff03 	bl	83280 <path_name_solver>
   83678:	f9454e81 	ldr	x1, [x20, #2712]
   8367c:	aa0003f3 	mov	x19, x0
   83680:	f9400035 	ldr	x21, [x1]
   83684:	b5000100 	cbnz	x0, 836a4 <vfs_mkdir+0x44>
   83688:	14000009 	b	836ac <vfs_mkdir+0x4c>
   8368c:	97ffff9a 	bl	834f4 <__vfs_mkdir>
   83690:	350001c0 	cbnz	w0, 836c8 <vfs_mkdir+0x68>
   83694:	f9400260 	ldr	x0, [x19]
   83698:	97ffffb6 	bl	83570 <__vfs_chdir>
   8369c:	f9400673 	ldr	x19, [x19, #8]
   836a0:	b4000073 	cbz	x19, 836ac <vfs_mkdir+0x4c>
   836a4:	f9400260 	ldr	x0, [x19]
   836a8:	b5ffff20 	cbnz	x0, 8368c <vfs_mkdir+0x2c>
   836ac:	f9454e94 	ldr	x20, [x20, #2712]
   836b0:	52800000 	mov	w0, #0x0                   	// #0
   836b4:	f9000295 	str	x21, [x20]
   836b8:	a94153f3 	ldp	x19, x20, [sp, #16]
   836bc:	f94013f5 	ldr	x21, [sp, #32]
   836c0:	a8c37bfd 	ldp	x29, x30, [sp], #48
   836c4:	d65f03c0 	ret
   836c8:	f9400261 	ldr	x1, [x19]
   836cc:	f0000000 	adrp	x0, 86000 <bh_core_timer_handler+0x674>
   836d0:	91212000 	add	x0, x0, #0x848
   836d4:	97fff7a7 	bl	81570 <uart_println>
   836d8:	f9454e94 	ldr	x20, [x20, #2712]
   836dc:	12800000 	mov	w0, #0xffffffff            	// #-1
   836e0:	f9000295 	str	x21, [x20]
   836e4:	a94153f3 	ldp	x19, x20, [sp, #16]
   836e8:	f94013f5 	ldr	x21, [sp, #32]
   836ec:	a8c37bfd 	ldp	x29, x30, [sp], #48
   836f0:	d65f03c0 	ret

00000000000836f4 <vfs_chdir>:
   836f4:	a9bd7bfd 	stp	x29, x30, [sp, #-48]!
   836f8:	910003fd 	mov	x29, sp
   836fc:	a90153f3 	stp	x19, x20, [sp, #16]
   83700:	f0000014 	adrp	x20, 86000 <bh_core_timer_handler+0x674>
   83704:	f90013f5 	str	x21, [sp, #32]
   83708:	97fffede 	bl	83280 <path_name_solver>
   8370c:	f9454e81 	ldr	x1, [x20, #2712]
   83710:	aa0003f3 	mov	x19, x0
   83714:	f9400035 	ldr	x21, [x1]
   83718:	b50000c0 	cbnz	x0, 83730 <vfs_chdir+0x3c>
   8371c:	14000007 	b	83738 <vfs_chdir+0x44>
   83720:	97ffff94 	bl	83570 <__vfs_chdir>
   83724:	35000140 	cbnz	w0, 8374c <vfs_chdir+0x58>
   83728:	f9400673 	ldr	x19, [x19, #8]
   8372c:	b4000073 	cbz	x19, 83738 <vfs_chdir+0x44>
   83730:	f9400260 	ldr	x0, [x19]
   83734:	b5ffff60 	cbnz	x0, 83720 <vfs_chdir+0x2c>
   83738:	52800000 	mov	w0, #0x0                   	// #0
   8373c:	a94153f3 	ldp	x19, x20, [sp, #16]
   83740:	f94013f5 	ldr	x21, [sp, #32]
   83744:	a8c37bfd 	ldp	x29, x30, [sp], #48
   83748:	d65f03c0 	ret
   8374c:	f9400261 	ldr	x1, [x19]
   83750:	f0000000 	adrp	x0, 86000 <bh_core_timer_handler+0x674>
   83754:	91218000 	add	x0, x0, #0x860
   83758:	97fff786 	bl	81570 <uart_println>
   8375c:	f9454e94 	ldr	x20, [x20, #2712]
   83760:	12800000 	mov	w0, #0xffffffff            	// #-1
   83764:	f9000295 	str	x21, [x20]
   83768:	a94153f3 	ldp	x19, x20, [sp, #16]
   8376c:	f94013f5 	ldr	x21, [sp, #32]
   83770:	a8c37bfd 	ldp	x29, x30, [sp], #48
   83774:	d65f03c0 	ret
   83778:	d503201f 	nop
   8377c:	d503201f 	nop

0000000000083780 <vfs_open>:
   83780:	17ffff20 	b	83400 <__vfs_open>

0000000000083784 <vfs_mount>:
   83784:	a9bc7bfd 	stp	x29, x30, [sp, #-64]!
   83788:	910003fd 	mov	x29, sp
   8378c:	a90153f3 	stp	x19, x20, [sp, #16]
   83790:	aa0003f4 	mov	x20, x0
   83794:	aa0103e0 	mov	x0, x1
   83798:	a9025bf5 	stp	x21, x22, [sp, #32]
   8379c:	aa0103f5 	mov	x21, x1
   837a0:	52800001 	mov	w1, #0x0                   	// #0
   837a4:	97fffff7 	bl	83780 <vfs_open>
   837a8:	b4000600 	cbz	x0, 83868 <vfs_mount+0xe4>
   837ac:	aa0003e2 	mov	x2, x0
   837b0:	d2800200 	mov	x0, #0x10                  	// #16
   837b4:	f9001bf7 	str	x23, [sp, #48]
   837b8:	f9400857 	ldr	x23, [x2, #16]
   837bc:	97fffc9d 	bl	82a30 <kalloc>
   837c0:	aa0003f3 	mov	x19, x0
   837c4:	d2800b00 	mov	x0, #0x58                  	// #88
   837c8:	97fffc9a 	bl	82a30 <kalloc>
   837cc:	aa0003f6 	mov	x22, x0
   837d0:	f0000001 	adrp	x1, 86000 <bh_core_timer_handler+0x674>
   837d4:	aa1403e0 	mov	x0, x20
   837d8:	9104e021 	add	x1, x1, #0x138
   837dc:	97fff6b9 	bl	812c0 <sstrcmp>
   837e0:	2a0003f4 	mov	w20, w0
   837e4:	350003c0 	cbnz	w0, 8385c <vfs_mount+0xd8>
   837e8:	aa1703e1 	mov	x1, x23
   837ec:	aa1603e0 	mov	x0, x22
   837f0:	d2800b02 	mov	x2, #0x58                  	// #88
   837f4:	97fff6cf 	bl	81330 <memcpy>
   837f8:	f0000002 	adrp	x2, 86000 <bh_core_timer_handler+0x674>
   837fc:	f0000000 	adrp	x0, 86000 <bh_core_timer_handler+0x674>
   83800:	f94026e1 	ldr	x1, [x23, #72]
   83804:	91224000 	add	x0, x0, #0x890
   83808:	f9455c42 	ldr	x2, [x2, #2744]
   8380c:	f9400042 	ldr	x2, [x2]
   83810:	f9400042 	ldr	x2, [x2]
   83814:	f9402042 	ldr	x2, [x2, #64]
   83818:	f90022e2 	str	x2, [x23, #64]
   8381c:	97fff755 	bl	81570 <uart_println>
   83820:	f0000000 	adrp	x0, 86000 <bh_core_timer_handler+0x674>
   83824:	f0000001 	adrp	x1, 86000 <bh_core_timer_handler+0x674>
   83828:	f9401bf7 	ldr	x23, [sp, #48]
   8382c:	f945b800 	ldr	x0, [x0, #2928]
   83830:	f9458021 	ldr	x1, [x1, #2816]
   83834:	b9400002 	ldr	w2, [x0]
   83838:	a9005a75 	stp	x21, x22, [x19]
   8383c:	11000443 	add	w3, w2, #0x1
   83840:	b9000003 	str	w3, [x0]
   83844:	f822d833 	str	x19, [x1, w2, sxtw #3]
   83848:	2a1403e0 	mov	w0, w20
   8384c:	a94153f3 	ldp	x19, x20, [sp, #16]
   83850:	a9425bf5 	ldp	x21, x22, [sp, #32]
   83854:	a8c47bfd 	ldp	x29, x30, [sp], #64
   83858:	d65f03c0 	ret
   8385c:	12800014 	mov	w20, #0xffffffff            	// #-1
   83860:	f9401bf7 	ldr	x23, [sp, #48]
   83864:	17fffff9 	b	83848 <vfs_mount+0xc4>
   83868:	f0000000 	adrp	x0, 86000 <bh_core_timer_handler+0x674>
   8386c:	12800014 	mov	w20, #0xffffffff            	// #-1
   83870:	9121e000 	add	x0, x0, #0x878
   83874:	97fff73f 	bl	81570 <uart_println>
   83878:	17fffff4 	b	83848 <vfs_mount+0xc4>
   8387c:	d503201f 	nop

0000000000083880 <vfs_umount>:
   83880:	a9bc7bfd 	stp	x29, x30, [sp, #-64]!
   83884:	52800001 	mov	w1, #0x0                   	// #0
   83888:	910003fd 	mov	x29, sp
   8388c:	a90153f3 	stp	x19, x20, [sp, #16]
   83890:	a90363f7 	stp	x23, x24, [sp, #48]
   83894:	aa0003f7 	mov	x23, x0
   83898:	97ffffba 	bl	83780 <vfs_open>
   8389c:	b40003c0 	cbz	x0, 83914 <vfs_umount+0x94>
   838a0:	a9025bf5 	stp	x21, x22, [sp, #32]
   838a4:	f0000015 	adrp	x21, 86000 <bh_core_timer_handler+0x674>
   838a8:	d2800013 	mov	x19, #0x0                   	// #0
   838ac:	f94582b5 	ldr	x21, [x21, #2816]
   838b0:	f9400818 	ldr	x24, [x0, #16]
   838b4:	14000003 	b	838c0 <vfs_umount+0x40>
   838b8:	f110027f 	cmp	x19, #0x400
   838bc:	540002a0 	b.eq	83910 <vfs_umount+0x90>  // b.none
   838c0:	f8737aa2 	ldr	x2, [x21, x19, lsl #3]
   838c4:	aa1703e1 	mov	x1, x23
   838c8:	93407e76 	sxtw	x22, w19
   838cc:	91000673 	add	x19, x19, #0x1
   838d0:	f9400040 	ldr	x0, [x2]
   838d4:	97fff67b 	bl	812c0 <sstrcmp>
   838d8:	2a0003f4 	mov	w20, w0
   838dc:	35fffee0 	cbnz	w0, 838b8 <vfs_umount+0x38>
   838e0:	f8767aa1 	ldr	x1, [x21, x22, lsl #3]
   838e4:	aa1803e0 	mov	x0, x24
   838e8:	d2800b02 	mov	x2, #0x58                  	// #88
   838ec:	f9400421 	ldr	x1, [x1, #8]
   838f0:	97fff690 	bl	81330 <memcpy>
   838f4:	f8367abf 	str	xzr, [x21, x22, lsl #3]
   838f8:	2a1403e0 	mov	w0, w20
   838fc:	a94153f3 	ldp	x19, x20, [sp, #16]
   83900:	a9425bf5 	ldp	x21, x22, [sp, #32]
   83904:	a94363f7 	ldp	x23, x24, [sp, #48]
   83908:	a8c47bfd 	ldp	x29, x30, [sp], #64
   8390c:	d65f03c0 	ret
   83910:	a9425bf5 	ldp	x21, x22, [sp, #32]
   83914:	12800014 	mov	w20, #0xffffffff            	// #-1
   83918:	f0000000 	adrp	x0, 86000 <bh_core_timer_handler+0x674>
   8391c:	9122a000 	add	x0, x0, #0x8a8
   83920:	97fff714 	bl	81570 <uart_println>
   83924:	2a1403e0 	mov	w0, w20
   83928:	a94153f3 	ldp	x19, x20, [sp, #16]
   8392c:	a94363f7 	ldp	x23, x24, [sp, #48]
   83930:	a8c47bfd 	ldp	x29, x30, [sp], #64
   83934:	d65f03c0 	ret
	...

0000000000083940 <lfb_init>:
   83940:	a9be7bfd 	stp	x29, x30, [sp, #-32]!
   83944:	52801182 	mov	w2, #0x8c                  	// #140
   83948:	52900065 	mov	w5, #0x8003                	// #32771
   8394c:	910003fd 	mov	x29, sp
   83950:	f9000bf3 	str	x19, [sp, #16]
   83954:	f0000013 	adrp	x19, 86000 <bh_core_timer_handler+0x674>
   83958:	72a00085 	movk	w5, #0x4, lsl #16
   8395c:	52800101 	mov	w1, #0x8                   	// #8
   83960:	f9455a73 	ldr	x19, [x19, #2736]
   83964:	52808004 	mov	w4, #0x400                 	// #1024
   83968:	52806003 	mov	w3, #0x300                 	// #768
   8396c:	52900080 	mov	w0, #0x8004                	// #32772
   83970:	72a00080 	movk	w0, #0x4, lsl #16
   83974:	5290012c 	mov	w12, #0x8009                	// #32777
   83978:	b9000262 	str	w2, [x19]
   8397c:	72a0008c 	movk	w12, #0x4, lsl #16
   83980:	b900067f 	str	wzr, [x19, #4]
   83984:	529000ab 	mov	w11, #0x8005                	// #32773
   83988:	b9000a65 	str	w5, [x19, #8]
   8398c:	72a0008b 	movk	w11, #0x4, lsl #16
   83990:	b9000e61 	str	w1, [x19, #12]
   83994:	52800082 	mov	w2, #0x4                   	// #4
   83998:	b9001261 	str	w1, [x19, #16]
   8399c:	5280040a 	mov	w10, #0x20                  	// #32
   839a0:	b9001664 	str	w4, [x19, #20]
   839a4:	529000c9 	mov	w9, #0x8006                	// #32774
   839a8:	b9001a63 	str	w3, [x19, #24]
   839ac:	72a00089 	movk	w9, #0x4, lsl #16
   839b0:	b9001e60 	str	w0, [x19, #28]
   839b4:	52800028 	mov	w8, #0x1                   	// #1
   839b8:	b9002261 	str	w1, [x19, #32]
   839bc:	52800027 	mov	w7, #0x1                   	// #1
   839c0:	b9002661 	str	w1, [x19, #36]
   839c4:	72a00087 	movk	w7, #0x4, lsl #16
   839c8:	b9002a64 	str	w4, [x19, #40]
   839cc:	52820006 	mov	w6, #0x1000                	// #4096
   839d0:	b9002e63 	str	w3, [x19, #44]
   839d4:	52800105 	mov	w5, #0x8                   	// #8
   839d8:	b900326c 	str	w12, [x19, #48]
   839dc:	72a00085 	movk	w5, #0x4, lsl #16
   839e0:	b9003661 	str	w1, [x19, #52]
   839e4:	2a0103e0 	mov	w0, w1
   839e8:	b9003a61 	str	w1, [x19, #56]
   839ec:	b9003e7f 	str	wzr, [x19, #60]
   839f0:	b900427f 	str	wzr, [x19, #64]
   839f4:	b900466b 	str	w11, [x19, #68]
   839f8:	b9004a62 	str	w2, [x19, #72]
   839fc:	b9004e62 	str	w2, [x19, #76]
   83a00:	b900526a 	str	w10, [x19, #80]
   83a04:	b9005669 	str	w9, [x19, #84]
   83a08:	b9005a62 	str	w2, [x19, #88]
   83a0c:	b9005e62 	str	w2, [x19, #92]
   83a10:	b9006268 	str	w8, [x19, #96]
   83a14:	b9006667 	str	w7, [x19, #100]
   83a18:	b9006a61 	str	w1, [x19, #104]
   83a1c:	b9006e61 	str	w1, [x19, #108]
   83a20:	b9007266 	str	w6, [x19, #112]
   83a24:	b900767f 	str	wzr, [x19, #116]
   83a28:	b9007a65 	str	w5, [x19, #120]
   83a2c:	b9007e62 	str	w2, [x19, #124]
   83a30:	b9008262 	str	w2, [x19, #128]
   83a34:	b900867f 	str	wzr, [x19, #132]
   83a38:	b9008a7f 	str	wzr, [x19, #136]
   83a3c:	9400005d 	bl	83bb0 <mbox_call>
   83a40:	34000080 	cbz	w0, 83a50 <lfb_init+0x110>
   83a44:	b9405260 	ldr	w0, [x19, #80]
   83a48:	7100801f 	cmp	w0, #0x20
   83a4c:	540000c0 	b.eq	83a64 <lfb_init+0x124>  // b.none
   83a50:	f9400bf3 	ldr	x19, [sp, #16]
   83a54:	f0000000 	adrp	x0, 86000 <bh_core_timer_handler+0x674>
   83a58:	a8c27bfd 	ldp	x29, x30, [sp], #32
   83a5c:	91238000 	add	x0, x0, #0x8e0
   83a60:	1400011c 	b	83ed0 <uart_puts>
   83a64:	b9407260 	ldr	w0, [x19, #112]
   83a68:	34ffff40 	cbz	w0, 83a50 <lfb_init+0x110>
   83a6c:	b9407260 	ldr	w0, [x19, #112]
   83a70:	f0000009 	adrp	x9, 86000 <bh_core_timer_handler+0x674>
   83a74:	f0000008 	adrp	x8, 86000 <bh_core_timer_handler+0x674>
   83a78:	f0000007 	adrp	x7, 86000 <bh_core_timer_handler+0x674>
   83a7c:	f0000006 	adrp	x6, 86000 <bh_core_timer_handler+0x674>
   83a80:	f0000004 	adrp	x4, 86000 <bh_core_timer_handler+0x674>
   83a84:	f945dd29 	ldr	x9, [x9, #3000]
   83a88:	12007400 	and	w0, w0, #0x3fffffff
   83a8c:	f945d908 	ldr	x8, [x8, #2992]
   83a90:	b9007260 	str	w0, [x19, #112]
   83a94:	f945c8e7 	ldr	x7, [x7, #2960]
   83a98:	f0000000 	adrp	x0, 86000 <bh_core_timer_handler+0x674>
   83a9c:	f9456cc6 	ldr	x6, [x6, #2776]
   83aa0:	91230000 	add	x0, x0, #0x8c0
   83aa4:	f9459c84 	ldr	x4, [x4, #2872]
   83aa8:	b940166d 	ldr	w13, [x19, #20]
   83aac:	b9401a6c 	ldr	w12, [x19, #24]
   83ab0:	b940866b 	ldr	w11, [x19, #132]
   83ab4:	b940626a 	ldr	w10, [x19, #96]
   83ab8:	b9407265 	ldr	w5, [x19, #112]
   83abc:	b9401661 	ldr	w1, [x19, #20]
   83ac0:	2a0503e5 	mov	w5, w5
   83ac4:	b9401a62 	ldr	w2, [x19, #24]
   83ac8:	b9405263 	ldr	w3, [x19, #80]
   83acc:	f9400bf3 	ldr	x19, [sp, #16]
   83ad0:	f9000085 	str	x5, [x4]
   83ad4:	b90000ca 	str	w10, [x6]
   83ad8:	b90000eb 	str	w11, [x7]
   83adc:	b900010c 	str	w12, [x8]
   83ae0:	b900012d 	str	w13, [x9]
   83ae4:	a8c27bfd 	ldp	x29, x30, [sp], #32
   83ae8:	17fff6a2 	b	81570 <uart_println>
   83aec:	d503201f 	nop

0000000000083af0 <lfb_showpicture>:
   83af0:	f0000009 	adrp	x9, 86000 <bh_core_timer_handler+0x674>
   83af4:	f0000000 	adrp	x0, 86000 <bh_core_timer_handler+0x674>
   83af8:	f945d929 	ldr	x9, [x9, #2992]
   83afc:	f9459c00 	ldr	x0, [x0, #2872]
   83b00:	b9400122 	ldr	w2, [x9]
   83b04:	f9400004 	ldr	x4, [x0]
   83b08:	34000522 	cbz	w2, 83bac <lfb_showpicture+0xbc>
   83b0c:	f0000005 	adrp	x5, 86000 <bh_core_timer_handler+0x674>
   83b10:	f000000a 	adrp	x10, 86000 <bh_core_timer_handler+0x674>
   83b14:	52800006 	mov	w6, #0x0                   	// #0
   83b18:	52800028 	mov	w8, #0x1                   	// #1
   83b1c:	f945dca5 	ldr	x5, [x5, #3000]
   83b20:	52800007 	mov	w7, #0x0                   	// #0
   83b24:	f945c94a 	ldr	x10, [x10, #2960]
   83b28:	f24010df 	tst	x6, #0x1f
   83b2c:	54000061 	b.ne	83b38 <lfb_showpicture+0x48>  // b.any
   83b30:	2a0703e8 	mov	w8, w7
   83b34:	520000e7 	eor	w7, w7, #0x1
   83b38:	4b0703e2 	neg	w2, w7
   83b3c:	b94000a0 	ldr	w0, [x5]
   83b40:	12001c42 	and	w2, w2, #0xff
   83b44:	33181c41 	bfi	w1, w2, #8, #8
   83b48:	33001c41 	bfxil	w1, w2, #0, #8
   83b4c:	34000220 	cbz	w0, 83b90 <lfb_showpicture+0xa0>
   83b50:	52000103 	eor	w3, w8, #0x1
   83b54:	52800002 	mov	w2, #0x0                   	// #0
   83b58:	f240105f 	tst	x2, #0x1f
   83b5c:	52000060 	eor	w0, w3, #0x1
   83b60:	1a830003 	csel	w3, w0, w3, eq  // eq = none
   83b64:	11000442 	add	w2, w2, #0x1
   83b68:	4b0303e0 	neg	w0, w3
   83b6c:	12001c00 	and	w0, w0, #0xff
   83b70:	33101c01 	bfi	w1, w0, #16, #8
   83b74:	33181c01 	bfi	w1, w0, #8, #8
   83b78:	33001c01 	bfxil	w1, w0, #0, #8
   83b7c:	b8004481 	str	w1, [x4], #4
   83b80:	b94000a0 	ldr	w0, [x5]
   83b84:	6b02001f 	cmp	w0, w2
   83b88:	54fffe88 	b.hi	83b58 <lfb_showpicture+0x68>  // b.pmore
   83b8c:	531e7400 	lsl	w0, w0, #2
   83b90:	b9400142 	ldr	w2, [x10]
   83b94:	110004c6 	add	w6, w6, #0x1
   83b98:	b9400123 	ldr	w3, [x9]
   83b9c:	4b000040 	sub	w0, w2, w0
   83ba0:	8b000084 	add	x4, x4, x0
   83ba4:	6b06007f 	cmp	w3, w6
   83ba8:	54fffc08 	b.hi	83b28 <lfb_showpicture+0x38>  // b.pmore
   83bac:	d65f03c0 	ret

0000000000083bb0 <mbox_call>:
   83bb0:	f0000004 	adrp	x4, 86000 <bh_core_timer_handler+0x674>
   83bb4:	12000c00 	and	w0, w0, #0xf
   83bb8:	d2971301 	mov	x1, #0xb898                	// #47256
   83bbc:	f9455882 	ldr	x2, [x4, #2736]
   83bc0:	f2a7e001 	movk	x1, #0x3f00, lsl #16
   83bc4:	2a020002 	orr	w2, w0, w2
   83bc8:	d503201f 	nop
   83bcc:	b9400020 	ldr	w0, [x1]
   83bd0:	37ffffc0 	tbnz	w0, #31, 83bc8 <mbox_call+0x18>
   83bd4:	d2971400 	mov	x0, #0xb8a0                	// #47264
   83bd8:	d2971301 	mov	x1, #0xb898                	// #47256
   83bdc:	f2a7e000 	movk	x0, #0x3f00, lsl #16
   83be0:	d2971003 	mov	x3, #0xb880                	// #47232
   83be4:	f2a7e001 	movk	x1, #0x3f00, lsl #16
   83be8:	f2a7e003 	movk	x3, #0x3f00, lsl #16
   83bec:	b9000002 	str	w2, [x0]
   83bf0:	d503201f 	nop
   83bf4:	b9400020 	ldr	w0, [x1]
   83bf8:	37f7ffc0 	tbnz	w0, #30, 83bf0 <mbox_call+0x40>
   83bfc:	b9400060 	ldr	w0, [x3]
   83c00:	6b02001f 	cmp	w0, w2
   83c04:	54ffff61 	b.ne	83bf0 <mbox_call+0x40>  // b.any
   83c08:	f9455884 	ldr	x4, [x4, #2736]
   83c0c:	52b00000 	mov	w0, #0x80000000            	// #-2147483648
   83c10:	b9400481 	ldr	w1, [x4, #4]
   83c14:	6b00003f 	cmp	w1, w0
   83c18:	1a9f17e0 	cset	w0, eq  // eq = none
   83c1c:	d65f03c0 	ret

0000000000083c20 <mbox_write>:
   83c20:	f0000002 	adrp	x2, 86000 <bh_core_timer_handler+0x674>
   83c24:	12000c00 	and	w0, w0, #0xf
   83c28:	d2971301 	mov	x1, #0xb898                	// #47256
   83c2c:	f9455842 	ldr	x2, [x2, #2736]
   83c30:	f2a7e001 	movk	x1, #0x3f00, lsl #16
   83c34:	2a020002 	orr	w2, w0, w2
   83c38:	d503201f 	nop
   83c3c:	b9400020 	ldr	w0, [x1]
   83c40:	37ffffc0 	tbnz	w0, #31, 83c38 <mbox_write+0x18>
   83c44:	d2971400 	mov	x0, #0xb8a0                	// #47264
   83c48:	f2a7e000 	movk	x0, #0x3f00, lsl #16
   83c4c:	b9000002 	str	w2, [x0]
   83c50:	d65f03c0 	ret

0000000000083c54 <mbox_read>:
   83c54:	f0000004 	adrp	x4, 86000 <bh_core_timer_handler+0x674>
   83c58:	12000c00 	and	w0, w0, #0xf
   83c5c:	d2971301 	mov	x1, #0xb898                	// #47256
   83c60:	d2971003 	mov	x3, #0xb880                	// #47232
   83c64:	f9455882 	ldr	x2, [x4, #2736]
   83c68:	f2a7e001 	movk	x1, #0x3f00, lsl #16
   83c6c:	f2a7e003 	movk	x3, #0x3f00, lsl #16
   83c70:	2a020002 	orr	w2, w0, w2
   83c74:	d503201f 	nop
   83c78:	d503201f 	nop
   83c7c:	b9400020 	ldr	w0, [x1]
   83c80:	37f7ffc0 	tbnz	w0, #30, 83c78 <mbox_read+0x24>
   83c84:	b9400060 	ldr	w0, [x3]
   83c88:	6b02001f 	cmp	w0, w2
   83c8c:	54ffff61 	b.ne	83c78 <mbox_read+0x24>  // b.any
   83c90:	f9455884 	ldr	x4, [x4, #2736]
   83c94:	52b00000 	mov	w0, #0x80000000            	// #-2147483648
   83c98:	b9400481 	ldr	w1, [x4, #4]
   83c9c:	6b00003f 	cmp	w1, w0
   83ca0:	1a9f17e0 	cset	w0, eq  // eq = none
   83ca4:	d65f03c0 	ret
	...

0000000000083cb0 <uart_init>:
   83cb0:	d2800082 	mov	x2, #0x4                   	// #4
   83cb4:	d2801283 	mov	x3, #0x94                  	// #148
   83cb8:	f2a7e402 	movk	x2, #0x3f20, lsl #16
   83cbc:	f2a7e403 	movk	x3, #0x3f20, lsl #16
   83cc0:	52840004 	mov	w4, #0x2000                	// #8192
   83cc4:	528012c0 	mov	w0, #0x96                  	// #150
   83cc8:	b9400041 	ldr	w1, [x2]
   83ccc:	72a00024 	movk	w4, #0x1, lsl #16
   83cd0:	120e6421 	and	w1, w1, #0xfffc0fff
   83cd4:	2a040021 	orr	w1, w1, w4
   83cd8:	b9000041 	str	w1, [x2]
   83cdc:	b900007f 	str	wzr, [x3]
   83ce0:	d503201f 	nop
   83ce4:	71000400 	subs	w0, w0, #0x1
   83ce8:	54ffffc1 	b.ne	83ce0 <uart_init+0x30>  // b.any
   83cec:	d2801301 	mov	x1, #0x98                  	// #152
   83cf0:	52980002 	mov	w2, #0xc000                	// #49152
   83cf4:	f2a7e401 	movk	x1, #0x3f20, lsl #16
   83cf8:	528012c0 	mov	w0, #0x96                  	// #150
   83cfc:	b9000022 	str	w2, [x1]
   83d00:	d503201f 	nop
   83d04:	71000400 	subs	w0, w0, #0x1
   83d08:	54ffffc1 	b.ne	83d00 <uart_init+0x50>  // b.any
   83d0c:	d2801301 	mov	x1, #0x98                  	// #152
   83d10:	d28a0082 	mov	x2, #0x5004                	// #20484
   83d14:	f2a7e401 	movk	x1, #0x3f20, lsl #16
   83d18:	f2a7e422 	movk	x2, #0x3f21, lsl #16
   83d1c:	d28a0c00 	mov	x0, #0x5060                	// #20576
   83d20:	52800023 	mov	w3, #0x1                   	// #1
   83d24:	f2a7e420 	movk	x0, #0x3f21, lsl #16
   83d28:	b900003f 	str	wzr, [x1]
   83d2c:	d28a0881 	mov	x1, #0x5044                	// #20548
   83d30:	b9000043 	str	w3, [x2]
   83d34:	f2a7e421 	movk	x1, #0x3f21, lsl #16
   83d38:	d28a0983 	mov	x3, #0x504c                	// #20556
   83d3c:	f2a7e423 	movk	x3, #0x3f21, lsl #16
   83d40:	528001a2 	mov	w2, #0xd                   	// #13
   83d44:	d28a0a04 	mov	x4, #0x5050                	// #20560
   83d48:	b900001f 	str	wzr, [x0]
   83d4c:	f2a7e424 	movk	x4, #0x3f21, lsl #16
   83d50:	b9000022 	str	w2, [x1]
   83d54:	d28a0d02 	mov	x2, #0x5068                	// #20584
   83d58:	52800061 	mov	w1, #0x3                   	// #3
   83d5c:	f2a7e422 	movk	x2, #0x3f21, lsl #16
   83d60:	b9000061 	str	w1, [x3]
   83d64:	b900009f 	str	wzr, [x4]
   83d68:	528021c3 	mov	w3, #0x10e                 	// #270
   83d6c:	b9000043 	str	w3, [x2]
   83d70:	b9000001 	str	w1, [x0]
   83d74:	d65f03c0 	ret
   83d78:	d503201f 	nop
   83d7c:	d503201f 	nop

0000000000083d80 <uart_init2>:
   83d80:	d28a0081 	mov	x1, #0x5004                	// #20484
   83d84:	d28a0c07 	mov	x7, #0x5060                	// #20576
   83d88:	f2a7e421 	movk	x1, #0x3f21, lsl #16
   83d8c:	f2a7e427 	movk	x7, #0x3f21, lsl #16
   83d90:	d28a0885 	mov	x5, #0x5044                	// #20548
   83d94:	d28a0982 	mov	x2, #0x504c                	// #20556
   83d98:	b9400020 	ldr	w0, [x1]
   83d9c:	f2a7e425 	movk	x5, #0x3f21, lsl #16
   83da0:	f2a7e422 	movk	x2, #0x3f21, lsl #16
   83da4:	d28a0a03 	mov	x3, #0x5050                	// #20560
   83da8:	32000000 	orr	w0, w0, #0x1
   83dac:	b9000020 	str	w0, [x1]
   83db0:	b90000ff 	str	wzr, [x7]
   83db4:	f2a7e423 	movk	x3, #0x3f21, lsl #16
   83db8:	528001a6 	mov	w6, #0xd                   	// #13
   83dbc:	d28a0d00 	mov	x0, #0x5068                	// #20584
   83dc0:	b90000a6 	str	w6, [x5]
   83dc4:	52800064 	mov	w4, #0x3                   	// #3
   83dc8:	f2a7e420 	movk	x0, #0x3f21, lsl #16
   83dcc:	b9000044 	str	w4, [x2]
   83dd0:	d2800082 	mov	x2, #0x4                   	// #4
   83dd4:	b900007f 	str	wzr, [x3]
   83dd8:	528021c1 	mov	w1, #0x10e                 	// #270
   83ddc:	f2a7e402 	movk	x2, #0x3f20, lsl #16
   83de0:	b9000001 	str	w1, [x0]
   83de4:	d2801283 	mov	x3, #0x94                  	// #148
   83de8:	52840004 	mov	w4, #0x2000                	// #8192
   83dec:	f2a7e403 	movk	x3, #0x3f20, lsl #16
   83df0:	b9400041 	ldr	w1, [x2]
   83df4:	72a00024 	movk	w4, #0x1, lsl #16
   83df8:	528012c0 	mov	w0, #0x96                  	// #150
   83dfc:	120e6421 	and	w1, w1, #0xfffc0fff
   83e00:	2a040021 	orr	w1, w1, w4
   83e04:	b9000041 	str	w1, [x2]
   83e08:	b900007f 	str	wzr, [x3]
   83e0c:	d503201f 	nop
   83e10:	d503201f 	nop
   83e14:	71000400 	subs	w0, w0, #0x1
   83e18:	54ffffc1 	b.ne	83e10 <uart_init2+0x90>  // b.any
   83e1c:	d2801301 	mov	x1, #0x98                  	// #152
   83e20:	52980002 	mov	w2, #0xc000                	// #49152
   83e24:	f2a7e401 	movk	x1, #0x3f20, lsl #16
   83e28:	528012c0 	mov	w0, #0x96                  	// #150
   83e2c:	b9000022 	str	w2, [x1]
   83e30:	d503201f 	nop
   83e34:	71000400 	subs	w0, w0, #0x1
   83e38:	54ffffc1 	b.ne	83e30 <uart_init2+0xb0>  // b.any
   83e3c:	d2801302 	mov	x2, #0x98                  	// #152
   83e40:	d28a0c00 	mov	x0, #0x5060                	// #20576
   83e44:	f2a7e402 	movk	x2, #0x3f20, lsl #16
   83e48:	f2a7e420 	movk	x0, #0x3f21, lsl #16
   83e4c:	52800061 	mov	w1, #0x3                   	// #3
   83e50:	b900005f 	str	wzr, [x2]
   83e54:	b9000001 	str	w1, [x0]
   83e58:	d65f03c0 	ret
   83e5c:	d503201f 	nop

0000000000083e60 <uart_send>:
   83e60:	d28a0a82 	mov	x2, #0x5054                	// #20564
   83e64:	f2a7e422 	movk	x2, #0x3f21, lsl #16
   83e68:	b9400041 	ldr	w1, [x2]
   83e6c:	362fffe1 	tbz	w1, #5, 83e68 <uart_send+0x8>
   83e70:	d28a0801 	mov	x1, #0x5040                	// #20544
   83e74:	f2a7e421 	movk	x1, #0x3f21, lsl #16
   83e78:	b9000020 	str	w0, [x1]
   83e7c:	d65f03c0 	ret

0000000000083e80 <uart_flush>:
   83e80:	d28a0a81 	mov	x1, #0x5054                	// #20564
   83e84:	f2a7e421 	movk	x1, #0x3f21, lsl #16
   83e88:	b9400020 	ldr	w0, [x1]
   83e8c:	360000c0 	tbz	w0, #0, 83ea4 <uart_flush+0x24>
   83e90:	d28a0802 	mov	x2, #0x5040                	// #20544
   83e94:	f2a7e422 	movk	x2, #0x3f21, lsl #16
   83e98:	b9400040 	ldr	w0, [x2]
   83e9c:	b9400020 	ldr	w0, [x1]
   83ea0:	3707ffc0 	tbnz	w0, #0, 83e98 <uart_flush+0x18>
   83ea4:	d65f03c0 	ret
   83ea8:	d503201f 	nop
   83eac:	d503201f 	nop

0000000000083eb0 <uart_getc>:
   83eb0:	d28a0a81 	mov	x1, #0x5054                	// #20564
   83eb4:	f2a7e421 	movk	x1, #0x3f21, lsl #16
   83eb8:	b9400020 	ldr	w0, [x1]
   83ebc:	3607ffe0 	tbz	w0, #0, 83eb8 <uart_getc+0x8>
   83ec0:	d28a0800 	mov	x0, #0x5040                	// #20544
   83ec4:	f2a7e420 	movk	x0, #0x3f21, lsl #16
   83ec8:	b9400000 	ldr	w0, [x0]
   83ecc:	d65f03c0 	ret

0000000000083ed0 <uart_puts>:
   83ed0:	a9be7bfd 	stp	x29, x30, [sp, #-32]!
   83ed4:	910003fd 	mov	x29, sp
   83ed8:	f9000bf3 	str	x19, [sp, #16]
   83edc:	aa0003f3 	mov	x19, x0
   83ee0:	39400000 	ldrb	w0, [x0]
   83ee4:	34000080 	cbz	w0, 83ef4 <uart_puts+0x24>
   83ee8:	97ffffde 	bl	83e60 <uart_send>
   83eec:	38401e60 	ldrb	w0, [x19, #1]!
   83ef0:	35ffffc0 	cbnz	w0, 83ee8 <uart_puts+0x18>
   83ef4:	f9400bf3 	ldr	x19, [sp, #16]
   83ef8:	a8c27bfd 	ldp	x29, x30, [sp], #32
   83efc:	d65f03c0 	ret

0000000000083f00 <buf_is_full>:
   83f00:	f0000000 	adrp	x0, 86000 <bh_core_timer_handler+0x674>
   83f04:	9129c001 	add	x1, x0, #0xa70
   83f08:	b94a7000 	ldr	w0, [x0, #2672]
   83f0c:	b9400422 	ldr	w2, [x1, #4]
   83f10:	11000400 	add	w0, w0, #0x1
   83f14:	6b0003e1 	negs	w1, w0
   83f18:	12002400 	and	w0, w0, #0x3ff
   83f1c:	12002421 	and	w1, w1, #0x3ff
   83f20:	5a814400 	csneg	w0, w0, w1, mi  // mi = first
   83f24:	6b02001f 	cmp	w0, w2
   83f28:	1a9f17e0 	cset	w0, eq  // eq = none
   83f2c:	d65f03c0 	ret

0000000000083f30 <buf_push>:
   83f30:	a9be7bfd 	stp	x29, x30, [sp, #-32]!
   83f34:	910003fd 	mov	x29, sp
   83f38:	f9000bf3 	str	x19, [sp, #16]
   83f3c:	12001c13 	and	w19, w0, #0xff
   83f40:	97fffff0 	bl	83f00 <buf_is_full>
   83f44:	35ffffe0 	cbnz	w0, 83f40 <buf_push+0x10>
   83f48:	f0000002 	adrp	x2, 86000 <bh_core_timer_handler+0x674>
   83f4c:	f0000001 	adrp	x1, 86000 <bh_core_timer_handler+0x674>
   83f50:	b94a7040 	ldr	w0, [x2, #2672]
   83f54:	f9459421 	ldr	x1, [x1, #2856]
   83f58:	11000400 	add	w0, w0, #0x1
   83f5c:	b90a7040 	str	w0, [x2, #2672]
   83f60:	3820c833 	strb	w19, [x1, w0, sxtw]
   83f64:	f9400bf3 	ldr	x19, [sp, #16]
   83f68:	a8c27bfd 	ldp	x29, x30, [sp], #32
   83f6c:	d65f03c0 	ret

0000000000083f70 <buf_is_empty>:
   83f70:	f0000000 	adrp	x0, 86000 <bh_core_timer_handler+0x674>
   83f74:	9129c001 	add	x1, x0, #0xa70
   83f78:	b94a7000 	ldr	w0, [x0, #2672]
   83f7c:	b9400421 	ldr	w1, [x1, #4]
   83f80:	6b00003f 	cmp	w1, w0
   83f84:	1a9f17e0 	cset	w0, eq  // eq = none
   83f88:	d65f03c0 	ret
   83f8c:	d503201f 	nop

0000000000083f90 <buf_pop>:
   83f90:	a9bf7bfd 	stp	x29, x30, [sp, #-16]!
   83f94:	910003fd 	mov	x29, sp
   83f98:	97fffff6 	bl	83f70 <buf_is_empty>
   83f9c:	35ffffe0 	cbnz	w0, 83f98 <buf_pop+0x8>
   83fa0:	f0000001 	adrp	x1, 86000 <bh_core_timer_handler+0x674>
   83fa4:	9129c021 	add	x1, x1, #0xa70
   83fa8:	f0000002 	adrp	x2, 86000 <bh_core_timer_handler+0x674>
   83fac:	b9400420 	ldr	w0, [x1, #4]
   83fb0:	f9459442 	ldr	x2, [x2, #2856]
   83fb4:	11000400 	add	w0, w0, #0x1
   83fb8:	b9000420 	str	w0, [x1, #4]
   83fbc:	3860c840 	ldrb	w0, [x2, w0, sxtw]
   83fc0:	a8c17bfd 	ldp	x29, x30, [sp], #16
   83fc4:	d65f03c0 	ret
   83fc8:	d503201f 	nop
   83fcc:	d503201f 	nop

0000000000083fd0 <getc>:
   83fd0:	17fffff0 	b	83f90 <buf_pop>

0000000000083fd4 <uart_irq_handler>:
   83fd4:	a9be7bfd 	stp	x29, x30, [sp, #-32]!
   83fd8:	910003fd 	mov	x29, sp
   83fdc:	f9000bf3 	str	x19, [sp, #16]
   83fe0:	d28a0913 	mov	x19, #0x5048                	// #20552
   83fe4:	f2a7e433 	movk	x19, #0x3f21, lsl #16
   83fe8:	b9400260 	ldr	w0, [x19]
   83fec:	361000a0 	tbz	w0, #2, 84000 <uart_irq_handler+0x2c>
   83ff0:	97ffffb0 	bl	83eb0 <uart_getc>
   83ff4:	97ffffcf 	bl	83f30 <buf_push>
   83ff8:	b9400260 	ldr	w0, [x19]
   83ffc:	3717ffa0 	tbnz	w0, #2, 83ff0 <uart_irq_handler+0x1c>
   84000:	f9400bf3 	ldr	x19, [sp, #16]
   84004:	a8c27bfd 	ldp	x29, x30, [sp], #32
   84008:	d65f03c0 	ret
   8400c:	00000000 	.inst	0x00000000 ; undefined

0000000000084010 <timer_init>:
   84010:	d0000001 	adrp	x1, 86000 <bh_core_timer_handler+0x674>
   84014:	d2980200 	mov	x0, #0xc010                	// #49168
   84018:	f2a7e000 	movk	x0, #0x3f00, lsl #16
   8401c:	d2980802 	mov	x2, #0xc040                	// #49216
   84020:	f945b421 	ldr	x1, [x1, #2920]
   84024:	f2a7e002 	movk	x2, #0x3f00, lsl #16
   84028:	b9400000 	ldr	w0, [x0]
   8402c:	1140c000 	add	w0, w0, #0x30, lsl #12
   84030:	11350000 	add	w0, w0, #0xd40
   84034:	b9000020 	str	w0, [x1]
   84038:	b9000040 	str	w0, [x2]
   8403c:	d65f03c0 	ret

0000000000084040 <handle_timer_irq>:
   84040:	d0000002 	adrp	x2, 86000 <bh_core_timer_handler+0x674>
   84044:	d2980805 	mov	x5, #0xc040                	// #49216
   84048:	f2a7e005 	movk	x5, #0x3f00, lsl #16
   8404c:	d2980003 	mov	x3, #0xc000                	// #49152
   84050:	f945b442 	ldr	x2, [x2, #2920]
   84054:	f2a7e003 	movk	x3, #0x3f00, lsl #16
   84058:	52800044 	mov	w4, #0x2                   	// #2
   8405c:	d0000000 	adrp	x0, 86000 <bh_core_timer_handler+0x674>
   84060:	91246000 	add	x0, x0, #0x918
   84064:	b9400041 	ldr	w1, [x2]
   84068:	1140c021 	add	w1, w1, #0x30, lsl #12
   8406c:	11350021 	add	w1, w1, #0xd40
   84070:	b9000041 	str	w1, [x2]
   84074:	b90000a1 	str	w1, [x5]
   84078:	b9000064 	str	w4, [x3]
   8407c:	17fff53d 	b	81570 <uart_println>

0000000000084080 <sys_print_time>:
   84080:	d53be005 	mrs	x5, cntfrq_el0
   84084:	d53be023 	mrs	x3, cntpct_el0
   84088:	d29c2002 	mov	x2, #0xe100                	// #57600
   8408c:	d299dfa4 	mov	x4, #0xcefd                	// #52989
   84090:	f2a0bea2 	movk	x2, #0x5f5, lsl #16
   84094:	f2b08c24 	movk	x4, #0x8461, lsl #16
   84098:	9ac50861 	udiv	x1, x3, x5
   8409c:	f2cee224 	movk	x4, #0x7711, lsl #32
   840a0:	9b027c63 	mul	x3, x3, x2
   840a4:	f2f57984 	movk	x4, #0xabcc, lsl #48
   840a8:	d0000000 	adrp	x0, 86000 <bh_core_timer_handler+0x674>
   840ac:	9124e000 	add	x0, x0, #0x938
   840b0:	9ac50863 	udiv	x3, x3, x5
   840b4:	9bc47c64 	umulh	x4, x3, x4
   840b8:	d35afc84 	lsr	x4, x4, #26
   840bc:	9b028c82 	msub	x2, x4, x2, x3
   840c0:	17fff4ac 	b	81370 <uart_print>

00000000000840c4 <core_timer_enable>:
   840c4:	a9bf27e8 	stp	x8, x9, [sp, #-16]!
   840c8:	d2800008 	mov	x8, #0x0                   	// #0
   840cc:	d4000001 	svc	#0x0
   840d0:	a8c127e8 	ldp	x8, x9, [sp], #16
   840d4:	d65f03c0 	ret
   840d8:	d503201f 	nop
   840dc:	d503201f 	nop

00000000000840e0 <core_timer_enable_w4sec>:
   840e0:	a9bf27e8 	stp	x8, x9, [sp, #-16]!
   840e4:	d2800048 	mov	x8, #0x2                   	// #2
   840e8:	d4000001 	svc	#0x0
   840ec:	a8c127e8 	ldp	x8, x9, [sp], #16
   840f0:	d65f03c0 	ret

00000000000840f4 <local_timer_init>:
   840f4:	d2800680 	mov	x0, #0x34                  	// #52
   840f8:	528f0801 	mov	w1, #0x7840                	// #30784
   840fc:	f2a80000 	movk	x0, #0x4000, lsl #16
   84100:	72a62fa1 	movk	w1, #0x317d, lsl #16
   84104:	b9000001 	str	w1, [x0]
   84108:	d65f03c0 	ret
   8410c:	d503201f 	nop

0000000000084110 <local_timer_handler>:
   84110:	d2800700 	mov	x0, #0x38                  	// #56
   84114:	52b80001 	mov	w1, #0xc0000000            	// #-1073741824
   84118:	f2a80000 	movk	x0, #0x4000, lsl #16
   8411c:	b9000001 	str	w1, [x0]
   84120:	d65f03c0 	ret

0000000000084124 <clear_local_timer_interrupt>:
   84124:	d2800700 	mov	x0, #0x38                  	// #56
   84128:	52b00001 	mov	w1, #0x80000000            	// #-2147483648
   8412c:	f2a80000 	movk	x0, #0x4000, lsl #16
   84130:	b9000001 	str	w1, [x0]
   84134:	d65f03c0 	ret
   84138:	d503201f 	nop
   8413c:	d503201f 	nop

0000000000084140 <local_timer_display_handler>:
   84140:	d2800701 	mov	x1, #0x38                  	// #56
   84144:	d0000002 	adrp	x2, 86000 <bh_core_timer_handler+0x674>
   84148:	f2a80001 	movk	x1, #0x4000, lsl #16
   8414c:	52b80003 	mov	w3, #0xc0000000            	// #-1073741824
   84150:	b0000000 	adrp	x0, 85000 <sync_invalid_el1t+0x7c>
   84154:	913d0000 	add	x0, x0, #0xf40
   84158:	b9000023 	str	w3, [x1]
   8415c:	f9453c41 	ldr	x1, [x2, #2680]
   84160:	91000423 	add	x3, x1, #0x1
   84164:	f9053c43 	str	x3, [x2, #2680]
   84168:	17fff502 	b	81570 <uart_println>
	...

0000000000084800 <vectors>:
   84800:	140001e1 	b	84f84 <sync_invalid_el1t>
   84804:	d503201f 	nop
   84808:	d503201f 	nop
   8480c:	d503201f 	nop
   84810:	d503201f 	nop
   84814:	d503201f 	nop
   84818:	d503201f 	nop
   8481c:	d503201f 	nop
   84820:	d503201f 	nop
   84824:	d503201f 	nop
   84828:	d503201f 	nop
   8482c:	d503201f 	nop
   84830:	d503201f 	nop
   84834:	d503201f 	nop
   84838:	d503201f 	nop
   8483c:	d503201f 	nop
   84840:	d503201f 	nop
   84844:	d503201f 	nop
   84848:	d503201f 	nop
   8484c:	d503201f 	nop
   84850:	d503201f 	nop
   84854:	d503201f 	nop
   84858:	d503201f 	nop
   8485c:	d503201f 	nop
   84860:	d503201f 	nop
   84864:	d503201f 	nop
   84868:	d503201f 	nop
   8486c:	d503201f 	nop
   84870:	d503201f 	nop
   84874:	d503201f 	nop
   84878:	d503201f 	nop
   8487c:	d503201f 	nop
   84880:	140001e8 	b	85020 <irq_invalid_el1t>
   84884:	d503201f 	nop
   84888:	d503201f 	nop
   8488c:	d503201f 	nop
   84890:	d503201f 	nop
   84894:	d503201f 	nop
   84898:	d503201f 	nop
   8489c:	d503201f 	nop
   848a0:	d503201f 	nop
   848a4:	d503201f 	nop
   848a8:	d503201f 	nop
   848ac:	d503201f 	nop
   848b0:	d503201f 	nop
   848b4:	d503201f 	nop
   848b8:	d503201f 	nop
   848bc:	d503201f 	nop
   848c0:	d503201f 	nop
   848c4:	d503201f 	nop
   848c8:	d503201f 	nop
   848cc:	d503201f 	nop
   848d0:	d503201f 	nop
   848d4:	d503201f 	nop
   848d8:	d503201f 	nop
   848dc:	d503201f 	nop
   848e0:	d503201f 	nop
   848e4:	d503201f 	nop
   848e8:	d503201f 	nop
   848ec:	d503201f 	nop
   848f0:	d503201f 	nop
   848f4:	d503201f 	nop
   848f8:	d503201f 	nop
   848fc:	d503201f 	nop
   84900:	140001ef 	b	850bc <fiq_invalid_el1t>
   84904:	d503201f 	nop
   84908:	d503201f 	nop
   8490c:	d503201f 	nop
   84910:	d503201f 	nop
   84914:	d503201f 	nop
   84918:	d503201f 	nop
   8491c:	d503201f 	nop
   84920:	d503201f 	nop
   84924:	d503201f 	nop
   84928:	d503201f 	nop
   8492c:	d503201f 	nop
   84930:	d503201f 	nop
   84934:	d503201f 	nop
   84938:	d503201f 	nop
   8493c:	d503201f 	nop
   84940:	d503201f 	nop
   84944:	d503201f 	nop
   84948:	d503201f 	nop
   8494c:	d503201f 	nop
   84950:	d503201f 	nop
   84954:	d503201f 	nop
   84958:	d503201f 	nop
   8495c:	d503201f 	nop
   84960:	d503201f 	nop
   84964:	d503201f 	nop
   84968:	d503201f 	nop
   8496c:	d503201f 	nop
   84970:	d503201f 	nop
   84974:	d503201f 	nop
   84978:	d503201f 	nop
   8497c:	d503201f 	nop
   84980:	140001f6 	b	85158 <error_invalid_el1t>
   84984:	d503201f 	nop
   84988:	d503201f 	nop
   8498c:	d503201f 	nop
   84990:	d503201f 	nop
   84994:	d503201f 	nop
   84998:	d503201f 	nop
   8499c:	d503201f 	nop
   849a0:	d503201f 	nop
   849a4:	d503201f 	nop
   849a8:	d503201f 	nop
   849ac:	d503201f 	nop
   849b0:	d503201f 	nop
   849b4:	d503201f 	nop
   849b8:	d503201f 	nop
   849bc:	d503201f 	nop
   849c0:	d503201f 	nop
   849c4:	d503201f 	nop
   849c8:	d503201f 	nop
   849cc:	d503201f 	nop
   849d0:	d503201f 	nop
   849d4:	d503201f 	nop
   849d8:	d503201f 	nop
   849dc:	d503201f 	nop
   849e0:	d503201f 	nop
   849e4:	d503201f 	nop
   849e8:	d503201f 	nop
   849ec:	d503201f 	nop
   849f0:	d503201f 	nop
   849f4:	d503201f 	nop
   849f8:	d503201f 	nop
   849fc:	d503201f 	nop
   84a00:	140001fd 	b	851f4 <sync_invalid_el1h>
   84a04:	d503201f 	nop
   84a08:	d503201f 	nop
   84a0c:	d503201f 	nop
   84a10:	d503201f 	nop
   84a14:	d503201f 	nop
   84a18:	d503201f 	nop
   84a1c:	d503201f 	nop
   84a20:	d503201f 	nop
   84a24:	d503201f 	nop
   84a28:	d503201f 	nop
   84a2c:	d503201f 	nop
   84a30:	d503201f 	nop
   84a34:	d503201f 	nop
   84a38:	d503201f 	nop
   84a3c:	d503201f 	nop
   84a40:	d503201f 	nop
   84a44:	d503201f 	nop
   84a48:	d503201f 	nop
   84a4c:	d503201f 	nop
   84a50:	d503201f 	nop
   84a54:	d503201f 	nop
   84a58:	d503201f 	nop
   84a5c:	d503201f 	nop
   84a60:	d503201f 	nop
   84a64:	d503201f 	nop
   84a68:	d503201f 	nop
   84a6c:	d503201f 	nop
   84a70:	d503201f 	nop
   84a74:	d503201f 	nop
   84a78:	d503201f 	nop
   84a7c:	d503201f 	nop
   84a80:	14000204 	b	85290 <irq_invalid_el1h>
   84a84:	d503201f 	nop
   84a88:	d503201f 	nop
   84a8c:	d503201f 	nop
   84a90:	d503201f 	nop
   84a94:	d503201f 	nop
   84a98:	d503201f 	nop
   84a9c:	d503201f 	nop
   84aa0:	d503201f 	nop
   84aa4:	d503201f 	nop
   84aa8:	d503201f 	nop
   84aac:	d503201f 	nop
   84ab0:	d503201f 	nop
   84ab4:	d503201f 	nop
   84ab8:	d503201f 	nop
   84abc:	d503201f 	nop
   84ac0:	d503201f 	nop
   84ac4:	d503201f 	nop
   84ac8:	d503201f 	nop
   84acc:	d503201f 	nop
   84ad0:	d503201f 	nop
   84ad4:	d503201f 	nop
   84ad8:	d503201f 	nop
   84adc:	d503201f 	nop
   84ae0:	d503201f 	nop
   84ae4:	d503201f 	nop
   84ae8:	d503201f 	nop
   84aec:	d503201f 	nop
   84af0:	d503201f 	nop
   84af4:	d503201f 	nop
   84af8:	d503201f 	nop
   84afc:	d503201f 	nop
   84b00:	1400020b 	b	8532c <fiq_invalid_el1h>
   84b04:	d503201f 	nop
   84b08:	d503201f 	nop
   84b0c:	d503201f 	nop
   84b10:	d503201f 	nop
   84b14:	d503201f 	nop
   84b18:	d503201f 	nop
   84b1c:	d503201f 	nop
   84b20:	d503201f 	nop
   84b24:	d503201f 	nop
   84b28:	d503201f 	nop
   84b2c:	d503201f 	nop
   84b30:	d503201f 	nop
   84b34:	d503201f 	nop
   84b38:	d503201f 	nop
   84b3c:	d503201f 	nop
   84b40:	d503201f 	nop
   84b44:	d503201f 	nop
   84b48:	d503201f 	nop
   84b4c:	d503201f 	nop
   84b50:	d503201f 	nop
   84b54:	d503201f 	nop
   84b58:	d503201f 	nop
   84b5c:	d503201f 	nop
   84b60:	d503201f 	nop
   84b64:	d503201f 	nop
   84b68:	d503201f 	nop
   84b6c:	d503201f 	nop
   84b70:	d503201f 	nop
   84b74:	d503201f 	nop
   84b78:	d503201f 	nop
   84b7c:	d503201f 	nop
   84b80:	14000212 	b	853c8 <error_invalid_el1h>
   84b84:	d503201f 	nop
   84b88:	d503201f 	nop
   84b8c:	d503201f 	nop
   84b90:	d503201f 	nop
   84b94:	d503201f 	nop
   84b98:	d503201f 	nop
   84b9c:	d503201f 	nop
   84ba0:	d503201f 	nop
   84ba4:	d503201f 	nop
   84ba8:	d503201f 	nop
   84bac:	d503201f 	nop
   84bb0:	d503201f 	nop
   84bb4:	d503201f 	nop
   84bb8:	d503201f 	nop
   84bbc:	d503201f 	nop
   84bc0:	d503201f 	nop
   84bc4:	d503201f 	nop
   84bc8:	d503201f 	nop
   84bcc:	d503201f 	nop
   84bd0:	d503201f 	nop
   84bd4:	d503201f 	nop
   84bd8:	d503201f 	nop
   84bdc:	d503201f 	nop
   84be0:	d503201f 	nop
   84be4:	d503201f 	nop
   84be8:	d503201f 	nop
   84bec:	d503201f 	nop
   84bf0:	d503201f 	nop
   84bf4:	d503201f 	nop
   84bf8:	d503201f 	nop
   84bfc:	d503201f 	nop
   84c00:	14000219 	b	85464 <sync_invalid_el0_64>
   84c04:	d503201f 	nop
   84c08:	d503201f 	nop
   84c0c:	d503201f 	nop
   84c10:	d503201f 	nop
   84c14:	d503201f 	nop
   84c18:	d503201f 	nop
   84c1c:	d503201f 	nop
   84c20:	d503201f 	nop
   84c24:	d503201f 	nop
   84c28:	d503201f 	nop
   84c2c:	d503201f 	nop
   84c30:	d503201f 	nop
   84c34:	d503201f 	nop
   84c38:	d503201f 	nop
   84c3c:	d503201f 	nop
   84c40:	d503201f 	nop
   84c44:	d503201f 	nop
   84c48:	d503201f 	nop
   84c4c:	d503201f 	nop
   84c50:	d503201f 	nop
   84c54:	d503201f 	nop
   84c58:	d503201f 	nop
   84c5c:	d503201f 	nop
   84c60:	d503201f 	nop
   84c64:	d503201f 	nop
   84c68:	d503201f 	nop
   84c6c:	d503201f 	nop
   84c70:	d503201f 	nop
   84c74:	d503201f 	nop
   84c78:	d503201f 	nop
   84c7c:	d503201f 	nop
   84c80:	1400021d 	b	854f4 <irq_invalid_el0_64>
   84c84:	d503201f 	nop
   84c88:	d503201f 	nop
   84c8c:	d503201f 	nop
   84c90:	d503201f 	nop
   84c94:	d503201f 	nop
   84c98:	d503201f 	nop
   84c9c:	d503201f 	nop
   84ca0:	d503201f 	nop
   84ca4:	d503201f 	nop
   84ca8:	d503201f 	nop
   84cac:	d503201f 	nop
   84cb0:	d503201f 	nop
   84cb4:	d503201f 	nop
   84cb8:	d503201f 	nop
   84cbc:	d503201f 	nop
   84cc0:	d503201f 	nop
   84cc4:	d503201f 	nop
   84cc8:	d503201f 	nop
   84ccc:	d503201f 	nop
   84cd0:	d503201f 	nop
   84cd4:	d503201f 	nop
   84cd8:	d503201f 	nop
   84cdc:	d503201f 	nop
   84ce0:	d503201f 	nop
   84ce4:	d503201f 	nop
   84ce8:	d503201f 	nop
   84cec:	d503201f 	nop
   84cf0:	d503201f 	nop
   84cf4:	d503201f 	nop
   84cf8:	d503201f 	nop
   84cfc:	d503201f 	nop
   84d00:	14000221 	b	85584 <fiq_invalid_el0_64>
   84d04:	d503201f 	nop
   84d08:	d503201f 	nop
   84d0c:	d503201f 	nop
   84d10:	d503201f 	nop
   84d14:	d503201f 	nop
   84d18:	d503201f 	nop
   84d1c:	d503201f 	nop
   84d20:	d503201f 	nop
   84d24:	d503201f 	nop
   84d28:	d503201f 	nop
   84d2c:	d503201f 	nop
   84d30:	d503201f 	nop
   84d34:	d503201f 	nop
   84d38:	d503201f 	nop
   84d3c:	d503201f 	nop
   84d40:	d503201f 	nop
   84d44:	d503201f 	nop
   84d48:	d503201f 	nop
   84d4c:	d503201f 	nop
   84d50:	d503201f 	nop
   84d54:	d503201f 	nop
   84d58:	d503201f 	nop
   84d5c:	d503201f 	nop
   84d60:	d503201f 	nop
   84d64:	d503201f 	nop
   84d68:	d503201f 	nop
   84d6c:	d503201f 	nop
   84d70:	d503201f 	nop
   84d74:	d503201f 	nop
   84d78:	d503201f 	nop
   84d7c:	d503201f 	nop
   84d80:	14000228 	b	85620 <error_invalid_el0_64>
   84d84:	d503201f 	nop
   84d88:	d503201f 	nop
   84d8c:	d503201f 	nop
   84d90:	d503201f 	nop
   84d94:	d503201f 	nop
   84d98:	d503201f 	nop
   84d9c:	d503201f 	nop
   84da0:	d503201f 	nop
   84da4:	d503201f 	nop
   84da8:	d503201f 	nop
   84dac:	d503201f 	nop
   84db0:	d503201f 	nop
   84db4:	d503201f 	nop
   84db8:	d503201f 	nop
   84dbc:	d503201f 	nop
   84dc0:	d503201f 	nop
   84dc4:	d503201f 	nop
   84dc8:	d503201f 	nop
   84dcc:	d503201f 	nop
   84dd0:	d503201f 	nop
   84dd4:	d503201f 	nop
   84dd8:	d503201f 	nop
   84ddc:	d503201f 	nop
   84de0:	d503201f 	nop
   84de4:	d503201f 	nop
   84de8:	d503201f 	nop
   84dec:	d503201f 	nop
   84df0:	d503201f 	nop
   84df4:	d503201f 	nop
   84df8:	d503201f 	nop
   84dfc:	d503201f 	nop
   84e00:	1400022f 	b	856bc <sync_invalid_el0_32>
   84e04:	d503201f 	nop
   84e08:	d503201f 	nop
   84e0c:	d503201f 	nop
   84e10:	d503201f 	nop
   84e14:	d503201f 	nop
   84e18:	d503201f 	nop
   84e1c:	d503201f 	nop
   84e20:	d503201f 	nop
   84e24:	d503201f 	nop
   84e28:	d503201f 	nop
   84e2c:	d503201f 	nop
   84e30:	d503201f 	nop
   84e34:	d503201f 	nop
   84e38:	d503201f 	nop
   84e3c:	d503201f 	nop
   84e40:	d503201f 	nop
   84e44:	d503201f 	nop
   84e48:	d503201f 	nop
   84e4c:	d503201f 	nop
   84e50:	d503201f 	nop
   84e54:	d503201f 	nop
   84e58:	d503201f 	nop
   84e5c:	d503201f 	nop
   84e60:	d503201f 	nop
   84e64:	d503201f 	nop
   84e68:	d503201f 	nop
   84e6c:	d503201f 	nop
   84e70:	d503201f 	nop
   84e74:	d503201f 	nop
   84e78:	d503201f 	nop
   84e7c:	d503201f 	nop
   84e80:	14000236 	b	85758 <irq_invalid_el0_32>
   84e84:	d503201f 	nop
   84e88:	d503201f 	nop
   84e8c:	d503201f 	nop
   84e90:	d503201f 	nop
   84e94:	d503201f 	nop
   84e98:	d503201f 	nop
   84e9c:	d503201f 	nop
   84ea0:	d503201f 	nop
   84ea4:	d503201f 	nop
   84ea8:	d503201f 	nop
   84eac:	d503201f 	nop
   84eb0:	d503201f 	nop
   84eb4:	d503201f 	nop
   84eb8:	d503201f 	nop
   84ebc:	d503201f 	nop
   84ec0:	d503201f 	nop
   84ec4:	d503201f 	nop
   84ec8:	d503201f 	nop
   84ecc:	d503201f 	nop
   84ed0:	d503201f 	nop
   84ed4:	d503201f 	nop
   84ed8:	d503201f 	nop
   84edc:	d503201f 	nop
   84ee0:	d503201f 	nop
   84ee4:	d503201f 	nop
   84ee8:	d503201f 	nop
   84eec:	d503201f 	nop
   84ef0:	d503201f 	nop
   84ef4:	d503201f 	nop
   84ef8:	d503201f 	nop
   84efc:	d503201f 	nop
   84f00:	1400023d 	b	857f4 <fiq_invalid_el0_32>
   84f04:	d503201f 	nop
   84f08:	d503201f 	nop
   84f0c:	d503201f 	nop
   84f10:	d503201f 	nop
   84f14:	d503201f 	nop
   84f18:	d503201f 	nop
   84f1c:	d503201f 	nop
   84f20:	d503201f 	nop
   84f24:	d503201f 	nop
   84f28:	d503201f 	nop
   84f2c:	d503201f 	nop
   84f30:	d503201f 	nop
   84f34:	d503201f 	nop
   84f38:	d503201f 	nop
   84f3c:	d503201f 	nop
   84f40:	d503201f 	nop
   84f44:	d503201f 	nop
   84f48:	d503201f 	nop
   84f4c:	d503201f 	nop
   84f50:	d503201f 	nop
   84f54:	d503201f 	nop
   84f58:	d503201f 	nop
   84f5c:	d503201f 	nop
   84f60:	d503201f 	nop
   84f64:	d503201f 	nop
   84f68:	d503201f 	nop
   84f6c:	d503201f 	nop
   84f70:	d503201f 	nop
   84f74:	d503201f 	nop
   84f78:	d503201f 	nop
   84f7c:	d503201f 	nop
   84f80:	14000244 	b	85890 <error_invalid_el0_32>

0000000000084f84 <sync_invalid_el1t>:
   84f84:	d10403ff 	sub	sp, sp, #0x100
   84f88:	a90007e0 	stp	x0, x1, [sp]
   84f8c:	a9010fe2 	stp	x2, x3, [sp, #16]
   84f90:	a90217e4 	stp	x4, x5, [sp, #32]
   84f94:	a9031fe6 	stp	x6, x7, [sp, #48]
   84f98:	a90427e8 	stp	x8, x9, [sp, #64]
   84f9c:	a9052fea 	stp	x10, x11, [sp, #80]
   84fa0:	a90637ec 	stp	x12, x13, [sp, #96]
   84fa4:	a9073fee 	stp	x14, x15, [sp, #112]
   84fa8:	a90847f0 	stp	x16, x17, [sp, #128]
   84fac:	a9094ff2 	stp	x18, x19, [sp, #144]
   84fb0:	a90a57f4 	stp	x20, x21, [sp, #160]
   84fb4:	a90b5ff6 	stp	x22, x23, [sp, #176]
   84fb8:	a90c67f8 	stp	x24, x25, [sp, #192]
   84fbc:	a90d6ffa 	stp	x26, x27, [sp, #208]
   84fc0:	a90e77fc 	stp	x28, x29, [sp, #224]
   84fc4:	f9007bfe 	str	x30, [sp, #240]
   84fc8:	d2800000 	mov	x0, #0x0                   	// #0
   84fcc:	d5385201 	mrs	x1, esr_el1
   84fd0:	d5384022 	mrs	x2, elr_el1
   84fd4:	97ffedd3 	bl	80720 <show_invalid_entry_message>
   84fd8:	a94007e0 	ldp	x0, x1, [sp]
   84fdc:	a9410fe2 	ldp	x2, x3, [sp, #16]
   84fe0:	a94217e4 	ldp	x4, x5, [sp, #32]
   84fe4:	a9431fe6 	ldp	x6, x7, [sp, #48]
   84fe8:	a94427e8 	ldp	x8, x9, [sp, #64]
   84fec:	a9452fea 	ldp	x10, x11, [sp, #80]
   84ff0:	a94637ec 	ldp	x12, x13, [sp, #96]
   84ff4:	a9473fee 	ldp	x14, x15, [sp, #112]
   84ff8:	a94847f0 	ldp	x16, x17, [sp, #128]
   84ffc:	a9494ff2 	ldp	x18, x19, [sp, #144]
   85000:	a94a57f4 	ldp	x20, x21, [sp, #160]
   85004:	a94b5ff6 	ldp	x22, x23, [sp, #176]
   85008:	a94c67f8 	ldp	x24, x25, [sp, #192]
   8500c:	a94d6ffa 	ldp	x26, x27, [sp, #208]
   85010:	a94e77fc 	ldp	x28, x29, [sp, #224]
   85014:	f9407bfe 	ldr	x30, [sp, #240]
   85018:	910403ff 	add	sp, sp, #0x100
   8501c:	d69f03e0 	eret

0000000000085020 <irq_invalid_el1t>:
   85020:	d10403ff 	sub	sp, sp, #0x100
   85024:	a90007e0 	stp	x0, x1, [sp]
   85028:	a9010fe2 	stp	x2, x3, [sp, #16]
   8502c:	a90217e4 	stp	x4, x5, [sp, #32]
   85030:	a9031fe6 	stp	x6, x7, [sp, #48]
   85034:	a90427e8 	stp	x8, x9, [sp, #64]
   85038:	a9052fea 	stp	x10, x11, [sp, #80]
   8503c:	a90637ec 	stp	x12, x13, [sp, #96]
   85040:	a9073fee 	stp	x14, x15, [sp, #112]
   85044:	a90847f0 	stp	x16, x17, [sp, #128]
   85048:	a9094ff2 	stp	x18, x19, [sp, #144]
   8504c:	a90a57f4 	stp	x20, x21, [sp, #160]
   85050:	a90b5ff6 	stp	x22, x23, [sp, #176]
   85054:	a90c67f8 	stp	x24, x25, [sp, #192]
   85058:	a90d6ffa 	stp	x26, x27, [sp, #208]
   8505c:	a90e77fc 	stp	x28, x29, [sp, #224]
   85060:	f9007bfe 	str	x30, [sp, #240]
   85064:	d2800020 	mov	x0, #0x1                   	// #1
   85068:	d5385201 	mrs	x1, esr_el1
   8506c:	d5384022 	mrs	x2, elr_el1
   85070:	97ffedac 	bl	80720 <show_invalid_entry_message>
   85074:	a94007e0 	ldp	x0, x1, [sp]
   85078:	a9410fe2 	ldp	x2, x3, [sp, #16]
   8507c:	a94217e4 	ldp	x4, x5, [sp, #32]
   85080:	a9431fe6 	ldp	x6, x7, [sp, #48]
   85084:	a94427e8 	ldp	x8, x9, [sp, #64]
   85088:	a9452fea 	ldp	x10, x11, [sp, #80]
   8508c:	a94637ec 	ldp	x12, x13, [sp, #96]
   85090:	a9473fee 	ldp	x14, x15, [sp, #112]
   85094:	a94847f0 	ldp	x16, x17, [sp, #128]
   85098:	a9494ff2 	ldp	x18, x19, [sp, #144]
   8509c:	a94a57f4 	ldp	x20, x21, [sp, #160]
   850a0:	a94b5ff6 	ldp	x22, x23, [sp, #176]
   850a4:	a94c67f8 	ldp	x24, x25, [sp, #192]
   850a8:	a94d6ffa 	ldp	x26, x27, [sp, #208]
   850ac:	a94e77fc 	ldp	x28, x29, [sp, #224]
   850b0:	f9407bfe 	ldr	x30, [sp, #240]
   850b4:	910403ff 	add	sp, sp, #0x100
   850b8:	d69f03e0 	eret

00000000000850bc <fiq_invalid_el1t>:
   850bc:	d10403ff 	sub	sp, sp, #0x100
   850c0:	a90007e0 	stp	x0, x1, [sp]
   850c4:	a9010fe2 	stp	x2, x3, [sp, #16]
   850c8:	a90217e4 	stp	x4, x5, [sp, #32]
   850cc:	a9031fe6 	stp	x6, x7, [sp, #48]
   850d0:	a90427e8 	stp	x8, x9, [sp, #64]
   850d4:	a9052fea 	stp	x10, x11, [sp, #80]
   850d8:	a90637ec 	stp	x12, x13, [sp, #96]
   850dc:	a9073fee 	stp	x14, x15, [sp, #112]
   850e0:	a90847f0 	stp	x16, x17, [sp, #128]
   850e4:	a9094ff2 	stp	x18, x19, [sp, #144]
   850e8:	a90a57f4 	stp	x20, x21, [sp, #160]
   850ec:	a90b5ff6 	stp	x22, x23, [sp, #176]
   850f0:	a90c67f8 	stp	x24, x25, [sp, #192]
   850f4:	a90d6ffa 	stp	x26, x27, [sp, #208]
   850f8:	a90e77fc 	stp	x28, x29, [sp, #224]
   850fc:	f9007bfe 	str	x30, [sp, #240]
   85100:	d2800040 	mov	x0, #0x2                   	// #2
   85104:	d5385201 	mrs	x1, esr_el1
   85108:	d5384022 	mrs	x2, elr_el1
   8510c:	97ffed85 	bl	80720 <show_invalid_entry_message>
   85110:	a94007e0 	ldp	x0, x1, [sp]
   85114:	a9410fe2 	ldp	x2, x3, [sp, #16]
   85118:	a94217e4 	ldp	x4, x5, [sp, #32]
   8511c:	a9431fe6 	ldp	x6, x7, [sp, #48]
   85120:	a94427e8 	ldp	x8, x9, [sp, #64]
   85124:	a9452fea 	ldp	x10, x11, [sp, #80]
   85128:	a94637ec 	ldp	x12, x13, [sp, #96]
   8512c:	a9473fee 	ldp	x14, x15, [sp, #112]
   85130:	a94847f0 	ldp	x16, x17, [sp, #128]
   85134:	a9494ff2 	ldp	x18, x19, [sp, #144]
   85138:	a94a57f4 	ldp	x20, x21, [sp, #160]
   8513c:	a94b5ff6 	ldp	x22, x23, [sp, #176]
   85140:	a94c67f8 	ldp	x24, x25, [sp, #192]
   85144:	a94d6ffa 	ldp	x26, x27, [sp, #208]
   85148:	a94e77fc 	ldp	x28, x29, [sp, #224]
   8514c:	f9407bfe 	ldr	x30, [sp, #240]
   85150:	910403ff 	add	sp, sp, #0x100
   85154:	d69f03e0 	eret

0000000000085158 <error_invalid_el1t>:
   85158:	d10403ff 	sub	sp, sp, #0x100
   8515c:	a90007e0 	stp	x0, x1, [sp]
   85160:	a9010fe2 	stp	x2, x3, [sp, #16]
   85164:	a90217e4 	stp	x4, x5, [sp, #32]
   85168:	a9031fe6 	stp	x6, x7, [sp, #48]
   8516c:	a90427e8 	stp	x8, x9, [sp, #64]
   85170:	a9052fea 	stp	x10, x11, [sp, #80]
   85174:	a90637ec 	stp	x12, x13, [sp, #96]
   85178:	a9073fee 	stp	x14, x15, [sp, #112]
   8517c:	a90847f0 	stp	x16, x17, [sp, #128]
   85180:	a9094ff2 	stp	x18, x19, [sp, #144]
   85184:	a90a57f4 	stp	x20, x21, [sp, #160]
   85188:	a90b5ff6 	stp	x22, x23, [sp, #176]
   8518c:	a90c67f8 	stp	x24, x25, [sp, #192]
   85190:	a90d6ffa 	stp	x26, x27, [sp, #208]
   85194:	a90e77fc 	stp	x28, x29, [sp, #224]
   85198:	f9007bfe 	str	x30, [sp, #240]
   8519c:	d2800060 	mov	x0, #0x3                   	// #3
   851a0:	d5385201 	mrs	x1, esr_el1
   851a4:	d5384022 	mrs	x2, elr_el1
   851a8:	97ffed5e 	bl	80720 <show_invalid_entry_message>
   851ac:	a94007e0 	ldp	x0, x1, [sp]
   851b0:	a9410fe2 	ldp	x2, x3, [sp, #16]
   851b4:	a94217e4 	ldp	x4, x5, [sp, #32]
   851b8:	a9431fe6 	ldp	x6, x7, [sp, #48]
   851bc:	a94427e8 	ldp	x8, x9, [sp, #64]
   851c0:	a9452fea 	ldp	x10, x11, [sp, #80]
   851c4:	a94637ec 	ldp	x12, x13, [sp, #96]
   851c8:	a9473fee 	ldp	x14, x15, [sp, #112]
   851cc:	a94847f0 	ldp	x16, x17, [sp, #128]
   851d0:	a9494ff2 	ldp	x18, x19, [sp, #144]
   851d4:	a94a57f4 	ldp	x20, x21, [sp, #160]
   851d8:	a94b5ff6 	ldp	x22, x23, [sp, #176]
   851dc:	a94c67f8 	ldp	x24, x25, [sp, #192]
   851e0:	a94d6ffa 	ldp	x26, x27, [sp, #208]
   851e4:	a94e77fc 	ldp	x28, x29, [sp, #224]
   851e8:	f9407bfe 	ldr	x30, [sp, #240]
   851ec:	910403ff 	add	sp, sp, #0x100
   851f0:	d69f03e0 	eret

00000000000851f4 <sync_invalid_el1h>:
   851f4:	d10403ff 	sub	sp, sp, #0x100
   851f8:	a90007e0 	stp	x0, x1, [sp]
   851fc:	a9010fe2 	stp	x2, x3, [sp, #16]
   85200:	a90217e4 	stp	x4, x5, [sp, #32]
   85204:	a9031fe6 	stp	x6, x7, [sp, #48]
   85208:	a90427e8 	stp	x8, x9, [sp, #64]
   8520c:	a9052fea 	stp	x10, x11, [sp, #80]
   85210:	a90637ec 	stp	x12, x13, [sp, #96]
   85214:	a9073fee 	stp	x14, x15, [sp, #112]
   85218:	a90847f0 	stp	x16, x17, [sp, #128]
   8521c:	a9094ff2 	stp	x18, x19, [sp, #144]
   85220:	a90a57f4 	stp	x20, x21, [sp, #160]
   85224:	a90b5ff6 	stp	x22, x23, [sp, #176]
   85228:	a90c67f8 	stp	x24, x25, [sp, #192]
   8522c:	a90d6ffa 	stp	x26, x27, [sp, #208]
   85230:	a90e77fc 	stp	x28, x29, [sp, #224]
   85234:	f9007bfe 	str	x30, [sp, #240]
   85238:	d2800080 	mov	x0, #0x4                   	// #4
   8523c:	d5385201 	mrs	x1, esr_el1
   85240:	d5384022 	mrs	x2, elr_el1
   85244:	97ffed37 	bl	80720 <show_invalid_entry_message>
   85248:	a94007e0 	ldp	x0, x1, [sp]
   8524c:	a9410fe2 	ldp	x2, x3, [sp, #16]
   85250:	a94217e4 	ldp	x4, x5, [sp, #32]
   85254:	a9431fe6 	ldp	x6, x7, [sp, #48]
   85258:	a94427e8 	ldp	x8, x9, [sp, #64]
   8525c:	a9452fea 	ldp	x10, x11, [sp, #80]
   85260:	a94637ec 	ldp	x12, x13, [sp, #96]
   85264:	a9473fee 	ldp	x14, x15, [sp, #112]
   85268:	a94847f0 	ldp	x16, x17, [sp, #128]
   8526c:	a9494ff2 	ldp	x18, x19, [sp, #144]
   85270:	a94a57f4 	ldp	x20, x21, [sp, #160]
   85274:	a94b5ff6 	ldp	x22, x23, [sp, #176]
   85278:	a94c67f8 	ldp	x24, x25, [sp, #192]
   8527c:	a94d6ffa 	ldp	x26, x27, [sp, #208]
   85280:	a94e77fc 	ldp	x28, x29, [sp, #224]
   85284:	f9407bfe 	ldr	x30, [sp, #240]
   85288:	910403ff 	add	sp, sp, #0x100
   8528c:	d69f03e0 	eret

0000000000085290 <irq_invalid_el1h>:
   85290:	d10403ff 	sub	sp, sp, #0x100
   85294:	a90007e0 	stp	x0, x1, [sp]
   85298:	a9010fe2 	stp	x2, x3, [sp, #16]
   8529c:	a90217e4 	stp	x4, x5, [sp, #32]
   852a0:	a9031fe6 	stp	x6, x7, [sp, #48]
   852a4:	a90427e8 	stp	x8, x9, [sp, #64]
   852a8:	a9052fea 	stp	x10, x11, [sp, #80]
   852ac:	a90637ec 	stp	x12, x13, [sp, #96]
   852b0:	a9073fee 	stp	x14, x15, [sp, #112]
   852b4:	a90847f0 	stp	x16, x17, [sp, #128]
   852b8:	a9094ff2 	stp	x18, x19, [sp, #144]
   852bc:	a90a57f4 	stp	x20, x21, [sp, #160]
   852c0:	a90b5ff6 	stp	x22, x23, [sp, #176]
   852c4:	a90c67f8 	stp	x24, x25, [sp, #192]
   852c8:	a90d6ffa 	stp	x26, x27, [sp, #208]
   852cc:	a90e77fc 	stp	x28, x29, [sp, #224]
   852d0:	f9007bfe 	str	x30, [sp, #240]
   852d4:	d28000a0 	mov	x0, #0x5                   	// #5
   852d8:	d5385201 	mrs	x1, esr_el1
   852dc:	d5384022 	mrs	x2, elr_el1
   852e0:	97ffed10 	bl	80720 <show_invalid_entry_message>
   852e4:	a94007e0 	ldp	x0, x1, [sp]
   852e8:	a9410fe2 	ldp	x2, x3, [sp, #16]
   852ec:	a94217e4 	ldp	x4, x5, [sp, #32]
   852f0:	a9431fe6 	ldp	x6, x7, [sp, #48]
   852f4:	a94427e8 	ldp	x8, x9, [sp, #64]
   852f8:	a9452fea 	ldp	x10, x11, [sp, #80]
   852fc:	a94637ec 	ldp	x12, x13, [sp, #96]
   85300:	a9473fee 	ldp	x14, x15, [sp, #112]
   85304:	a94847f0 	ldp	x16, x17, [sp, #128]
   85308:	a9494ff2 	ldp	x18, x19, [sp, #144]
   8530c:	a94a57f4 	ldp	x20, x21, [sp, #160]
   85310:	a94b5ff6 	ldp	x22, x23, [sp, #176]
   85314:	a94c67f8 	ldp	x24, x25, [sp, #192]
   85318:	a94d6ffa 	ldp	x26, x27, [sp, #208]
   8531c:	a94e77fc 	ldp	x28, x29, [sp, #224]
   85320:	f9407bfe 	ldr	x30, [sp, #240]
   85324:	910403ff 	add	sp, sp, #0x100
   85328:	d69f03e0 	eret

000000000008532c <fiq_invalid_el1h>:
   8532c:	d10403ff 	sub	sp, sp, #0x100
   85330:	a90007e0 	stp	x0, x1, [sp]
   85334:	a9010fe2 	stp	x2, x3, [sp, #16]
   85338:	a90217e4 	stp	x4, x5, [sp, #32]
   8533c:	a9031fe6 	stp	x6, x7, [sp, #48]
   85340:	a90427e8 	stp	x8, x9, [sp, #64]
   85344:	a9052fea 	stp	x10, x11, [sp, #80]
   85348:	a90637ec 	stp	x12, x13, [sp, #96]
   8534c:	a9073fee 	stp	x14, x15, [sp, #112]
   85350:	a90847f0 	stp	x16, x17, [sp, #128]
   85354:	a9094ff2 	stp	x18, x19, [sp, #144]
   85358:	a90a57f4 	stp	x20, x21, [sp, #160]
   8535c:	a90b5ff6 	stp	x22, x23, [sp, #176]
   85360:	a90c67f8 	stp	x24, x25, [sp, #192]
   85364:	a90d6ffa 	stp	x26, x27, [sp, #208]
   85368:	a90e77fc 	stp	x28, x29, [sp, #224]
   8536c:	f9007bfe 	str	x30, [sp, #240]
   85370:	d28000c0 	mov	x0, #0x6                   	// #6
   85374:	d5385201 	mrs	x1, esr_el1
   85378:	d5384022 	mrs	x2, elr_el1
   8537c:	97ffece9 	bl	80720 <show_invalid_entry_message>
   85380:	a94007e0 	ldp	x0, x1, [sp]
   85384:	a9410fe2 	ldp	x2, x3, [sp, #16]
   85388:	a94217e4 	ldp	x4, x5, [sp, #32]
   8538c:	a9431fe6 	ldp	x6, x7, [sp, #48]
   85390:	a94427e8 	ldp	x8, x9, [sp, #64]
   85394:	a9452fea 	ldp	x10, x11, [sp, #80]
   85398:	a94637ec 	ldp	x12, x13, [sp, #96]
   8539c:	a9473fee 	ldp	x14, x15, [sp, #112]
   853a0:	a94847f0 	ldp	x16, x17, [sp, #128]
   853a4:	a9494ff2 	ldp	x18, x19, [sp, #144]
   853a8:	a94a57f4 	ldp	x20, x21, [sp, #160]
   853ac:	a94b5ff6 	ldp	x22, x23, [sp, #176]
   853b0:	a94c67f8 	ldp	x24, x25, [sp, #192]
   853b4:	a94d6ffa 	ldp	x26, x27, [sp, #208]
   853b8:	a94e77fc 	ldp	x28, x29, [sp, #224]
   853bc:	f9407bfe 	ldr	x30, [sp, #240]
   853c0:	910403ff 	add	sp, sp, #0x100
   853c4:	d69f03e0 	eret

00000000000853c8 <error_invalid_el1h>:
   853c8:	d10403ff 	sub	sp, sp, #0x100
   853cc:	a90007e0 	stp	x0, x1, [sp]
   853d0:	a9010fe2 	stp	x2, x3, [sp, #16]
   853d4:	a90217e4 	stp	x4, x5, [sp, #32]
   853d8:	a9031fe6 	stp	x6, x7, [sp, #48]
   853dc:	a90427e8 	stp	x8, x9, [sp, #64]
   853e0:	a9052fea 	stp	x10, x11, [sp, #80]
   853e4:	a90637ec 	stp	x12, x13, [sp, #96]
   853e8:	a9073fee 	stp	x14, x15, [sp, #112]
   853ec:	a90847f0 	stp	x16, x17, [sp, #128]
   853f0:	a9094ff2 	stp	x18, x19, [sp, #144]
   853f4:	a90a57f4 	stp	x20, x21, [sp, #160]
   853f8:	a90b5ff6 	stp	x22, x23, [sp, #176]
   853fc:	a90c67f8 	stp	x24, x25, [sp, #192]
   85400:	a90d6ffa 	stp	x26, x27, [sp, #208]
   85404:	a90e77fc 	stp	x28, x29, [sp, #224]
   85408:	f9007bfe 	str	x30, [sp, #240]
   8540c:	d28000e0 	mov	x0, #0x7                   	// #7
   85410:	d5385201 	mrs	x1, esr_el1
   85414:	d5384022 	mrs	x2, elr_el1
   85418:	97ffecc2 	bl	80720 <show_invalid_entry_message>
   8541c:	a94007e0 	ldp	x0, x1, [sp]
   85420:	a9410fe2 	ldp	x2, x3, [sp, #16]
   85424:	a94217e4 	ldp	x4, x5, [sp, #32]
   85428:	a9431fe6 	ldp	x6, x7, [sp, #48]
   8542c:	a94427e8 	ldp	x8, x9, [sp, #64]
   85430:	a9452fea 	ldp	x10, x11, [sp, #80]
   85434:	a94637ec 	ldp	x12, x13, [sp, #96]
   85438:	a9473fee 	ldp	x14, x15, [sp, #112]
   8543c:	a94847f0 	ldp	x16, x17, [sp, #128]
   85440:	a9494ff2 	ldp	x18, x19, [sp, #144]
   85444:	a94a57f4 	ldp	x20, x21, [sp, #160]
   85448:	a94b5ff6 	ldp	x22, x23, [sp, #176]
   8544c:	a94c67f8 	ldp	x24, x25, [sp, #192]
   85450:	a94d6ffa 	ldp	x26, x27, [sp, #208]
   85454:	a94e77fc 	ldp	x28, x29, [sp, #224]
   85458:	f9407bfe 	ldr	x30, [sp, #240]
   8545c:	910403ff 	add	sp, sp, #0x100
   85460:	d69f03e0 	eret

0000000000085464 <sync_invalid_el0_64>:
   85464:	d10403ff 	sub	sp, sp, #0x100
   85468:	a90007e0 	stp	x0, x1, [sp]
   8546c:	a9010fe2 	stp	x2, x3, [sp, #16]
   85470:	a90217e4 	stp	x4, x5, [sp, #32]
   85474:	a9031fe6 	stp	x6, x7, [sp, #48]
   85478:	a90427e8 	stp	x8, x9, [sp, #64]
   8547c:	a9052fea 	stp	x10, x11, [sp, #80]
   85480:	a90637ec 	stp	x12, x13, [sp, #96]
   85484:	a9073fee 	stp	x14, x15, [sp, #112]
   85488:	a90847f0 	stp	x16, x17, [sp, #128]
   8548c:	a9094ff2 	stp	x18, x19, [sp, #144]
   85490:	a90a57f4 	stp	x20, x21, [sp, #160]
   85494:	a90b5ff6 	stp	x22, x23, [sp, #176]
   85498:	a90c67f8 	stp	x24, x25, [sp, #192]
   8549c:	a90d6ffa 	stp	x26, x27, [sp, #208]
   854a0:	a90e77fc 	stp	x28, x29, [sp, #224]
   854a4:	f9007bfe 	str	x30, [sp, #240]
   854a8:	97ffeccf 	bl	807e4 <exception_handler>
   854ac:	a94007e0 	ldp	x0, x1, [sp]
   854b0:	a9410fe2 	ldp	x2, x3, [sp, #16]
   854b4:	a94217e4 	ldp	x4, x5, [sp, #32]
   854b8:	a9431fe6 	ldp	x6, x7, [sp, #48]
   854bc:	a94427e8 	ldp	x8, x9, [sp, #64]
   854c0:	a9452fea 	ldp	x10, x11, [sp, #80]
   854c4:	a94637ec 	ldp	x12, x13, [sp, #96]
   854c8:	a9473fee 	ldp	x14, x15, [sp, #112]
   854cc:	a94847f0 	ldp	x16, x17, [sp, #128]
   854d0:	a9494ff2 	ldp	x18, x19, [sp, #144]
   854d4:	a94a57f4 	ldp	x20, x21, [sp, #160]
   854d8:	a94b5ff6 	ldp	x22, x23, [sp, #176]
   854dc:	a94c67f8 	ldp	x24, x25, [sp, #192]
   854e0:	a94d6ffa 	ldp	x26, x27, [sp, #208]
   854e4:	a94e77fc 	ldp	x28, x29, [sp, #224]
   854e8:	f9407bfe 	ldr	x30, [sp, #240]
   854ec:	910403ff 	add	sp, sp, #0x100
   854f0:	d69f03e0 	eret

00000000000854f4 <irq_invalid_el0_64>:
   854f4:	d10403ff 	sub	sp, sp, #0x100
   854f8:	a90007e0 	stp	x0, x1, [sp]
   854fc:	a9010fe2 	stp	x2, x3, [sp, #16]
   85500:	a90217e4 	stp	x4, x5, [sp, #32]
   85504:	a9031fe6 	stp	x6, x7, [sp, #48]
   85508:	a90427e8 	stp	x8, x9, [sp, #64]
   8550c:	a9052fea 	stp	x10, x11, [sp, #80]
   85510:	a90637ec 	stp	x12, x13, [sp, #96]
   85514:	a9073fee 	stp	x14, x15, [sp, #112]
   85518:	a90847f0 	stp	x16, x17, [sp, #128]
   8551c:	a9094ff2 	stp	x18, x19, [sp, #144]
   85520:	a90a57f4 	stp	x20, x21, [sp, #160]
   85524:	a90b5ff6 	stp	x22, x23, [sp, #176]
   85528:	a90c67f8 	stp	x24, x25, [sp, #192]
   8552c:	a90d6ffa 	stp	x26, x27, [sp, #208]
   85530:	a90e77fc 	stp	x28, x29, [sp, #224]
   85534:	f9007bfe 	str	x30, [sp, #240]
   85538:	97ffeeda 	bl	810a0 <irq_handler>
   8553c:	a94007e0 	ldp	x0, x1, [sp]
   85540:	a9410fe2 	ldp	x2, x3, [sp, #16]
   85544:	a94217e4 	ldp	x4, x5, [sp, #32]
   85548:	a9431fe6 	ldp	x6, x7, [sp, #48]
   8554c:	a94427e8 	ldp	x8, x9, [sp, #64]
   85550:	a9452fea 	ldp	x10, x11, [sp, #80]
   85554:	a94637ec 	ldp	x12, x13, [sp, #96]
   85558:	a9473fee 	ldp	x14, x15, [sp, #112]
   8555c:	a94847f0 	ldp	x16, x17, [sp, #128]
   85560:	a9494ff2 	ldp	x18, x19, [sp, #144]
   85564:	a94a57f4 	ldp	x20, x21, [sp, #160]
   85568:	a94b5ff6 	ldp	x22, x23, [sp, #176]
   8556c:	a94c67f8 	ldp	x24, x25, [sp, #192]
   85570:	a94d6ffa 	ldp	x26, x27, [sp, #208]
   85574:	a94e77fc 	ldp	x28, x29, [sp, #224]
   85578:	f9407bfe 	ldr	x30, [sp, #240]
   8557c:	910403ff 	add	sp, sp, #0x100
   85580:	d69f03e0 	eret

0000000000085584 <fiq_invalid_el0_64>:
   85584:	d10403ff 	sub	sp, sp, #0x100
   85588:	a90007e0 	stp	x0, x1, [sp]
   8558c:	a9010fe2 	stp	x2, x3, [sp, #16]
   85590:	a90217e4 	stp	x4, x5, [sp, #32]
   85594:	a9031fe6 	stp	x6, x7, [sp, #48]
   85598:	a90427e8 	stp	x8, x9, [sp, #64]
   8559c:	a9052fea 	stp	x10, x11, [sp, #80]
   855a0:	a90637ec 	stp	x12, x13, [sp, #96]
   855a4:	a9073fee 	stp	x14, x15, [sp, #112]
   855a8:	a90847f0 	stp	x16, x17, [sp, #128]
   855ac:	a9094ff2 	stp	x18, x19, [sp, #144]
   855b0:	a90a57f4 	stp	x20, x21, [sp, #160]
   855b4:	a90b5ff6 	stp	x22, x23, [sp, #176]
   855b8:	a90c67f8 	stp	x24, x25, [sp, #192]
   855bc:	a90d6ffa 	stp	x26, x27, [sp, #208]
   855c0:	a90e77fc 	stp	x28, x29, [sp, #224]
   855c4:	f9007bfe 	str	x30, [sp, #240]
   855c8:	d2800140 	mov	x0, #0xa                   	// #10
   855cc:	d5385201 	mrs	x1, esr_el1
   855d0:	d5384022 	mrs	x2, elr_el1
   855d4:	97ffec53 	bl	80720 <show_invalid_entry_message>
   855d8:	a94007e0 	ldp	x0, x1, [sp]
   855dc:	a9410fe2 	ldp	x2, x3, [sp, #16]
   855e0:	a94217e4 	ldp	x4, x5, [sp, #32]
   855e4:	a9431fe6 	ldp	x6, x7, [sp, #48]
   855e8:	a94427e8 	ldp	x8, x9, [sp, #64]
   855ec:	a9452fea 	ldp	x10, x11, [sp, #80]
   855f0:	a94637ec 	ldp	x12, x13, [sp, #96]
   855f4:	a9473fee 	ldp	x14, x15, [sp, #112]
   855f8:	a94847f0 	ldp	x16, x17, [sp, #128]
   855fc:	a9494ff2 	ldp	x18, x19, [sp, #144]
   85600:	a94a57f4 	ldp	x20, x21, [sp, #160]
   85604:	a94b5ff6 	ldp	x22, x23, [sp, #176]
   85608:	a94c67f8 	ldp	x24, x25, [sp, #192]
   8560c:	a94d6ffa 	ldp	x26, x27, [sp, #208]
   85610:	a94e77fc 	ldp	x28, x29, [sp, #224]
   85614:	f9407bfe 	ldr	x30, [sp, #240]
   85618:	910403ff 	add	sp, sp, #0x100
   8561c:	d69f03e0 	eret

0000000000085620 <error_invalid_el0_64>:
   85620:	d10403ff 	sub	sp, sp, #0x100
   85624:	a90007e0 	stp	x0, x1, [sp]
   85628:	a9010fe2 	stp	x2, x3, [sp, #16]
   8562c:	a90217e4 	stp	x4, x5, [sp, #32]
   85630:	a9031fe6 	stp	x6, x7, [sp, #48]
   85634:	a90427e8 	stp	x8, x9, [sp, #64]
   85638:	a9052fea 	stp	x10, x11, [sp, #80]
   8563c:	a90637ec 	stp	x12, x13, [sp, #96]
   85640:	a9073fee 	stp	x14, x15, [sp, #112]
   85644:	a90847f0 	stp	x16, x17, [sp, #128]
   85648:	a9094ff2 	stp	x18, x19, [sp, #144]
   8564c:	a90a57f4 	stp	x20, x21, [sp, #160]
   85650:	a90b5ff6 	stp	x22, x23, [sp, #176]
   85654:	a90c67f8 	stp	x24, x25, [sp, #192]
   85658:	a90d6ffa 	stp	x26, x27, [sp, #208]
   8565c:	a90e77fc 	stp	x28, x29, [sp, #224]
   85660:	f9007bfe 	str	x30, [sp, #240]
   85664:	d2800160 	mov	x0, #0xb                   	// #11
   85668:	d5385201 	mrs	x1, esr_el1
   8566c:	d5384022 	mrs	x2, elr_el1
   85670:	97ffec2c 	bl	80720 <show_invalid_entry_message>
   85674:	a94007e0 	ldp	x0, x1, [sp]
   85678:	a9410fe2 	ldp	x2, x3, [sp, #16]
   8567c:	a94217e4 	ldp	x4, x5, [sp, #32]
   85680:	a9431fe6 	ldp	x6, x7, [sp, #48]
   85684:	a94427e8 	ldp	x8, x9, [sp, #64]
   85688:	a9452fea 	ldp	x10, x11, [sp, #80]
   8568c:	a94637ec 	ldp	x12, x13, [sp, #96]
   85690:	a9473fee 	ldp	x14, x15, [sp, #112]
   85694:	a94847f0 	ldp	x16, x17, [sp, #128]
   85698:	a9494ff2 	ldp	x18, x19, [sp, #144]
   8569c:	a94a57f4 	ldp	x20, x21, [sp, #160]
   856a0:	a94b5ff6 	ldp	x22, x23, [sp, #176]
   856a4:	a94c67f8 	ldp	x24, x25, [sp, #192]
   856a8:	a94d6ffa 	ldp	x26, x27, [sp, #208]
   856ac:	a94e77fc 	ldp	x28, x29, [sp, #224]
   856b0:	f9407bfe 	ldr	x30, [sp, #240]
   856b4:	910403ff 	add	sp, sp, #0x100
   856b8:	d69f03e0 	eret

00000000000856bc <sync_invalid_el0_32>:
   856bc:	d10403ff 	sub	sp, sp, #0x100
   856c0:	a90007e0 	stp	x0, x1, [sp]
   856c4:	a9010fe2 	stp	x2, x3, [sp, #16]
   856c8:	a90217e4 	stp	x4, x5, [sp, #32]
   856cc:	a9031fe6 	stp	x6, x7, [sp, #48]
   856d0:	a90427e8 	stp	x8, x9, [sp, #64]
   856d4:	a9052fea 	stp	x10, x11, [sp, #80]
   856d8:	a90637ec 	stp	x12, x13, [sp, #96]
   856dc:	a9073fee 	stp	x14, x15, [sp, #112]
   856e0:	a90847f0 	stp	x16, x17, [sp, #128]
   856e4:	a9094ff2 	stp	x18, x19, [sp, #144]
   856e8:	a90a57f4 	stp	x20, x21, [sp, #160]
   856ec:	a90b5ff6 	stp	x22, x23, [sp, #176]
   856f0:	a90c67f8 	stp	x24, x25, [sp, #192]
   856f4:	a90d6ffa 	stp	x26, x27, [sp, #208]
   856f8:	a90e77fc 	stp	x28, x29, [sp, #224]
   856fc:	f9007bfe 	str	x30, [sp, #240]
   85700:	d2800180 	mov	x0, #0xc                   	// #12
   85704:	d5385201 	mrs	x1, esr_el1
   85708:	d5384022 	mrs	x2, elr_el1
   8570c:	97ffec05 	bl	80720 <show_invalid_entry_message>
   85710:	a94007e0 	ldp	x0, x1, [sp]
   85714:	a9410fe2 	ldp	x2, x3, [sp, #16]
   85718:	a94217e4 	ldp	x4, x5, [sp, #32]
   8571c:	a9431fe6 	ldp	x6, x7, [sp, #48]
   85720:	a94427e8 	ldp	x8, x9, [sp, #64]
   85724:	a9452fea 	ldp	x10, x11, [sp, #80]
   85728:	a94637ec 	ldp	x12, x13, [sp, #96]
   8572c:	a9473fee 	ldp	x14, x15, [sp, #112]
   85730:	a94847f0 	ldp	x16, x17, [sp, #128]
   85734:	a9494ff2 	ldp	x18, x19, [sp, #144]
   85738:	a94a57f4 	ldp	x20, x21, [sp, #160]
   8573c:	a94b5ff6 	ldp	x22, x23, [sp, #176]
   85740:	a94c67f8 	ldp	x24, x25, [sp, #192]
   85744:	a94d6ffa 	ldp	x26, x27, [sp, #208]
   85748:	a94e77fc 	ldp	x28, x29, [sp, #224]
   8574c:	f9407bfe 	ldr	x30, [sp, #240]
   85750:	910403ff 	add	sp, sp, #0x100
   85754:	d69f03e0 	eret

0000000000085758 <irq_invalid_el0_32>:
   85758:	d10403ff 	sub	sp, sp, #0x100
   8575c:	a90007e0 	stp	x0, x1, [sp]
   85760:	a9010fe2 	stp	x2, x3, [sp, #16]
   85764:	a90217e4 	stp	x4, x5, [sp, #32]
   85768:	a9031fe6 	stp	x6, x7, [sp, #48]
   8576c:	a90427e8 	stp	x8, x9, [sp, #64]
   85770:	a9052fea 	stp	x10, x11, [sp, #80]
   85774:	a90637ec 	stp	x12, x13, [sp, #96]
   85778:	a9073fee 	stp	x14, x15, [sp, #112]
   8577c:	a90847f0 	stp	x16, x17, [sp, #128]
   85780:	a9094ff2 	stp	x18, x19, [sp, #144]
   85784:	a90a57f4 	stp	x20, x21, [sp, #160]
   85788:	a90b5ff6 	stp	x22, x23, [sp, #176]
   8578c:	a90c67f8 	stp	x24, x25, [sp, #192]
   85790:	a90d6ffa 	stp	x26, x27, [sp, #208]
   85794:	a90e77fc 	stp	x28, x29, [sp, #224]
   85798:	f9007bfe 	str	x30, [sp, #240]
   8579c:	d28001a0 	mov	x0, #0xd                   	// #13
   857a0:	d5385201 	mrs	x1, esr_el1
   857a4:	d5384022 	mrs	x2, elr_el1
   857a8:	97ffebde 	bl	80720 <show_invalid_entry_message>
   857ac:	a94007e0 	ldp	x0, x1, [sp]
   857b0:	a9410fe2 	ldp	x2, x3, [sp, #16]
   857b4:	a94217e4 	ldp	x4, x5, [sp, #32]
   857b8:	a9431fe6 	ldp	x6, x7, [sp, #48]
   857bc:	a94427e8 	ldp	x8, x9, [sp, #64]
   857c0:	a9452fea 	ldp	x10, x11, [sp, #80]
   857c4:	a94637ec 	ldp	x12, x13, [sp, #96]
   857c8:	a9473fee 	ldp	x14, x15, [sp, #112]
   857cc:	a94847f0 	ldp	x16, x17, [sp, #128]
   857d0:	a9494ff2 	ldp	x18, x19, [sp, #144]
   857d4:	a94a57f4 	ldp	x20, x21, [sp, #160]
   857d8:	a94b5ff6 	ldp	x22, x23, [sp, #176]
   857dc:	a94c67f8 	ldp	x24, x25, [sp, #192]
   857e0:	a94d6ffa 	ldp	x26, x27, [sp, #208]
   857e4:	a94e77fc 	ldp	x28, x29, [sp, #224]
   857e8:	f9407bfe 	ldr	x30, [sp, #240]
   857ec:	910403ff 	add	sp, sp, #0x100
   857f0:	d69f03e0 	eret

00000000000857f4 <fiq_invalid_el0_32>:
   857f4:	d10403ff 	sub	sp, sp, #0x100
   857f8:	a90007e0 	stp	x0, x1, [sp]
   857fc:	a9010fe2 	stp	x2, x3, [sp, #16]
   85800:	a90217e4 	stp	x4, x5, [sp, #32]
   85804:	a9031fe6 	stp	x6, x7, [sp, #48]
   85808:	a90427e8 	stp	x8, x9, [sp, #64]
   8580c:	a9052fea 	stp	x10, x11, [sp, #80]
   85810:	a90637ec 	stp	x12, x13, [sp, #96]
   85814:	a9073fee 	stp	x14, x15, [sp, #112]
   85818:	a90847f0 	stp	x16, x17, [sp, #128]
   8581c:	a9094ff2 	stp	x18, x19, [sp, #144]
   85820:	a90a57f4 	stp	x20, x21, [sp, #160]
   85824:	a90b5ff6 	stp	x22, x23, [sp, #176]
   85828:	a90c67f8 	stp	x24, x25, [sp, #192]
   8582c:	a90d6ffa 	stp	x26, x27, [sp, #208]
   85830:	a90e77fc 	stp	x28, x29, [sp, #224]
   85834:	f9007bfe 	str	x30, [sp, #240]
   85838:	d28001c0 	mov	x0, #0xe                   	// #14
   8583c:	d5385201 	mrs	x1, esr_el1
   85840:	d5384022 	mrs	x2, elr_el1
   85844:	97ffebb7 	bl	80720 <show_invalid_entry_message>
   85848:	a94007e0 	ldp	x0, x1, [sp]
   8584c:	a9410fe2 	ldp	x2, x3, [sp, #16]
   85850:	a94217e4 	ldp	x4, x5, [sp, #32]
   85854:	a9431fe6 	ldp	x6, x7, [sp, #48]
   85858:	a94427e8 	ldp	x8, x9, [sp, #64]
   8585c:	a9452fea 	ldp	x10, x11, [sp, #80]
   85860:	a94637ec 	ldp	x12, x13, [sp, #96]
   85864:	a9473fee 	ldp	x14, x15, [sp, #112]
   85868:	a94847f0 	ldp	x16, x17, [sp, #128]
   8586c:	a9494ff2 	ldp	x18, x19, [sp, #144]
   85870:	a94a57f4 	ldp	x20, x21, [sp, #160]
   85874:	a94b5ff6 	ldp	x22, x23, [sp, #176]
   85878:	a94c67f8 	ldp	x24, x25, [sp, #192]
   8587c:	a94d6ffa 	ldp	x26, x27, [sp, #208]
   85880:	a94e77fc 	ldp	x28, x29, [sp, #224]
   85884:	f9407bfe 	ldr	x30, [sp, #240]
   85888:	910403ff 	add	sp, sp, #0x100
   8588c:	d69f03e0 	eret

0000000000085890 <error_invalid_el0_32>:
   85890:	d10403ff 	sub	sp, sp, #0x100
   85894:	a90007e0 	stp	x0, x1, [sp]
   85898:	a9010fe2 	stp	x2, x3, [sp, #16]
   8589c:	a90217e4 	stp	x4, x5, [sp, #32]
   858a0:	a9031fe6 	stp	x6, x7, [sp, #48]
   858a4:	a90427e8 	stp	x8, x9, [sp, #64]
   858a8:	a9052fea 	stp	x10, x11, [sp, #80]
   858ac:	a90637ec 	stp	x12, x13, [sp, #96]
   858b0:	a9073fee 	stp	x14, x15, [sp, #112]
   858b4:	a90847f0 	stp	x16, x17, [sp, #128]
   858b8:	a9094ff2 	stp	x18, x19, [sp, #144]
   858bc:	a90a57f4 	stp	x20, x21, [sp, #160]
   858c0:	a90b5ff6 	stp	x22, x23, [sp, #176]
   858c4:	a90c67f8 	stp	x24, x25, [sp, #192]
   858c8:	a90d6ffa 	stp	x26, x27, [sp, #208]
   858cc:	a90e77fc 	stp	x28, x29, [sp, #224]
   858d0:	f9007bfe 	str	x30, [sp, #240]
   858d4:	d28001e0 	mov	x0, #0xf                   	// #15
   858d8:	d5385201 	mrs	x1, esr_el1
   858dc:	d5384022 	mrs	x2, elr_el1
   858e0:	97ffeb90 	bl	80720 <show_invalid_entry_message>
   858e4:	a94007e0 	ldp	x0, x1, [sp]
   858e8:	a9410fe2 	ldp	x2, x3, [sp, #16]
   858ec:	a94217e4 	ldp	x4, x5, [sp, #32]
   858f0:	a9431fe6 	ldp	x6, x7, [sp, #48]
   858f4:	a94427e8 	ldp	x8, x9, [sp, #64]
   858f8:	a9452fea 	ldp	x10, x11, [sp, #80]
   858fc:	a94637ec 	ldp	x12, x13, [sp, #96]
   85900:	a9473fee 	ldp	x14, x15, [sp, #112]
   85904:	a94847f0 	ldp	x16, x17, [sp, #128]
   85908:	a9494ff2 	ldp	x18, x19, [sp, #144]
   8590c:	a94a57f4 	ldp	x20, x21, [sp, #160]
   85910:	a94b5ff6 	ldp	x22, x23, [sp, #176]
   85914:	a94c67f8 	ldp	x24, x25, [sp, #192]
   85918:	a94d6ffa 	ldp	x26, x27, [sp, #208]
   8591c:	a94e77fc 	ldp	x28, x29, [sp, #224]
   85920:	f9407bfe 	ldr	x30, [sp, #240]
   85924:	910403ff 	add	sp, sp, #0x100
   85928:	d69f03e0 	eret

000000000008592c <err_hang>:
   8592c:	14000000 	b	8592c <err_hang>

0000000000085930 <init_irq>:
   85930:	d53c1100 	mrs	x0, hcr_el2
   85934:	b27c0000 	orr	x0, x0, #0x10
   85938:	d51c1100 	msr	hcr_el2, x0
   8593c:	d65f03c0 	ret

0000000000085940 <enable_irq>:
   85940:	d5034fff 	msr	daifclr, #0xf
   85944:	d65f03c0 	ret

0000000000085948 <disable_irq>:
   85948:	d5034fdf 	msr	daifset, #0xf
   8594c:	d65f03c0 	ret

0000000000085950 <memzero>:
   85950:	f800841f 	str	xzr, [x0], #8
   85954:	f1002021 	subs	x1, x1, #0x8
   85958:	54ffffcc 	b.gt	85950 <memzero>
   8595c:	d65f03c0 	ret

0000000000085960 <sys_core_timer_enable>:
   85960:	d2800020 	mov	x0, #0x1                   	// #1
   85964:	d51be220 	msr	cntp_ctl_el0, x0
   85968:	d53be000 	mrs	x0, cntfrq_el0
   8596c:	d51be200 	msr	cntp_tval_el0, x0
   85970:	d2800040 	mov	x0, #0x2                   	// #2
   85974:	58000121 	ldr	x1, 85998 <bh_core_timer_handler+0xc>
   85978:	f9000020 	str	x0, [x1]
   8597c:	d65f03c0 	ret

0000000000085980 <core_timer_handler>:
   85980:	d53be000 	mrs	x0, cntfrq_el0
   85984:	d51be200 	msr	cntp_tval_el0, x0
   85988:	d65f03c0 	ret

000000000008598c <bh_core_timer_handler>:
   8598c:	d2a11e00 	mov	x0, #0x8f00000             	// #149946368
   85990:	d51be200 	msr	cntp_tval_el0, x0
   85994:	d65f03c0 	ret
   85998:	40000040 	.word	0x40000040
   8599c:	00000000 	.word	0x00000000
