
kernel8.elf:     file format elf64-littleaarch64


Disassembly of section .text:

0000000000080000 <__stack_top>:
   80000:	d53800a0 	mrs	x0, mpidr_el1
   80004:	92400400 	and	x0, x0, #0x3
   80008:	b4000060 	cbz	x0, 80014 <continue>

000000000008000c <hang>:
   8000c:	d503205f 	wfe
   80010:	17ffffff 	b	8000c <hang>

0000000000080014 <continue>:
   80014:	580003a0 	ldr	x0, 80088 <kernel_entry+0x8>
   80018:	9100001f 	mov	sp, x0
   8001c:	10032ea0 	adr	x0, 865f0 <task_ptr>
   80020:	1046ae41 	adr	x1, 10d5e8 <copy_and_load>
   80024:	940014d6 	bl	8537c <memzero>
   80028:	58000340 	ldr	x0, 80090 <kernel_entry+0x10>
   8002c:	d5181000 	msr	sctlr_el1, x0
   80030:	58000340 	ldr	x0, 80098 <kernel_entry+0x18>
   80034:	d51c1100 	msr	hcr_el2, x0
   80038:	58000340 	ldr	x0, 800a0 <kernel_entry+0x20>
   8003c:	d51c4000 	msr	spsr_el2, x0
   80040:	10000060 	adr	x0, 8004c <el1_entry>
   80044:	d51c4020 	msr	elr_el2, x0
   80048:	d69f03e0 	eret

000000000008004c <el1_entry>:
   8004c:	580001e0 	ldr	x0, 80088 <kernel_entry+0x8>
   80050:	9100001f 	mov	sp, x0
   80054:	580002a0 	ldr	x0, 800a8 <kernel_entry+0x28>
   80058:	d518c000 	msr	vbar_el1, x0
   8005c:	940002c0 	bl	80b5c <init_irq>
   80060:	14000008 	b	80080 <kernel_entry>
   80064:	58000000 	ldr	x0, 80064 <el1_entry+0x18>
   80068:	d5184000 	msr	spsr_el1, x0
   8006c:	10000060 	adr	x0, 80078 <el0_entry>
   80070:	d5184020 	msr	elr_el1, x0
   80074:	d69f03e0 	eret

0000000000080078 <el0_entry>:
   80078:	d2a00800 	mov	x0, #0x400000              	// #4194304
   8007c:	9100001f 	mov	sp, x0

0000000000080080 <kernel_entry>:
   80080:	940002ee 	bl	80c38 <main>
   80084:	00000000 	.inst	0x00000000 ; undefined
   80088:	00080000 	.word	0x00080000
   8008c:	00000000 	.word	0x00000000
   80090:	30d00800 	.word	0x30d00800
   80094:	00000000 	.word	0x00000000
   80098:	80000000 	.word	0x80000000
   8009c:	00000000 	.word	0x00000000
   800a0:	000001c5 	.word	0x000001c5
   800a4:	00000000 	.word	0x00000000
   800a8:	00084000 	.word	0x00084000
   800ac:	00000000 	.word	0x00000000

00000000000800b0 <show_invalid_entry_message>:
   800b0:	a9bd7bfd 	stp	x29, x30, [sp, #-48]!
   800b4:	910003fd 	mov	x29, sp
   800b8:	b9002fe0 	str	w0, [sp, #44]
   800bc:	f90013e1 	str	x1, [sp, #32]
   800c0:	f9000fe2 	str	x2, [sp, #24]
   800c4:	b9402fe0 	ldr	w0, [sp, #44]
   800c8:	3100041f 	cmn	w0, #0x1
   800cc:	54000120 	b.eq	800f0 <show_invalid_entry_message+0x40>  // b.none
   800d0:	d0000020 	adrp	x0, 86000 <delay+0xb88>
   800d4:	f9429800 	ldr	x0, [x0, #1328]
   800d8:	b9802fe1 	ldrsw	x1, [sp, #44]
   800dc:	f8617800 	ldr	x0, [x0, x1, lsl #3]
   800e0:	aa0003e1 	mov	x1, x0
   800e4:	b0000020 	adrp	x0, 85000 <error_invalid_el0_64+0x94>
   800e8:	91182000 	add	x0, x0, #0x608
   800ec:	94000bd1 	bl	83030 <printf>
   800f0:	f94013e0 	ldr	x0, [sp, #32]
   800f4:	d35afc01 	lsr	x1, x0, #26
   800f8:	f94013e0 	ldr	x0, [sp, #32]
   800fc:	92402c00 	and	x0, x0, #0xfff
   80100:	aa0003e3 	mov	x3, x0
   80104:	aa0103e2 	mov	x2, x1
   80108:	f9400fe1 	ldr	x1, [sp, #24]
   8010c:	b0000020 	adrp	x0, 85000 <error_invalid_el0_64+0x94>
   80110:	91186000 	add	x0, x0, #0x618
   80114:	94000bc7 	bl	83030 <printf>
   80118:	d503201f 	nop
   8011c:	a8c37bfd 	ldp	x29, x30, [sp], #48
   80120:	d65f03c0 	ret

0000000000080124 <exception_handler>:
   80124:	a9b97bfd 	stp	x29, x30, [sp, #-112]!
   80128:	910003fd 	mov	x29, sp
   8012c:	f9001fe0 	str	x0, [sp, #56]
   80130:	f9001be1 	str	x1, [sp, #48]
   80134:	f90017e2 	str	x2, [sp, #40]
   80138:	f90013e3 	str	x3, [sp, #32]
   8013c:	f9000fe4 	str	x4, [sp, #24]
   80140:	f9000be5 	str	x5, [sp, #16]
   80144:	d2800020 	mov	x0, #0x1                   	// #1
   80148:	f90037e0 	str	x0, [sp, #104]
   8014c:	aa0803e2 	mov	x2, x8
   80150:	d5384021 	mrs	x1, elr_el1
   80154:	d5385200 	mrs	x0, esr_el1
   80158:	f90033e2 	str	x2, [sp, #96]
   8015c:	f9002fe1 	str	x1, [sp, #88]
   80160:	f9002be0 	str	x0, [sp, #80]
   80164:	f9402be0 	ldr	x0, [sp, #80]
   80168:	d35afc00 	lsr	x0, x0, #26
   8016c:	b9004fe0 	str	w0, [sp, #76]
   80170:	f9402be0 	ldr	x0, [sp, #80]
   80174:	12002c00 	and	w0, w0, #0xfff
   80178:	b9004be0 	str	w0, [sp, #72]
   8017c:	b9404fe0 	ldr	w0, [sp, #76]
   80180:	7100541f 	cmp	w0, #0x15
   80184:	54000341 	b.ne	801ec <exception_handler+0xc8>  // b.any
   80188:	b9404be0 	ldr	w0, [sp, #72]
   8018c:	7100001f 	cmp	w0, #0x0
   80190:	54000321 	b.ne	801f4 <exception_handler+0xd0>  // b.any
   80194:	f94033e1 	ldr	x1, [sp, #96]
   80198:	b0000020 	adrp	x0, 85000 <error_invalid_el0_64+0x94>
   8019c:	911a0000 	add	x0, x0, #0x680
   801a0:	94000ba4 	bl	83030 <printf>
   801a4:	f94033e0 	ldr	x0, [sp, #96]
   801a8:	f9400be6 	ldr	x6, [sp, #16]
   801ac:	f9400fe5 	ldr	x5, [sp, #24]
   801b0:	f94013e4 	ldr	x4, [sp, #32]
   801b4:	f94017e3 	ldr	x3, [sp, #40]
   801b8:	f9401be2 	ldr	x2, [sp, #48]
   801bc:	f9401fe1 	ldr	x1, [sp, #56]
   801c0:	94000c2a 	bl	83268 <syscall>
   801c4:	93407c00 	sxtw	x0, w0
   801c8:	f90037e0 	str	x0, [sp, #104]
   801cc:	f94037e0 	ldr	x0, [sp, #104]
   801d0:	f100001f 	cmp	x0, #0x0
   801d4:	54000100 	b.eq	801f4 <exception_handler+0xd0>  // b.none
   801d8:	f94033e1 	ldr	x1, [sp, #96]
   801dc:	b0000020 	adrp	x0, 85000 <error_invalid_el0_64+0x94>
   801e0:	911a6000 	add	x0, x0, #0x698
   801e4:	94000b93 	bl	83030 <printf>
   801e8:	14000003 	b	801f4 <exception_handler+0xd0>
   801ec:	d503201f 	nop
   801f0:	14000002 	b	801f8 <exception_handler+0xd4>
   801f4:	d503201f 	nop
   801f8:	f94037e0 	ldr	x0, [sp, #104]
   801fc:	f100001f 	cmp	x0, #0x0
   80200:	540000a0 	b.eq	80214 <exception_handler+0xf0>  // b.none
   80204:	f9402fe2 	ldr	x2, [sp, #88]
   80208:	f9402be1 	ldr	x1, [sp, #80]
   8020c:	12800000 	mov	w0, #0xffffffff            	// #-1
   80210:	97ffffa8 	bl	800b0 <show_invalid_entry_message>
   80214:	d503201f 	nop
   80218:	a8c77bfd 	ldp	x29, x30, [sp], #112
   8021c:	d65f03c0 	ret

0000000000080220 <debug>:
   80220:	a9bf7bfd 	stp	x29, x30, [sp, #-16]!
   80224:	910003fd 	mov	x29, sp
   80228:	b0000020 	adrp	x0, 85000 <error_invalid_el0_64+0x94>
   8022c:	911b0000 	add	x0, x0, #0x6c0
   80230:	940005ad 	bl	818e4 <uart_puts>
   80234:	b0000020 	adrp	x0, 85000 <error_invalid_el0_64+0x94>
   80238:	911b2000 	add	x0, x0, #0x6c8
   8023c:	940005aa 	bl	818e4 <uart_puts>
   80240:	d503201f 	nop
   80244:	a8c17bfd 	ldp	x29, x30, [sp], #16
   80248:	d65f03c0 	ret

000000000008024c <get_board_revision>:
   8024c:	a9bf7bfd 	stp	x29, x30, [sp, #-16]!
   80250:	910003fd 	mov	x29, sp
   80254:	d0000020 	adrp	x0, 86000 <delay+0xb88>
   80258:	f9427800 	ldr	x0, [x0, #1264]
   8025c:	52800381 	mov	w1, #0x1c                  	// #28
   80260:	b9000001 	str	w1, [x0]
   80264:	d0000020 	adrp	x0, 86000 <delay+0xb88>
   80268:	f9427800 	ldr	x0, [x0, #1264]
   8026c:	b900041f 	str	wzr, [x0, #4]
   80270:	d0000020 	adrp	x0, 86000 <delay+0xb88>
   80274:	f9427800 	ldr	x0, [x0, #1264]
   80278:	52800041 	mov	w1, #0x2                   	// #2
   8027c:	72a00021 	movk	w1, #0x1, lsl #16
   80280:	b9000801 	str	w1, [x0, #8]
   80284:	d0000020 	adrp	x0, 86000 <delay+0xb88>
   80288:	f9427800 	ldr	x0, [x0, #1264]
   8028c:	52800081 	mov	w1, #0x4                   	// #4
   80290:	b9000c01 	str	w1, [x0, #12]
   80294:	d0000020 	adrp	x0, 86000 <delay+0xb88>
   80298:	f9427800 	ldr	x0, [x0, #1264]
   8029c:	b900101f 	str	wzr, [x0, #16]
   802a0:	d0000020 	adrp	x0, 86000 <delay+0xb88>
   802a4:	f9427800 	ldr	x0, [x0, #1264]
   802a8:	b900141f 	str	wzr, [x0, #20]
   802ac:	d0000020 	adrp	x0, 86000 <delay+0xb88>
   802b0:	f9427800 	ldr	x0, [x0, #1264]
   802b4:	b900181f 	str	wzr, [x0, #24]
   802b8:	52800100 	mov	w0, #0x8                   	// #8
   802bc:	94000536 	bl	81794 <mbox_call>
   802c0:	a8c17bfd 	ldp	x29, x30, [sp], #16
   802c4:	d65f03c0 	ret

00000000000802c8 <get_vc_memaddr>:
   802c8:	a9bf7bfd 	stp	x29, x30, [sp, #-16]!
   802cc:	910003fd 	mov	x29, sp
   802d0:	d0000020 	adrp	x0, 86000 <delay+0xb88>
   802d4:	f9427800 	ldr	x0, [x0, #1264]
   802d8:	52800401 	mov	w1, #0x20                  	// #32
   802dc:	b9000001 	str	w1, [x0]
   802e0:	d0000020 	adrp	x0, 86000 <delay+0xb88>
   802e4:	f9427800 	ldr	x0, [x0, #1264]
   802e8:	b900041f 	str	wzr, [x0, #4]
   802ec:	d0000020 	adrp	x0, 86000 <delay+0xb88>
   802f0:	f9427800 	ldr	x0, [x0, #1264]
   802f4:	528000c1 	mov	w1, #0x6                   	// #6
   802f8:	72a00021 	movk	w1, #0x1, lsl #16
   802fc:	b9000801 	str	w1, [x0, #8]
   80300:	d0000020 	adrp	x0, 86000 <delay+0xb88>
   80304:	f9427800 	ldr	x0, [x0, #1264]
   80308:	52800101 	mov	w1, #0x8                   	// #8
   8030c:	b9000c01 	str	w1, [x0, #12]
   80310:	d0000020 	adrp	x0, 86000 <delay+0xb88>
   80314:	f9427800 	ldr	x0, [x0, #1264]
   80318:	b900101f 	str	wzr, [x0, #16]
   8031c:	d0000020 	adrp	x0, 86000 <delay+0xb88>
   80320:	f9427800 	ldr	x0, [x0, #1264]
   80324:	b900141f 	str	wzr, [x0, #20]
   80328:	d0000020 	adrp	x0, 86000 <delay+0xb88>
   8032c:	f9427800 	ldr	x0, [x0, #1264]
   80330:	b900181f 	str	wzr, [x0, #24]
   80334:	d0000020 	adrp	x0, 86000 <delay+0xb88>
   80338:	f9427800 	ldr	x0, [x0, #1264]
   8033c:	b9001c1f 	str	wzr, [x0, #28]
   80340:	52800100 	mov	w0, #0x8                   	// #8
   80344:	94000514 	bl	81794 <mbox_call>
   80348:	a8c17bfd 	ldp	x29, x30, [sp], #16
   8034c:	d65f03c0 	ret

0000000000080350 <get_arm_memaddr>:
   80350:	a9bf7bfd 	stp	x29, x30, [sp, #-16]!
   80354:	910003fd 	mov	x29, sp
   80358:	d0000020 	adrp	x0, 86000 <delay+0xb88>
   8035c:	f9427800 	ldr	x0, [x0, #1264]
   80360:	52800401 	mov	w1, #0x20                  	// #32
   80364:	b9000001 	str	w1, [x0]
   80368:	d0000020 	adrp	x0, 86000 <delay+0xb88>
   8036c:	f9427800 	ldr	x0, [x0, #1264]
   80370:	b900041f 	str	wzr, [x0, #4]
   80374:	d0000020 	adrp	x0, 86000 <delay+0xb88>
   80378:	f9427800 	ldr	x0, [x0, #1264]
   8037c:	528000a1 	mov	w1, #0x5                   	// #5
   80380:	72a00021 	movk	w1, #0x1, lsl #16
   80384:	b9000801 	str	w1, [x0, #8]
   80388:	d0000020 	adrp	x0, 86000 <delay+0xb88>
   8038c:	f9427800 	ldr	x0, [x0, #1264]
   80390:	52800101 	mov	w1, #0x8                   	// #8
   80394:	b9000c01 	str	w1, [x0, #12]
   80398:	d0000020 	adrp	x0, 86000 <delay+0xb88>
   8039c:	f9427800 	ldr	x0, [x0, #1264]
   803a0:	b900101f 	str	wzr, [x0, #16]
   803a4:	d0000020 	adrp	x0, 86000 <delay+0xb88>
   803a8:	f9427800 	ldr	x0, [x0, #1264]
   803ac:	b900141f 	str	wzr, [x0, #20]
   803b0:	d0000020 	adrp	x0, 86000 <delay+0xb88>
   803b4:	f9427800 	ldr	x0, [x0, #1264]
   803b8:	b900181f 	str	wzr, [x0, #24]
   803bc:	d0000020 	adrp	x0, 86000 <delay+0xb88>
   803c0:	f9427800 	ldr	x0, [x0, #1264]
   803c4:	b9001c1f 	str	wzr, [x0, #28]
   803c8:	52800100 	mov	w0, #0x8                   	// #8
   803cc:	940004f2 	bl	81794 <mbox_call>
   803d0:	a8c17bfd 	ldp	x29, x30, [sp], #16
   803d4:	d65f03c0 	ret

00000000000803d8 <get_clock>:
   803d8:	a9bf7bfd 	stp	x29, x30, [sp, #-16]!
   803dc:	910003fd 	mov	x29, sp
   803e0:	d0000020 	adrp	x0, 86000 <delay+0xb88>
   803e4:	f9427800 	ldr	x0, [x0, #1264]
   803e8:	52800401 	mov	w1, #0x20                  	// #32
   803ec:	b9000001 	str	w1, [x0]
   803f0:	d0000020 	adrp	x0, 86000 <delay+0xb88>
   803f4:	f9427800 	ldr	x0, [x0, #1264]
   803f8:	b900041f 	str	wzr, [x0, #4]
   803fc:	d0000020 	adrp	x0, 86000 <delay+0xb88>
   80400:	f9427800 	ldr	x0, [x0, #1264]
   80404:	52800021 	mov	w1, #0x1                   	// #1
   80408:	72a00061 	movk	w1, #0x3, lsl #16
   8040c:	b9000801 	str	w1, [x0, #8]
   80410:	d0000020 	adrp	x0, 86000 <delay+0xb88>
   80414:	f9427800 	ldr	x0, [x0, #1264]
   80418:	52800101 	mov	w1, #0x8                   	// #8
   8041c:	b9000c01 	str	w1, [x0, #12]
   80420:	d0000020 	adrp	x0, 86000 <delay+0xb88>
   80424:	f9427800 	ldr	x0, [x0, #1264]
   80428:	b900101f 	str	wzr, [x0, #16]
   8042c:	d0000020 	adrp	x0, 86000 <delay+0xb88>
   80430:	f9427800 	ldr	x0, [x0, #1264]
   80434:	52800041 	mov	w1, #0x2                   	// #2
   80438:	b9001401 	str	w1, [x0, #20]
   8043c:	d0000020 	adrp	x0, 86000 <delay+0xb88>
   80440:	f9427800 	ldr	x0, [x0, #1264]
   80444:	b900181f 	str	wzr, [x0, #24]
   80448:	d0000020 	adrp	x0, 86000 <delay+0xb88>
   8044c:	f9427800 	ldr	x0, [x0, #1264]
   80450:	b9001c1f 	str	wzr, [x0, #28]
   80454:	52800100 	mov	w0, #0x8                   	// #8
   80458:	940004cf 	bl	81794 <mbox_call>
   8045c:	a8c17bfd 	ldp	x29, x30, [sp], #16
   80460:	d65f03c0 	ret

0000000000080464 <get_current_el>:
   80464:	a9be7bfd 	stp	x29, x30, [sp, #-32]!
   80468:	910003fd 	mov	x29, sp
   8046c:	d5384240 	mrs	x0, currentel
   80470:	f9000fe0 	str	x0, [sp, #24]
   80474:	f9400fe0 	ldr	x0, [sp, #24]
   80478:	d342fc00 	lsr	x0, x0, #2
   8047c:	aa0003e1 	mov	x1, x0
   80480:	b0000020 	adrp	x0, 85000 <error_invalid_el0_64+0x94>
   80484:	911b4000 	add	x0, x0, #0x6d0
   80488:	94000aea 	bl	83030 <printf>
   8048c:	d503201f 	nop
   80490:	a8c27bfd 	ldp	x29, x30, [sp], #32
   80494:	d65f03c0 	ret

0000000000080498 <__print_char_as_number>:
   80498:	a9be7bfd 	stp	x29, x30, [sp, #-32]!
   8049c:	910003fd 	mov	x29, sp
   804a0:	39007fe0 	strb	w0, [sp, #31]
   804a4:	52800141 	mov	w1, #0xa                   	// #10
   804a8:	39407fe0 	ldrb	w0, [sp, #31]
   804ac:	94000004 	bl	804bc <_print_char_as_number>
   804b0:	d503201f 	nop
   804b4:	a8c27bfd 	ldp	x29, x30, [sp], #32
   804b8:	d65f03c0 	ret

00000000000804bc <_print_char_as_number>:
   804bc:	a9be7bfd 	stp	x29, x30, [sp, #-32]!
   804c0:	910003fd 	mov	x29, sp
   804c4:	39007fe0 	strb	w0, [sp, #31]
   804c8:	b9001be1 	str	w1, [sp, #24]
   804cc:	39407fe1 	ldrb	w1, [sp, #31]
   804d0:	b9401be0 	ldr	w0, [sp, #24]
   804d4:	1ac00c20 	sdiv	w0, w1, w0
   804d8:	7100001f 	cmp	w0, #0x0
   804dc:	540000e0 	b.eq	804f8 <_print_char_as_number+0x3c>  // b.none
   804e0:	39407fe1 	ldrb	w1, [sp, #31]
   804e4:	b9401be0 	ldr	w0, [sp, #24]
   804e8:	1ac00c20 	sdiv	w0, w1, w0
   804ec:	12001c00 	and	w0, w0, #0xff
   804f0:	b9401be1 	ldr	w1, [sp, #24]
   804f4:	97fffff2 	bl	804bc <_print_char_as_number>
   804f8:	39407fe0 	ldrb	w0, [sp, #31]
   804fc:	b9401be1 	ldr	w1, [sp, #24]
   80500:	1ac10c02 	sdiv	w2, w0, w1
   80504:	b9401be1 	ldr	w1, [sp, #24]
   80508:	1b017c41 	mul	w1, w2, w1
   8050c:	4b010002 	sub	w2, w0, w1
   80510:	b0000020 	adrp	x0, 85000 <error_invalid_el0_64+0x94>
   80514:	911b8001 	add	x1, x0, #0x6e0
   80518:	93407c40 	sxtw	x0, w2
   8051c:	38606820 	ldrb	w0, [x1, x0]
   80520:	940004c6 	bl	81838 <uart_send>
   80524:	d503201f 	nop
   80528:	a8c27bfd 	ldp	x29, x30, [sp], #32
   8052c:	d65f03c0 	ret

0000000000080530 <__print_int_as_number>:
   80530:	a9be7bfd 	stp	x29, x30, [sp, #-32]!
   80534:	910003fd 	mov	x29, sp
   80538:	b9001fe0 	str	w0, [sp, #28]
   8053c:	b9401fe0 	ldr	w0, [sp, #28]
   80540:	7100001f 	cmp	w0, #0x0
   80544:	5400006a 	b.ge	80550 <__print_int_as_number+0x20>  // b.tcont
   80548:	528005a0 	mov	w0, #0x2d                  	// #45
   8054c:	940004bb 	bl	81838 <uart_send>
   80550:	b9401fe0 	ldr	w0, [sp, #28]
   80554:	7100001f 	cmp	w0, #0x0
   80558:	5a80a400 	cneg	w0, w0, lt  // lt = tstop
   8055c:	52800141 	mov	w1, #0xa                   	// #10
   80560:	94000004 	bl	80570 <_print_int_as_number>
   80564:	d503201f 	nop
   80568:	a8c27bfd 	ldp	x29, x30, [sp], #32
   8056c:	d65f03c0 	ret

0000000000080570 <_print_int_as_number>:
   80570:	a9be7bfd 	stp	x29, x30, [sp, #-32]!
   80574:	910003fd 	mov	x29, sp
   80578:	b9001fe0 	str	w0, [sp, #28]
   8057c:	b9001be1 	str	w1, [sp, #24]
   80580:	b9401fe1 	ldr	w1, [sp, #28]
   80584:	b9401be0 	ldr	w0, [sp, #24]
   80588:	1ac00c20 	sdiv	w0, w1, w0
   8058c:	7100001f 	cmp	w0, #0x0
   80590:	540000c0 	b.eq	805a8 <_print_int_as_number+0x38>  // b.none
   80594:	b9401fe1 	ldr	w1, [sp, #28]
   80598:	b9401be0 	ldr	w0, [sp, #24]
   8059c:	1ac00c20 	sdiv	w0, w1, w0
   805a0:	b9401be1 	ldr	w1, [sp, #24]
   805a4:	97fffff3 	bl	80570 <_print_int_as_number>
   805a8:	b9401fe0 	ldr	w0, [sp, #28]
   805ac:	b9401be1 	ldr	w1, [sp, #24]
   805b0:	1ac10c02 	sdiv	w2, w0, w1
   805b4:	b9401be1 	ldr	w1, [sp, #24]
   805b8:	1b017c41 	mul	w1, w2, w1
   805bc:	4b010002 	sub	w2, w0, w1
   805c0:	b0000020 	adrp	x0, 85000 <error_invalid_el0_64+0x94>
   805c4:	911b8001 	add	x1, x0, #0x6e0
   805c8:	93407c40 	sxtw	x0, w2
   805cc:	38606820 	ldrb	w0, [x1, x0]
   805d0:	9400049a 	bl	81838 <uart_send>
   805d4:	d503201f 	nop
   805d8:	a8c27bfd 	ldp	x29, x30, [sp], #32
   805dc:	d65f03c0 	ret

00000000000805e0 <__print_long_as_number>:
   805e0:	a9be7bfd 	stp	x29, x30, [sp, #-32]!
   805e4:	910003fd 	mov	x29, sp
   805e8:	f9000fe0 	str	x0, [sp, #24]
   805ec:	f9400fe0 	ldr	x0, [sp, #24]
   805f0:	f100001f 	cmp	x0, #0x0
   805f4:	5400006a 	b.ge	80600 <__print_long_as_number+0x20>  // b.tcont
   805f8:	528005a0 	mov	w0, #0x2d                  	// #45
   805fc:	9400048f 	bl	81838 <uart_send>
   80600:	f9400fe0 	ldr	x0, [sp, #24]
   80604:	f100001f 	cmp	x0, #0x0
   80608:	da80a400 	cneg	x0, x0, lt  // lt = tstop
   8060c:	52800141 	mov	w1, #0xa                   	// #10
   80610:	94000004 	bl	80620 <_print_long_as_number>
   80614:	d503201f 	nop
   80618:	a8c27bfd 	ldp	x29, x30, [sp], #32
   8061c:	d65f03c0 	ret

0000000000080620 <_print_long_as_number>:
   80620:	a9be7bfd 	stp	x29, x30, [sp, #-32]!
   80624:	910003fd 	mov	x29, sp
   80628:	f9000fe0 	str	x0, [sp, #24]
   8062c:	b90017e1 	str	w1, [sp, #20]
   80630:	b98017e0 	ldrsw	x0, [sp, #20]
   80634:	f9400fe1 	ldr	x1, [sp, #24]
   80638:	9ac00c20 	sdiv	x0, x1, x0
   8063c:	f100001f 	cmp	x0, #0x0
   80640:	540000c0 	b.eq	80658 <_print_long_as_number+0x38>  // b.none
   80644:	b98017e0 	ldrsw	x0, [sp, #20]
   80648:	f9400fe1 	ldr	x1, [sp, #24]
   8064c:	9ac00c20 	sdiv	x0, x1, x0
   80650:	b94017e1 	ldr	w1, [sp, #20]
   80654:	97fffff3 	bl	80620 <_print_long_as_number>
   80658:	b98017e1 	ldrsw	x1, [sp, #20]
   8065c:	f9400fe0 	ldr	x0, [sp, #24]
   80660:	9ac10c02 	sdiv	x2, x0, x1
   80664:	9b017c41 	mul	x1, x2, x1
   80668:	cb010000 	sub	x0, x0, x1
   8066c:	b0000021 	adrp	x1, 85000 <error_invalid_el0_64+0x94>
   80670:	911b8021 	add	x1, x1, #0x6e0
   80674:	38606820 	ldrb	w0, [x1, x0]
   80678:	94000470 	bl	81838 <uart_send>
   8067c:	d503201f 	nop
   80680:	a8c27bfd 	ldp	x29, x30, [sp], #32
   80684:	d65f03c0 	ret

0000000000080688 <__print_UL_as_number>:
   80688:	a9be7bfd 	stp	x29, x30, [sp, #-32]!
   8068c:	910003fd 	mov	x29, sp
   80690:	f9000fe0 	str	x0, [sp, #24]
   80694:	52800141 	mov	w1, #0xa                   	// #10
   80698:	f9400fe0 	ldr	x0, [sp, #24]
   8069c:	94000004 	bl	806ac <_print_UL_as_number>
   806a0:	d503201f 	nop
   806a4:	a8c27bfd 	ldp	x29, x30, [sp], #32
   806a8:	d65f03c0 	ret

00000000000806ac <_print_UL_as_number>:
   806ac:	a9be7bfd 	stp	x29, x30, [sp, #-32]!
   806b0:	910003fd 	mov	x29, sp
   806b4:	f9000fe0 	str	x0, [sp, #24]
   806b8:	b90017e1 	str	w1, [sp, #20]
   806bc:	b98017e0 	ldrsw	x0, [sp, #20]
   806c0:	f9400fe1 	ldr	x1, [sp, #24]
   806c4:	eb00003f 	cmp	x1, x0
   806c8:	540000c3 	b.cc	806e0 <_print_UL_as_number+0x34>  // b.lo, b.ul, b.last
   806cc:	b98017e0 	ldrsw	x0, [sp, #20]
   806d0:	f9400fe1 	ldr	x1, [sp, #24]
   806d4:	9ac00820 	udiv	x0, x1, x0
   806d8:	b94017e1 	ldr	w1, [sp, #20]
   806dc:	97fffff4 	bl	806ac <_print_UL_as_number>
   806e0:	b98017e1 	ldrsw	x1, [sp, #20]
   806e4:	f9400fe0 	ldr	x0, [sp, #24]
   806e8:	9ac10802 	udiv	x2, x0, x1
   806ec:	9b017c41 	mul	x1, x2, x1
   806f0:	cb010000 	sub	x0, x0, x1
   806f4:	b0000021 	adrp	x1, 85000 <error_invalid_el0_64+0x94>
   806f8:	911b8021 	add	x1, x1, #0x6e0
   806fc:	38606820 	ldrb	w0, [x1, x0]
   80700:	9400044e 	bl	81838 <uart_send>
   80704:	d503201f 	nop
   80708:	a8c27bfd 	ldp	x29, x30, [sp], #32
   8070c:	d65f03c0 	ret

0000000000080710 <__print_ULL_as_number>:
   80710:	a9be7bfd 	stp	x29, x30, [sp, #-32]!
   80714:	910003fd 	mov	x29, sp
   80718:	f9000fe0 	str	x0, [sp, #24]
   8071c:	52800141 	mov	w1, #0xa                   	// #10
   80720:	f9400fe0 	ldr	x0, [sp, #24]
   80724:	94000004 	bl	80734 <_print_ULL_as_number>
   80728:	d503201f 	nop
   8072c:	a8c27bfd 	ldp	x29, x30, [sp], #32
   80730:	d65f03c0 	ret

0000000000080734 <_print_ULL_as_number>:
   80734:	a9be7bfd 	stp	x29, x30, [sp, #-32]!
   80738:	910003fd 	mov	x29, sp
   8073c:	f9000fe0 	str	x0, [sp, #24]
   80740:	b90017e1 	str	w1, [sp, #20]
   80744:	b98017e0 	ldrsw	x0, [sp, #20]
   80748:	f9400fe1 	ldr	x1, [sp, #24]
   8074c:	eb00003f 	cmp	x1, x0
   80750:	540000c3 	b.cc	80768 <_print_ULL_as_number+0x34>  // b.lo, b.ul, b.last
   80754:	b98017e0 	ldrsw	x0, [sp, #20]
   80758:	f9400fe1 	ldr	x1, [sp, #24]
   8075c:	9ac00820 	udiv	x0, x1, x0
   80760:	b94017e1 	ldr	w1, [sp, #20]
   80764:	97fffff4 	bl	80734 <_print_ULL_as_number>
   80768:	b98017e1 	ldrsw	x1, [sp, #20]
   8076c:	f9400fe0 	ldr	x0, [sp, #24]
   80770:	9ac10802 	udiv	x2, x0, x1
   80774:	9b017c41 	mul	x1, x2, x1
   80778:	cb010000 	sub	x0, x0, x1
   8077c:	b0000021 	adrp	x1, 85000 <error_invalid_el0_64+0x94>
   80780:	911b8021 	add	x1, x1, #0x6e0
   80784:	38606820 	ldrb	w0, [x1, x0]
   80788:	9400042c 	bl	81838 <uart_send>
   8078c:	d503201f 	nop
   80790:	a8c27bfd 	ldp	x29, x30, [sp], #32
   80794:	d65f03c0 	ret

0000000000080798 <expect>:
   80798:	a9bd7bfd 	stp	x29, x30, [sp, #-48]!
   8079c:	910003fd 	mov	x29, sp
   807a0:	f9000fe0 	str	x0, [sp, #24]
   807a4:	1400001b 	b	80810 <expect+0x78>
   807a8:	94000435 	bl	8187c <uart_recv>
   807ac:	3900bfe0 	strb	w0, [sp, #47]
   807b0:	f9400fe0 	ldr	x0, [sp, #24]
   807b4:	39400000 	ldrb	w0, [x0]
   807b8:	3940bfe1 	ldrb	w1, [sp, #47]
   807bc:	6b00003f 	cmp	w1, w0
   807c0:	54000220 	b.eq	80804 <expect+0x6c>  // b.none
   807c4:	b0000020 	adrp	x0, 85000 <error_invalid_el0_64+0x94>
   807c8:	911be000 	add	x0, x0, #0x6f8
   807cc:	94000446 	bl	818e4 <uart_puts>
   807d0:	f9400fe0 	ldr	x0, [sp, #24]
   807d4:	39400000 	ldrb	w0, [x0]
   807d8:	94000418 	bl	81838 <uart_send>
   807dc:	b0000020 	adrp	x0, 85000 <error_invalid_el0_64+0x94>
   807e0:	911c0000 	add	x0, x0, #0x700
   807e4:	94000440 	bl	818e4 <uart_puts>
   807e8:	3940bfe0 	ldrb	w0, [sp, #47]
   807ec:	94000413 	bl	81838 <uart_send>
   807f0:	b0000020 	adrp	x0, 85000 <error_invalid_el0_64+0x94>
   807f4:	911c2000 	add	x0, x0, #0x708
   807f8:	9400043b 	bl	818e4 <uart_puts>
   807fc:	52800000 	mov	w0, #0x0                   	// #0
   80800:	14000009 	b	80824 <expect+0x8c>
   80804:	f9400fe0 	ldr	x0, [sp, #24]
   80808:	91000400 	add	x0, x0, #0x1
   8080c:	f9000fe0 	str	x0, [sp, #24]
   80810:	f9400fe0 	ldr	x0, [sp, #24]
   80814:	39400000 	ldrb	w0, [x0]
   80818:	7100001f 	cmp	w0, #0x0
   8081c:	54fffc61 	b.ne	807a8 <expect+0x10>  // b.any
   80820:	52800020 	mov	w0, #0x1                   	// #1
   80824:	a8c37bfd 	ldp	x29, x30, [sp], #48
   80828:	d65f03c0 	ret

000000000008082c <is_digit>:
   8082c:	d10083ff 	sub	sp, sp, #0x20
   80830:	39003fe0 	strb	w0, [sp, #15]
   80834:	b9000be1 	str	w1, [sp, #8]
   80838:	39403fe0 	ldrb	w0, [sp, #15]
   8083c:	7101801f 	cmp	w0, #0x60
   80840:	54000089 	b.ls	80850 <is_digit+0x24>  // b.plast
   80844:	39403fe0 	ldrb	w0, [sp, #15]
   80848:	51008000 	sub	w0, w0, #0x20
   8084c:	39003fe0 	strb	w0, [sp, #15]
   80850:	b9001fff 	str	wzr, [sp, #28]
   80854:	1400000d 	b	80888 <is_digit+0x5c>
   80858:	b0000020 	adrp	x0, 85000 <error_invalid_el0_64+0x94>
   8085c:	911c4001 	add	x1, x0, #0x710
   80860:	b9801fe0 	ldrsw	x0, [sp, #28]
   80864:	38606820 	ldrb	w0, [x1, x0]
   80868:	39403fe1 	ldrb	w1, [sp, #15]
   8086c:	6b00003f 	cmp	w1, w0
   80870:	54000061 	b.ne	8087c <is_digit+0x50>  // b.any
   80874:	b9401fe0 	ldr	w0, [sp, #28]
   80878:	14000009 	b	8089c <is_digit+0x70>
   8087c:	b9401fe0 	ldr	w0, [sp, #28]
   80880:	11000400 	add	w0, w0, #0x1
   80884:	b9001fe0 	str	w0, [sp, #28]
   80888:	b9401fe1 	ldr	w1, [sp, #28]
   8088c:	b9400be0 	ldr	w0, [sp, #8]
   80890:	6b00003f 	cmp	w1, w0
   80894:	54fffe2b 	b.lt	80858 <is_digit+0x2c>  // b.tstop
   80898:	12800000 	mov	w0, #0xffffffff            	// #-1
   8089c:	910083ff 	add	sp, sp, #0x20
   808a0:	d65f03c0 	ret

00000000000808a4 <get_nature>:
   808a4:	a9bd7bfd 	stp	x29, x30, [sp, #-48]!
   808a8:	910003fd 	mov	x29, sp
   808ac:	f9000fe0 	str	x0, [sp, #24]
   808b0:	b90017e1 	str	w1, [sp, #20]
   808b4:	b90013e2 	str	w2, [sp, #16]
   808b8:	b9002fff 	str	wzr, [sp, #44]
   808bc:	1400000c 	b	808ec <get_nature+0x48>
   808c0:	b9402fe1 	ldr	w1, [sp, #44]
   808c4:	b94017e0 	ldr	w0, [sp, #20]
   808c8:	1b007c20 	mul	w0, w1, w0
   808cc:	b94027e1 	ldr	w1, [sp, #36]
   808d0:	0b000020 	add	w0, w1, w0
   808d4:	b9002fe0 	str	w0, [sp, #44]
   808d8:	b94013e0 	ldr	w0, [sp, #16]
   808dc:	7100001f 	cmp	w0, #0x0
   808e0:	54000060 	b.eq	808ec <get_nature+0x48>  // b.none
   808e4:	b9402be0 	ldr	w0, [sp, #40]
   808e8:	940003d4 	bl	81838 <uart_send>
   808ec:	940003e4 	bl	8187c <uart_recv>
   808f0:	12001c00 	and	w0, w0, #0xff
   808f4:	b9002be0 	str	w0, [sp, #40]
   808f8:	b9402be0 	ldr	w0, [sp, #40]
   808fc:	12001c00 	and	w0, w0, #0xff
   80900:	b94017e1 	ldr	w1, [sp, #20]
   80904:	97ffffca 	bl	8082c <is_digit>
   80908:	b90027e0 	str	w0, [sp, #36]
   8090c:	b94027e0 	ldr	w0, [sp, #36]
   80910:	7100001f 	cmp	w0, #0x0
   80914:	54fffd6a 	b.ge	808c0 <get_nature+0x1c>  // b.tcont
   80918:	f9400fe0 	ldr	x0, [sp, #24]
   8091c:	f100001f 	cmp	x0, #0x0
   80920:	540000a0 	b.eq	80934 <get_nature+0x90>  // b.none
   80924:	b9402be0 	ldr	w0, [sp, #40]
   80928:	12001c01 	and	w1, w0, #0xff
   8092c:	f9400fe0 	ldr	x0, [sp, #24]
   80930:	39000001 	strb	w1, [x0]
   80934:	b94013e0 	ldr	w0, [sp, #16]
   80938:	7100001f 	cmp	w0, #0x0
   8093c:	54000060 	b.eq	80948 <get_nature+0xa4>  // b.none
   80940:	b9402be0 	ldr	w0, [sp, #40]
   80944:	940003bd 	bl	81838 <uart_send>
   80948:	b9802fe0 	ldrsw	x0, [sp, #44]
   8094c:	a8c37bfd 	ldp	x29, x30, [sp], #48
   80950:	d65f03c0 	ret

0000000000080954 <push_deffered>:
   80954:	d10043ff 	sub	sp, sp, #0x10
   80958:	f90007e0 	str	x0, [sp, #8]
   8095c:	d0000020 	adrp	x0, 86000 <delay+0xb88>
   80960:	f942a000 	ldr	x0, [x0, #1344]
   80964:	b9400000 	ldr	w0, [x0]
   80968:	11000402 	add	w2, w0, #0x1
   8096c:	d0000021 	adrp	x1, 86000 <delay+0xb88>
   80970:	f942a021 	ldr	x1, [x1, #1344]
   80974:	b9000022 	str	w2, [x1]
   80978:	d0000021 	adrp	x1, 86000 <delay+0xb88>
   8097c:	f9429c21 	ldr	x1, [x1, #1336]
   80980:	2a0003e0 	mov	w0, w0
   80984:	f94007e2 	ldr	x2, [sp, #8]
   80988:	f8207822 	str	x2, [x1, x0, lsl #3]
   8098c:	d503201f 	nop
   80990:	910043ff 	add	sp, sp, #0x10
   80994:	d65f03c0 	ret

0000000000080998 <pop_deffered>:
   80998:	d0000020 	adrp	x0, 86000 <delay+0xb88>
   8099c:	f942a000 	ldr	x0, [x0, #1344]
   809a0:	b9400000 	ldr	w0, [x0]
   809a4:	51000401 	sub	w1, w0, #0x1
   809a8:	d0000020 	adrp	x0, 86000 <delay+0xb88>
   809ac:	f942a000 	ldr	x0, [x0, #1344]
   809b0:	b9000001 	str	w1, [x0]
   809b4:	d0000020 	adrp	x0, 86000 <delay+0xb88>
   809b8:	f942a000 	ldr	x0, [x0, #1344]
   809bc:	b9400001 	ldr	w1, [x0]
   809c0:	d0000020 	adrp	x0, 86000 <delay+0xb88>
   809c4:	f9429c00 	ldr	x0, [x0, #1336]
   809c8:	2a0103e1 	mov	w1, w1
   809cc:	f8617800 	ldr	x0, [x0, x1, lsl #3]
   809d0:	d65f03c0 	ret

00000000000809d4 <bottom_half>:
   809d4:	a9be7bfd 	stp	x29, x30, [sp, #-32]!
   809d8:	910003fd 	mov	x29, sp
   809dc:	528ca000 	mov	w0, #0x6500                	// #25856
   809e0:	72a3b9a0 	movk	w0, #0x1dcd, lsl #16
   809e4:	b9001fe0 	str	w0, [sp, #28]
   809e8:	14000002 	b	809f0 <bottom_half+0x1c>
   809ec:	d503201f 	nop
   809f0:	b9401fe0 	ldr	w0, [sp, #28]
   809f4:	51000401 	sub	w1, w0, #0x1
   809f8:	b9001fe1 	str	w1, [sp, #28]
   809fc:	7100001f 	cmp	w0, #0x0
   80a00:	54ffff61 	b.ne	809ec <bottom_half+0x18>  // b.any
   80a04:	b0000020 	adrp	x0, 85000 <error_invalid_el0_64+0x94>
   80a08:	911ce000 	add	x0, x0, #0x738
   80a0c:	940003b6 	bl	818e4 <uart_puts>
   80a10:	b0000020 	adrp	x0, 85000 <error_invalid_el0_64+0x94>
   80a14:	911d4000 	add	x0, x0, #0x750
   80a18:	940003b3 	bl	818e4 <uart_puts>
   80a1c:	d503201f 	nop
   80a20:	a8c27bfd 	ldp	x29, x30, [sp], #32
   80a24:	d65f03c0 	ret

0000000000080a28 <handle_uart_irq>:
   80a28:	a9bf7bfd 	stp	x29, x30, [sp, #-16]!
   80a2c:	910003fd 	mov	x29, sp
   80a30:	14000004 	b	80a40 <handle_uart_irq+0x18>
   80a34:	94000392 	bl	8187c <uart_recv>
   80a38:	12001c00 	and	w0, w0, #0xff
   80a3c:	94000696 	bl	82494 <shell_stuff_line>
   80a40:	d28a0900 	mov	x0, #0x5048                	// #20552
   80a44:	f2a7e420 	movk	x0, #0x3f21, lsl #16
   80a48:	b9400000 	ldr	w0, [x0]
   80a4c:	121e0000 	and	w0, w0, #0x4
   80a50:	7100101f 	cmp	w0, #0x4
   80a54:	54ffff00 	b.eq	80a34 <handle_uart_irq+0xc>  // b.none
   80a58:	d503201f 	nop
   80a5c:	d503201f 	nop
   80a60:	a8c17bfd 	ldp	x29, x30, [sp], #16
   80a64:	d65f03c0 	ret

0000000000080a68 <irq_handler>:
   80a68:	a9bd7bfd 	stp	x29, x30, [sp, #-48]!
   80a6c:	910003fd 	mov	x29, sp
   80a70:	d2964080 	mov	x0, #0xb204                	// #45572
   80a74:	f2a7e000 	movk	x0, #0x3f00, lsl #16
   80a78:	b9400000 	ldr	w0, [x0]
   80a7c:	b9002fe0 	str	w0, [sp, #44]
   80a80:	d2800680 	mov	x0, #0x34                  	// #52
   80a84:	f2a80000 	movk	x0, #0x4000, lsl #16
   80a88:	b9400000 	ldr	w0, [x0]
   80a8c:	531f7c00 	lsr	w0, w0, #31
   80a90:	12000000 	and	w0, w0, #0x1
   80a94:	7100001f 	cmp	w0, #0x0
   80a98:	54000040 	b.eq	80aa0 <irq_handler+0x38>  // b.none
   80a9c:	94000c1f 	bl	83b18 <local_timer_handler>
   80aa0:	d2800c00 	mov	x0, #0x60                  	// #96
   80aa4:	f2a80000 	movk	x0, #0x4000, lsl #16
   80aa8:	b9400000 	ldr	w0, [x0]
   80aac:	121f0000 	and	w0, w0, #0x2
   80ab0:	7100001f 	cmp	w0, #0x0
   80ab4:	54000340 	b.eq	80b1c <irq_handler+0xb4>  // b.none
   80ab8:	94000c77 	bl	83c94 <core_timer_handler>
   80abc:	14000018 	b	80b1c <irq_handler+0xb4>
   80ac0:	b9402fe0 	ldr	w0, [sp, #44]
   80ac4:	121f0000 	and	w0, w0, #0x2
   80ac8:	7100001f 	cmp	w0, #0x0
   80acc:	540000c0 	b.eq	80ae4 <irq_handler+0x7c>  // b.none
   80ad0:	94000c40 	bl	83bd0 <sys_timer_handler>
   80ad4:	b9402fe0 	ldr	w0, [sp, #44]
   80ad8:	121e7800 	and	w0, w0, #0xfffffffd
   80adc:	b9002fe0 	str	w0, [sp, #44]
   80ae0:	1400000f 	b	80b1c <irq_handler+0xb4>
   80ae4:	b9402fe0 	ldr	w0, [sp, #44]
   80ae8:	12030000 	and	w0, w0, #0x20000000
   80aec:	7100001f 	cmp	w0, #0x0
   80af0:	540000c0 	b.eq	80b08 <irq_handler+0xa0>  // b.none
   80af4:	97ffffcd 	bl	80a28 <handle_uart_irq>
   80af8:	b9402fe0 	ldr	w0, [sp, #44]
   80afc:	12027800 	and	w0, w0, #0xdfffffff
   80b00:	b9002fe0 	str	w0, [sp, #44]
   80b04:	14000006 	b	80b1c <irq_handler+0xb4>
   80b08:	b9402fe1 	ldr	w1, [sp, #44]
   80b0c:	b0000020 	adrp	x0, 85000 <error_invalid_el0_64+0x94>
   80b10:	911d6000 	add	x0, x0, #0x758
   80b14:	94000947 	bl	83030 <printf>
   80b18:	b9002fff 	str	wzr, [sp, #44]
   80b1c:	b9402fe0 	ldr	w0, [sp, #44]
   80b20:	7100001f 	cmp	w0, #0x0
   80b24:	54fffce1 	b.ne	80ac0 <irq_handler+0x58>  // b.any
   80b28:	d5384020 	mrs	x0, elr_el1
   80b2c:	f90013e0 	str	x0, [sp, #32]
   80b30:	d5384020 	mrs	x0, elr_el1
   80b34:	f9000fe0 	str	x0, [sp, #24]
   80b38:	f94013e1 	ldr	x1, [sp, #32]
   80b3c:	f9400fe0 	ldr	x0, [sp, #24]
   80b40:	eb00003f 	cmp	x1, x0
   80b44:	54000060 	b.eq	80b50 <irq_handler+0xe8>  // b.none
   80b48:	f94013e0 	ldr	x0, [sp, #32]
   80b4c:	d5184020 	msr	elr_el1, x0
   80b50:	d503201f 	nop
   80b54:	a8c37bfd 	ldp	x29, x30, [sp], #48
   80b58:	d65f03c0 	ret

0000000000080b5c <init_irq>:
   80b5c:	d2964200 	mov	x0, #0xb210                	// #45584
   80b60:	f2a7e000 	movk	x0, #0x3f00, lsl #16
   80b64:	52800041 	mov	w1, #0x2                   	// #2
   80b68:	72a40001 	movk	w1, #0x2000, lsl #16
   80b6c:	b9000001 	str	w1, [x0]
   80b70:	d50342ff 	msr	daifclr, #0x2
   80b74:	d503201f 	nop
   80b78:	d65f03c0 	ret

0000000000080b7c <enable_irq>:
   80b7c:	a9bf7bfd 	stp	x29, x30, [sp, #-16]!
   80b80:	910003fd 	mov	x29, sp
   80b84:	97fffe38 	bl	80464 <get_current_el>
   80b88:	b0000020 	adrp	x0, 85000 <error_invalid_el0_64+0x94>
   80b8c:	911de000 	add	x0, x0, #0x778
   80b90:	94000355 	bl	818e4 <uart_puts>
   80b94:	b0000020 	adrp	x0, 85000 <error_invalid_el0_64+0x94>
   80b98:	911d4000 	add	x0, x0, #0x750
   80b9c:	94000352 	bl	818e4 <uart_puts>
   80ba0:	d50342ff 	msr	daifclr, #0x2
   80ba4:	d503201f 	nop
   80ba8:	a8c17bfd 	ldp	x29, x30, [sp], #16
   80bac:	d65f03c0 	ret

0000000000080bb0 <disable_irq>:
   80bb0:	a9bf7bfd 	stp	x29, x30, [sp, #-16]!
   80bb4:	910003fd 	mov	x29, sp
   80bb8:	b0000020 	adrp	x0, 85000 <error_invalid_el0_64+0x94>
   80bbc:	911e2000 	add	x0, x0, #0x788
   80bc0:	94000349 	bl	818e4 <uart_puts>
   80bc4:	b0000020 	adrp	x0, 85000 <error_invalid_el0_64+0x94>
   80bc8:	911d4000 	add	x0, x0, #0x750
   80bcc:	94000346 	bl	818e4 <uart_puts>
   80bd0:	d50342df 	msr	daifset, #0x2
   80bd4:	d503201f 	nop
   80bd8:	a8c17bfd 	ldp	x29, x30, [sp], #16
   80bdc:	d65f03c0 	ret

0000000000080be0 <fuck_irq>:
   80be0:	a9bf7bfd 	stp	x29, x30, [sp, #-16]!
   80be4:	910003fd 	mov	x29, sp
   80be8:	b0000020 	adrp	x0, 85000 <error_invalid_el0_64+0x94>
   80bec:	911e6000 	add	x0, x0, #0x798
   80bf0:	9400033d 	bl	818e4 <uart_puts>
   80bf4:	b0000020 	adrp	x0, 85000 <error_invalid_el0_64+0x94>
   80bf8:	911d4000 	add	x0, x0, #0x750
   80bfc:	9400033a 	bl	818e4 <uart_puts>
   80c00:	d503201f 	nop
   80c04:	a8c17bfd 	ldp	x29, x30, [sp], #16
   80c08:	d65f03c0 	ret

0000000000080c0c <fuck_irqq>:
   80c0c:	a9bf7bfd 	stp	x29, x30, [sp, #-16]!
   80c10:	910003fd 	mov	x29, sp
   80c14:	b0000020 	adrp	x0, 85000 <error_invalid_el0_64+0x94>
   80c18:	911ea000 	add	x0, x0, #0x7a8
   80c1c:	94000332 	bl	818e4 <uart_puts>
   80c20:	b0000020 	adrp	x0, 85000 <error_invalid_el0_64+0x94>
   80c24:	911d4000 	add	x0, x0, #0x750
   80c28:	9400032f 	bl	818e4 <uart_puts>
   80c2c:	d503201f 	nop
   80c30:	a8c17bfd 	ldp	x29, x30, [sp], #16
   80c34:	d65f03c0 	ret

0000000000080c38 <main>:
   80c38:	a9bf7bfd 	stp	x29, x30, [sp, #-16]!
   80c3c:	910003fd 	mov	x29, sp
   80c40:	9400033b 	bl	8192c <uart_init>
   80c44:	9400006e 	bl	80dfc <lfb_init>
   80c48:	9400013c 	bl	81138 <lfb_showpicture>
   80c4c:	b0000020 	adrp	x0, 85000 <error_invalid_el0_64+0x94>
   80c50:	911ee000 	add	x0, x0, #0x7b8
   80c54:	94000324 	bl	818e4 <uart_puts>
   80c58:	b0000020 	adrp	x0, 85000 <error_invalid_el0_64+0x94>
   80c5c:	911f6000 	add	x0, x0, #0x7d8
   80c60:	94000321 	bl	818e4 <uart_puts>
   80c64:	b0000020 	adrp	x0, 85000 <error_invalid_el0_64+0x94>
   80c68:	911f8000 	add	x0, x0, #0x7e0
   80c6c:	9400031e 	bl	818e4 <uart_puts>
   80c70:	b0000020 	adrp	x0, 85000 <error_invalid_el0_64+0x94>
   80c74:	911f6000 	add	x0, x0, #0x7d8
   80c78:	9400031b 	bl	818e4 <uart_puts>
   80c7c:	b0000020 	adrp	x0, 85000 <error_invalid_el0_64+0x94>
   80c80:	91204000 	add	x0, x0, #0x810
   80c84:	94000318 	bl	818e4 <uart_puts>
   80c88:	b0000020 	adrp	x0, 85000 <error_invalid_el0_64+0x94>
   80c8c:	911f6000 	add	x0, x0, #0x7d8
   80c90:	94000315 	bl	818e4 <uart_puts>
   80c94:	b0000020 	adrp	x0, 85000 <error_invalid_el0_64+0x94>
   80c98:	91210000 	add	x0, x0, #0x840
   80c9c:	94000312 	bl	818e4 <uart_puts>
   80ca0:	b0000020 	adrp	x0, 85000 <error_invalid_el0_64+0x94>
   80ca4:	911f6000 	add	x0, x0, #0x7d8
   80ca8:	9400030f 	bl	818e4 <uart_puts>
   80cac:	b0000020 	adrp	x0, 85000 <error_invalid_el0_64+0x94>
   80cb0:	9121c000 	add	x0, x0, #0x870
   80cb4:	9400030c 	bl	818e4 <uart_puts>
   80cb8:	b0000020 	adrp	x0, 85000 <error_invalid_el0_64+0x94>
   80cbc:	911f6000 	add	x0, x0, #0x7d8
   80cc0:	94000309 	bl	818e4 <uart_puts>
   80cc4:	b0000020 	adrp	x0, 85000 <error_invalid_el0_64+0x94>
   80cc8:	91228000 	add	x0, x0, #0x8a0
   80ccc:	94000306 	bl	818e4 <uart_puts>
   80cd0:	b0000020 	adrp	x0, 85000 <error_invalid_el0_64+0x94>
   80cd4:	911f6000 	add	x0, x0, #0x7d8
   80cd8:	94000303 	bl	818e4 <uart_puts>
   80cdc:	d0000020 	adrp	x0, 86000 <delay+0xb88>
   80ce0:	f942ac02 	ldr	x2, [x0, #1368]
   80ce4:	d0000020 	adrp	x0, 86000 <delay+0xb88>
   80ce8:	f9428001 	ldr	x1, [x0, #1280]
   80cec:	b0000020 	adrp	x0, 85000 <error_invalid_el0_64+0x94>
   80cf0:	91234000 	add	x0, x0, #0x8d0
   80cf4:	940008cf 	bl	83030 <printf>
   80cf8:	b0000020 	adrp	x0, 85000 <error_invalid_el0_64+0x94>
   80cfc:	9123e000 	add	x0, x0, #0x8f8
   80d00:	940002f9 	bl	818e4 <uart_puts>
   80d04:	b0000020 	adrp	x0, 85000 <error_invalid_el0_64+0x94>
   80d08:	91242000 	add	x0, x0, #0x908
   80d0c:	940002f6 	bl	818e4 <uart_puts>
   80d10:	b0000020 	adrp	x0, 85000 <error_invalid_el0_64+0x94>
   80d14:	911f6000 	add	x0, x0, #0x7d8
   80d18:	940002f3 	bl	818e4 <uart_puts>
   80d1c:	97fffd4c 	bl	8024c <get_board_revision>
   80d20:	7100001f 	cmp	w0, #0x0
   80d24:	54000100 	b.eq	80d44 <main+0x10c>  // b.none
   80d28:	d0000020 	adrp	x0, 86000 <delay+0xb88>
   80d2c:	f9427800 	ldr	x0, [x0, #1264]
   80d30:	b9401400 	ldr	w0, [x0, #20]
   80d34:	2a0003e1 	mov	w1, w0
   80d38:	b0000020 	adrp	x0, 85000 <error_invalid_el0_64+0x94>
   80d3c:	91246000 	add	x0, x0, #0x918
   80d40:	940008bc 	bl	83030 <printf>
   80d44:	97fffd83 	bl	80350 <get_arm_memaddr>
   80d48:	7100001f 	cmp	w0, #0x0
   80d4c:	54000160 	b.eq	80d78 <main+0x140>  // b.none
   80d50:	d0000020 	adrp	x0, 86000 <delay+0xb88>
   80d54:	f9427800 	ldr	x0, [x0, #1264]
   80d58:	b9401401 	ldr	w1, [x0, #20]
   80d5c:	d0000020 	adrp	x0, 86000 <delay+0xb88>
   80d60:	f9427800 	ldr	x0, [x0, #1264]
   80d64:	b9401800 	ldr	w0, [x0, #24]
   80d68:	2a0003e2 	mov	w2, w0
   80d6c:	b0000020 	adrp	x0, 85000 <error_invalid_el0_64+0x94>
   80d70:	9124c000 	add	x0, x0, #0x930
   80d74:	940008af 	bl	83030 <printf>
   80d78:	97fffd54 	bl	802c8 <get_vc_memaddr>
   80d7c:	7100001f 	cmp	w0, #0x0
   80d80:	54000160 	b.eq	80dac <main+0x174>  // b.none
   80d84:	d0000020 	adrp	x0, 86000 <delay+0xb88>
   80d88:	f9427800 	ldr	x0, [x0, #1264]
   80d8c:	b9401401 	ldr	w1, [x0, #20]
   80d90:	d0000020 	adrp	x0, 86000 <delay+0xb88>
   80d94:	f9427800 	ldr	x0, [x0, #1264]
   80d98:	b9401800 	ldr	w0, [x0, #24]
   80d9c:	2a0003e2 	mov	w2, w0
   80da0:	b0000020 	adrp	x0, 85000 <error_invalid_el0_64+0x94>
   80da4:	91254000 	add	x0, x0, #0x950
   80da8:	940008a2 	bl	83030 <printf>
   80dac:	b0000020 	adrp	x0, 85000 <error_invalid_el0_64+0x94>
   80db0:	9125e000 	add	x0, x0, #0x978
   80db4:	940002cc 	bl	818e4 <uart_puts>
   80db8:	b0000020 	adrp	x0, 85000 <error_invalid_el0_64+0x94>
   80dbc:	911f6000 	add	x0, x0, #0x7d8
   80dc0:	940002c9 	bl	818e4 <uart_puts>
   80dc4:	940002bb 	bl	818b0 <uart_flush>
   80dc8:	94000ba1 	bl	83c4c <core_timer_init>
   80dcc:	d2800001 	mov	x1, #0x0                   	// #0
   80dd0:	d0000020 	adrp	x0, 86000 <delay+0xb88>
   80dd4:	f942b400 	ldr	x0, [x0, #1384]
   80dd8:	940009b9 	bl	834bc <privilege_task_create>
   80ddc:	b0000020 	adrp	x0, 85000 <error_invalid_el0_64+0x94>
   80de0:	91260000 	add	x0, x0, #0x980
   80de4:	940002c0 	bl	818e4 <uart_puts>
   80de8:	b0000020 	adrp	x0, 85000 <error_invalid_el0_64+0x94>
   80dec:	911f6000 	add	x0, x0, #0x7d8
   80df0:	940002bd 	bl	818e4 <uart_puts>
   80df4:	940003f5 	bl	81dc8 <schedule>
   80df8:	17fffff9 	b	80ddc <main+0x1a4>

0000000000080dfc <lfb_init>:
   80dfc:	a9bf7bfd 	stp	x29, x30, [sp, #-16]!
   80e00:	910003fd 	mov	x29, sp
   80e04:	d0000020 	adrp	x0, 86000 <delay+0xb88>
   80e08:	f9427800 	ldr	x0, [x0, #1264]
   80e0c:	52801181 	mov	w1, #0x8c                  	// #140
   80e10:	b9000001 	str	w1, [x0]
   80e14:	d0000020 	adrp	x0, 86000 <delay+0xb88>
   80e18:	f9427800 	ldr	x0, [x0, #1264]
   80e1c:	b900041f 	str	wzr, [x0, #4]
   80e20:	d0000020 	adrp	x0, 86000 <delay+0xb88>
   80e24:	f9427800 	ldr	x0, [x0, #1264]
   80e28:	52900061 	mov	w1, #0x8003                	// #32771
   80e2c:	72a00081 	movk	w1, #0x4, lsl #16
   80e30:	b9000801 	str	w1, [x0, #8]
   80e34:	d0000020 	adrp	x0, 86000 <delay+0xb88>
   80e38:	f9427800 	ldr	x0, [x0, #1264]
   80e3c:	52800101 	mov	w1, #0x8                   	// #8
   80e40:	b9000c01 	str	w1, [x0, #12]
   80e44:	d0000020 	adrp	x0, 86000 <delay+0xb88>
   80e48:	f9427800 	ldr	x0, [x0, #1264]
   80e4c:	52800101 	mov	w1, #0x8                   	// #8
   80e50:	b9001001 	str	w1, [x0, #16]
   80e54:	d0000020 	adrp	x0, 86000 <delay+0xb88>
   80e58:	f9427800 	ldr	x0, [x0, #1264]
   80e5c:	52808001 	mov	w1, #0x400                 	// #1024
   80e60:	b9001401 	str	w1, [x0, #20]
   80e64:	d0000020 	adrp	x0, 86000 <delay+0xb88>
   80e68:	f9427800 	ldr	x0, [x0, #1264]
   80e6c:	52806001 	mov	w1, #0x300                 	// #768
   80e70:	b9001801 	str	w1, [x0, #24]
   80e74:	d0000020 	adrp	x0, 86000 <delay+0xb88>
   80e78:	f9427800 	ldr	x0, [x0, #1264]
   80e7c:	52900081 	mov	w1, #0x8004                	// #32772
   80e80:	72a00081 	movk	w1, #0x4, lsl #16
   80e84:	b9001c01 	str	w1, [x0, #28]
   80e88:	d0000020 	adrp	x0, 86000 <delay+0xb88>
   80e8c:	f9427800 	ldr	x0, [x0, #1264]
   80e90:	52800101 	mov	w1, #0x8                   	// #8
   80e94:	b9002001 	str	w1, [x0, #32]
   80e98:	d0000020 	adrp	x0, 86000 <delay+0xb88>
   80e9c:	f9427800 	ldr	x0, [x0, #1264]
   80ea0:	52800101 	mov	w1, #0x8                   	// #8
   80ea4:	b9002401 	str	w1, [x0, #36]
   80ea8:	d0000020 	adrp	x0, 86000 <delay+0xb88>
   80eac:	f9427800 	ldr	x0, [x0, #1264]
   80eb0:	52808001 	mov	w1, #0x400                 	// #1024
   80eb4:	b9002801 	str	w1, [x0, #40]
   80eb8:	d0000020 	adrp	x0, 86000 <delay+0xb88>
   80ebc:	f9427800 	ldr	x0, [x0, #1264]
   80ec0:	52806001 	mov	w1, #0x300                 	// #768
   80ec4:	b9002c01 	str	w1, [x0, #44]
   80ec8:	d0000020 	adrp	x0, 86000 <delay+0xb88>
   80ecc:	f9427800 	ldr	x0, [x0, #1264]
   80ed0:	52900121 	mov	w1, #0x8009                	// #32777
   80ed4:	72a00081 	movk	w1, #0x4, lsl #16
   80ed8:	b9003001 	str	w1, [x0, #48]
   80edc:	d0000020 	adrp	x0, 86000 <delay+0xb88>
   80ee0:	f9427800 	ldr	x0, [x0, #1264]
   80ee4:	52800101 	mov	w1, #0x8                   	// #8
   80ee8:	b9003401 	str	w1, [x0, #52]
   80eec:	d0000020 	adrp	x0, 86000 <delay+0xb88>
   80ef0:	f9427800 	ldr	x0, [x0, #1264]
   80ef4:	52800101 	mov	w1, #0x8                   	// #8
   80ef8:	b9003801 	str	w1, [x0, #56]
   80efc:	d0000020 	adrp	x0, 86000 <delay+0xb88>
   80f00:	f9427800 	ldr	x0, [x0, #1264]
   80f04:	b9003c1f 	str	wzr, [x0, #60]
   80f08:	d0000020 	adrp	x0, 86000 <delay+0xb88>
   80f0c:	f9427800 	ldr	x0, [x0, #1264]
   80f10:	b900401f 	str	wzr, [x0, #64]
   80f14:	d0000020 	adrp	x0, 86000 <delay+0xb88>
   80f18:	f9427800 	ldr	x0, [x0, #1264]
   80f1c:	529000a1 	mov	w1, #0x8005                	// #32773
   80f20:	72a00081 	movk	w1, #0x4, lsl #16
   80f24:	b9004401 	str	w1, [x0, #68]
   80f28:	d0000020 	adrp	x0, 86000 <delay+0xb88>
   80f2c:	f9427800 	ldr	x0, [x0, #1264]
   80f30:	52800081 	mov	w1, #0x4                   	// #4
   80f34:	b9004801 	str	w1, [x0, #72]
   80f38:	d0000020 	adrp	x0, 86000 <delay+0xb88>
   80f3c:	f9427800 	ldr	x0, [x0, #1264]
   80f40:	52800081 	mov	w1, #0x4                   	// #4
   80f44:	b9004c01 	str	w1, [x0, #76]
   80f48:	d0000020 	adrp	x0, 86000 <delay+0xb88>
   80f4c:	f9427800 	ldr	x0, [x0, #1264]
   80f50:	52800401 	mov	w1, #0x20                  	// #32
   80f54:	b9005001 	str	w1, [x0, #80]
   80f58:	d0000020 	adrp	x0, 86000 <delay+0xb88>
   80f5c:	f9427800 	ldr	x0, [x0, #1264]
   80f60:	529000c1 	mov	w1, #0x8006                	// #32774
   80f64:	72a00081 	movk	w1, #0x4, lsl #16
   80f68:	b9005401 	str	w1, [x0, #84]
   80f6c:	d0000020 	adrp	x0, 86000 <delay+0xb88>
   80f70:	f9427800 	ldr	x0, [x0, #1264]
   80f74:	52800081 	mov	w1, #0x4                   	// #4
   80f78:	b9005801 	str	w1, [x0, #88]
   80f7c:	d0000020 	adrp	x0, 86000 <delay+0xb88>
   80f80:	f9427800 	ldr	x0, [x0, #1264]
   80f84:	52800081 	mov	w1, #0x4                   	// #4
   80f88:	b9005c01 	str	w1, [x0, #92]
   80f8c:	d0000020 	adrp	x0, 86000 <delay+0xb88>
   80f90:	f9427800 	ldr	x0, [x0, #1264]
   80f94:	52800021 	mov	w1, #0x1                   	// #1
   80f98:	b9006001 	str	w1, [x0, #96]
   80f9c:	d0000020 	adrp	x0, 86000 <delay+0xb88>
   80fa0:	f9427800 	ldr	x0, [x0, #1264]
   80fa4:	52800021 	mov	w1, #0x1                   	// #1
   80fa8:	72a00081 	movk	w1, #0x4, lsl #16
   80fac:	b9006401 	str	w1, [x0, #100]
   80fb0:	d0000020 	adrp	x0, 86000 <delay+0xb88>
   80fb4:	f9427800 	ldr	x0, [x0, #1264]
   80fb8:	52800101 	mov	w1, #0x8                   	// #8
   80fbc:	b9006801 	str	w1, [x0, #104]
   80fc0:	d0000020 	adrp	x0, 86000 <delay+0xb88>
   80fc4:	f9427800 	ldr	x0, [x0, #1264]
   80fc8:	52800101 	mov	w1, #0x8                   	// #8
   80fcc:	b9006c01 	str	w1, [x0, #108]
   80fd0:	d0000020 	adrp	x0, 86000 <delay+0xb88>
   80fd4:	f9427800 	ldr	x0, [x0, #1264]
   80fd8:	52820001 	mov	w1, #0x1000                	// #4096
   80fdc:	b9007001 	str	w1, [x0, #112]
   80fe0:	d0000020 	adrp	x0, 86000 <delay+0xb88>
   80fe4:	f9427800 	ldr	x0, [x0, #1264]
   80fe8:	b900741f 	str	wzr, [x0, #116]
   80fec:	d0000020 	adrp	x0, 86000 <delay+0xb88>
   80ff0:	f9427800 	ldr	x0, [x0, #1264]
   80ff4:	52800101 	mov	w1, #0x8                   	// #8
   80ff8:	72a00081 	movk	w1, #0x4, lsl #16
   80ffc:	b9007801 	str	w1, [x0, #120]
   81000:	b0000020 	adrp	x0, 86000 <delay+0xb88>
   81004:	f9427800 	ldr	x0, [x0, #1264]
   81008:	52800081 	mov	w1, #0x4                   	// #4
   8100c:	b9007c01 	str	w1, [x0, #124]
   81010:	b0000020 	adrp	x0, 86000 <delay+0xb88>
   81014:	f9427800 	ldr	x0, [x0, #1264]
   81018:	52800081 	mov	w1, #0x4                   	// #4
   8101c:	b9008001 	str	w1, [x0, #128]
   81020:	b0000020 	adrp	x0, 86000 <delay+0xb88>
   81024:	f9427800 	ldr	x0, [x0, #1264]
   81028:	b900841f 	str	wzr, [x0, #132]
   8102c:	b0000020 	adrp	x0, 86000 <delay+0xb88>
   81030:	f9427800 	ldr	x0, [x0, #1264]
   81034:	b900881f 	str	wzr, [x0, #136]
   81038:	52800100 	mov	w0, #0x8                   	// #8
   8103c:	940001d6 	bl	81794 <mbox_call>
   81040:	7100001f 	cmp	w0, #0x0
   81044:	540006c0 	b.eq	8111c <lfb_init+0x320>  // b.none
   81048:	b0000020 	adrp	x0, 86000 <delay+0xb88>
   8104c:	f9427800 	ldr	x0, [x0, #1264]
   81050:	b9405000 	ldr	w0, [x0, #80]
   81054:	7100801f 	cmp	w0, #0x20
   81058:	54000621 	b.ne	8111c <lfb_init+0x320>  // b.any
   8105c:	b0000020 	adrp	x0, 86000 <delay+0xb88>
   81060:	f9427800 	ldr	x0, [x0, #1264]
   81064:	b9407000 	ldr	w0, [x0, #112]
   81068:	7100001f 	cmp	w0, #0x0
   8106c:	54000580 	b.eq	8111c <lfb_init+0x320>  // b.none
   81070:	b0000020 	adrp	x0, 86000 <delay+0xb88>
   81074:	f9427800 	ldr	x0, [x0, #1264]
   81078:	b9407000 	ldr	w0, [x0, #112]
   8107c:	12007401 	and	w1, w0, #0x3fffffff
   81080:	b0000020 	adrp	x0, 86000 <delay+0xb88>
   81084:	f9427800 	ldr	x0, [x0, #1264]
   81088:	b9007001 	str	w1, [x0, #112]
   8108c:	b0000020 	adrp	x0, 86000 <delay+0xb88>
   81090:	f9427800 	ldr	x0, [x0, #1264]
   81094:	b9401401 	ldr	w1, [x0, #20]
   81098:	b0000020 	adrp	x0, 86000 <delay+0xb88>
   8109c:	f942e000 	ldr	x0, [x0, #1472]
   810a0:	b9000001 	str	w1, [x0]
   810a4:	b0000020 	adrp	x0, 86000 <delay+0xb88>
   810a8:	f9427800 	ldr	x0, [x0, #1264]
   810ac:	b9401801 	ldr	w1, [x0, #24]
   810b0:	b0000020 	adrp	x0, 86000 <delay+0xb88>
   810b4:	f942dc00 	ldr	x0, [x0, #1464]
   810b8:	b9000001 	str	w1, [x0]
   810bc:	b0000020 	adrp	x0, 86000 <delay+0xb88>
   810c0:	f9427800 	ldr	x0, [x0, #1264]
   810c4:	b9408401 	ldr	w1, [x0, #132]
   810c8:	b0000020 	adrp	x0, 86000 <delay+0xb88>
   810cc:	f942c800 	ldr	x0, [x0, #1424]
   810d0:	b9000001 	str	w1, [x0]
   810d4:	b0000020 	adrp	x0, 86000 <delay+0xb88>
   810d8:	f9427800 	ldr	x0, [x0, #1264]
   810dc:	b9406001 	ldr	w1, [x0, #96]
   810e0:	b0000020 	adrp	x0, 86000 <delay+0xb88>
   810e4:	f9428c00 	ldr	x0, [x0, #1304]
   810e8:	b9000001 	str	w1, [x0]
   810ec:	b0000020 	adrp	x0, 86000 <delay+0xb88>
   810f0:	f9427800 	ldr	x0, [x0, #1264]
   810f4:	b9407000 	ldr	w0, [x0, #112]
   810f8:	2a0003e0 	mov	w0, w0
   810fc:	aa0003e1 	mov	x1, x0
   81100:	b0000020 	adrp	x0, 86000 <delay+0xb88>
   81104:	f942a800 	ldr	x0, [x0, #1360]
   81108:	f9000001 	str	x1, [x0]
   8110c:	90000020 	adrp	x0, 85000 <error_invalid_el0_64+0x94>
   81110:	91268000 	add	x0, x0, #0x9a0
   81114:	940001f4 	bl	818e4 <uart_puts>
   81118:	14000005 	b	8112c <lfb_init+0x330>
   8111c:	90000020 	adrp	x0, 85000 <error_invalid_el0_64+0x94>
   81120:	91272000 	add	x0, x0, #0x9c8
   81124:	940001f0 	bl	818e4 <uart_puts>
   81128:	d503201f 	nop
   8112c:	d503201f 	nop
   81130:	a8c17bfd 	ldp	x29, x30, [sp], #16
   81134:	d65f03c0 	ret

0000000000081138 <lfb_showpicture>:
   81138:	d10083ff 	sub	sp, sp, #0x20
   8113c:	b0000020 	adrp	x0, 86000 <delay+0xb88>
   81140:	f942a800 	ldr	x0, [x0, #1360]
   81144:	f9400000 	ldr	x0, [x0]
   81148:	f9000be0 	str	x0, [sp, #16]
   8114c:	39002fff 	strb	wzr, [sp, #11]
   81150:	b9001bff 	str	wzr, [sp, #24]
   81154:	1400004f 	b	81290 <lfb_showpicture+0x158>
   81158:	b9001fff 	str	wzr, [sp, #28]
   8115c:	14000038 	b	8123c <lfb_showpicture+0x104>
   81160:	b9401be1 	ldr	w1, [sp, #24]
   81164:	b0000020 	adrp	x0, 86000 <delay+0xb88>
   81168:	f942dc00 	ldr	x0, [x0, #1464]
   8116c:	b9400002 	ldr	w2, [x0]
   81170:	52955560 	mov	w0, #0xaaab                	// #43691
   81174:	72b55540 	movk	w0, #0xaaaa, lsl #16
   81178:	9ba07c40 	umull	x0, w2, w0
   8117c:	d360fc00 	lsr	x0, x0, #32
   81180:	53017c00 	lsr	w0, w0, #1
   81184:	1ac00821 	udiv	w1, w1, w0
   81188:	b9401fe2 	ldr	w2, [sp, #28]
   8118c:	b0000020 	adrp	x0, 86000 <delay+0xb88>
   81190:	f942e000 	ldr	x0, [x0, #1472]
   81194:	b9400003 	ldr	w3, [x0]
   81198:	52955560 	mov	w0, #0xaaab                	// #43691
   8119c:	72b55540 	movk	w0, #0xaaaa, lsl #16
   811a0:	9ba07c60 	umull	x0, w3, w0
   811a4:	d360fc00 	lsr	x0, x0, #32
   811a8:	53017c00 	lsr	w0, w0, #1
   811ac:	1ac00840 	udiv	w0, w2, w0
   811b0:	0b000020 	add	w0, w1, w0
   811b4:	12000000 	and	w0, w0, #0x1
   811b8:	7100001f 	cmp	w0, #0x0
   811bc:	54000060 	b.eq	811c8 <lfb_showpicture+0x90>  // b.none
   811c0:	52801fe0 	mov	w0, #0xff                  	// #255
   811c4:	14000002 	b	811cc <lfb_showpicture+0x94>
   811c8:	52800000 	mov	w0, #0x0                   	// #0
   811cc:	39002be0 	strb	w0, [sp, #10]
   811d0:	39402be0 	ldrb	w0, [sp, #10]
   811d4:	390027e0 	strb	w0, [sp, #9]
   811d8:	394027e0 	ldrb	w0, [sp, #9]
   811dc:	390023e0 	strb	w0, [sp, #8]
   811e0:	b0000020 	adrp	x0, 86000 <delay+0xb88>
   811e4:	f9428c00 	ldr	x0, [x0, #1304]
   811e8:	b9400000 	ldr	w0, [x0]
   811ec:	7100001f 	cmp	w0, #0x0
   811f0:	54000080 	b.eq	81200 <lfb_showpicture+0xc8>  // b.none
   811f4:	910023e0 	add	x0, sp, #0x8
   811f8:	b9400000 	ldr	w0, [x0]
   811fc:	14000008 	b	8121c <lfb_showpicture+0xe4>
   81200:	394023e0 	ldrb	w0, [sp, #8]
   81204:	53103c01 	lsl	w1, w0, #16
   81208:	394027e0 	ldrb	w0, [sp, #9]
   8120c:	53185c00 	lsl	w0, w0, #8
   81210:	2a000020 	orr	w0, w1, w0
   81214:	39402be1 	ldrb	w1, [sp, #10]
   81218:	2a010000 	orr	w0, w0, w1
   8121c:	f9400be1 	ldr	x1, [sp, #16]
   81220:	b9000020 	str	w0, [x1]
   81224:	f9400be0 	ldr	x0, [sp, #16]
   81228:	91001000 	add	x0, x0, #0x4
   8122c:	f9000be0 	str	x0, [sp, #16]
   81230:	b9401fe0 	ldr	w0, [sp, #28]
   81234:	11000400 	add	w0, w0, #0x1
   81238:	b9001fe0 	str	w0, [sp, #28]
   8123c:	b9401fe1 	ldr	w1, [sp, #28]
   81240:	b0000020 	adrp	x0, 86000 <delay+0xb88>
   81244:	f942e000 	ldr	x0, [x0, #1472]
   81248:	b9400000 	ldr	w0, [x0]
   8124c:	6b00003f 	cmp	w1, w0
   81250:	54fff883 	b.cc	81160 <lfb_showpicture+0x28>  // b.lo, b.ul, b.last
   81254:	b0000020 	adrp	x0, 86000 <delay+0xb88>
   81258:	f942c800 	ldr	x0, [x0, #1424]
   8125c:	b9400001 	ldr	w1, [x0]
   81260:	b0000020 	adrp	x0, 86000 <delay+0xb88>
   81264:	f942e000 	ldr	x0, [x0, #1472]
   81268:	b9400000 	ldr	w0, [x0]
   8126c:	531e7400 	lsl	w0, w0, #2
   81270:	4b000020 	sub	w0, w1, w0
   81274:	2a0003e0 	mov	w0, w0
   81278:	f9400be1 	ldr	x1, [sp, #16]
   8127c:	8b000020 	add	x0, x1, x0
   81280:	f9000be0 	str	x0, [sp, #16]
   81284:	b9401be0 	ldr	w0, [sp, #24]
   81288:	11000400 	add	w0, w0, #0x1
   8128c:	b9001be0 	str	w0, [sp, #24]
   81290:	b9401be1 	ldr	w1, [sp, #24]
   81294:	b0000020 	adrp	x0, 86000 <delay+0xb88>
   81298:	f942dc00 	ldr	x0, [x0, #1464]
   8129c:	b9400000 	ldr	w0, [x0]
   812a0:	6b00003f 	cmp	w1, w0
   812a4:	54fff5a3 	b.cc	81158 <lfb_showpicture+0x20>  // b.lo, b.ul, b.last
   812a8:	d503201f 	nop
   812ac:	d503201f 	nop
   812b0:	910083ff 	add	sp, sp, #0x20
   812b4:	d65f03c0 	ret

00000000000812b8 <schedule_tmp_kernel>:
   812b8:	d100c3ff 	sub	sp, sp, #0x30
   812bc:	f9000fe0 	str	x0, [sp, #24]
   812c0:	f9000be1 	str	x1, [sp, #16]
   812c4:	f90007e2 	str	x2, [sp, #8]
   812c8:	f90003e3 	str	x3, [sp]
   812cc:	f9400be1 	ldr	x1, [sp, #16]
   812d0:	f9400fe0 	ldr	x0, [sp, #24]
   812d4:	cb000020 	sub	x0, x1, x0
   812d8:	f90013e0 	str	x0, [sp, #32]
   812dc:	d2a00100 	mov	x0, #0x80000               	// #524288
   812e0:	f90017e0 	str	x0, [sp, #40]
   812e4:	1400002e 	b	8139c <schedule_tmp_kernel+0xe4>
   812e8:	f94017e1 	ldr	x1, [sp, #40]
   812ec:	f9400be0 	ldr	x0, [sp, #16]
   812f0:	eb00003f 	cmp	x1, x0
   812f4:	540000e8 	b.hi	81310 <schedule_tmp_kernel+0x58>  // b.pmore
   812f8:	f94017e1 	ldr	x1, [sp, #40]
   812fc:	f94013e0 	ldr	x0, [sp, #32]
   81300:	8b000020 	add	x0, x1, x0
   81304:	f9400fe1 	ldr	x1, [sp, #24]
   81308:	eb00003f 	cmp	x1, x0
   8130c:	54000423 	b.cc	81390 <schedule_tmp_kernel+0xd8>  // b.lo, b.ul, b.last
   81310:	f94017e1 	ldr	x1, [sp, #40]
   81314:	f94013e0 	ldr	x0, [sp, #32]
   81318:	8b000020 	add	x0, x1, x0
   8131c:	f9400fe1 	ldr	x1, [sp, #24]
   81320:	eb00003f 	cmp	x1, x0
   81324:	540000a8 	b.hi	81338 <schedule_tmp_kernel+0x80>  // b.pmore
   81328:	f94017e1 	ldr	x1, [sp, #40]
   8132c:	f9400be0 	ldr	x0, [sp, #16]
   81330:	eb00003f 	cmp	x1, x0
   81334:	540002e3 	b.cc	81390 <schedule_tmp_kernel+0xd8>  // b.lo, b.ul, b.last
   81338:	f94017e1 	ldr	x1, [sp, #40]
   8133c:	f94003e0 	ldr	x0, [sp]
   81340:	eb00003f 	cmp	x1, x0
   81344:	540000e8 	b.hi	81360 <schedule_tmp_kernel+0xa8>  // b.pmore
   81348:	f94017e1 	ldr	x1, [sp, #40]
   8134c:	f94013e0 	ldr	x0, [sp, #32]
   81350:	8b000020 	add	x0, x1, x0
   81354:	f94007e1 	ldr	x1, [sp, #8]
   81358:	eb00003f 	cmp	x1, x0
   8135c:	540001a3 	b.cc	81390 <schedule_tmp_kernel+0xd8>  // b.lo, b.ul, b.last
   81360:	f94017e1 	ldr	x1, [sp, #40]
   81364:	f94013e0 	ldr	x0, [sp, #32]
   81368:	8b000020 	add	x0, x1, x0
   8136c:	f94007e1 	ldr	x1, [sp, #8]
   81370:	eb00003f 	cmp	x1, x0
   81374:	540000a8 	b.hi	81388 <schedule_tmp_kernel+0xd0>  // b.pmore
   81378:	f94017e1 	ldr	x1, [sp, #40]
   8137c:	f94003e0 	ldr	x0, [sp]
   81380:	eb00003f 	cmp	x1, x0
   81384:	54000063 	b.cc	81390 <schedule_tmp_kernel+0xd8>  // b.lo, b.ul, b.last
   81388:	f94017e0 	ldr	x0, [sp, #40]
   8138c:	1400000e 	b	813c4 <schedule_tmp_kernel+0x10c>
   81390:	f94017e0 	ldr	x0, [sp, #40]
   81394:	91404000 	add	x0, x0, #0x10, lsl #12
   81398:	f90017e0 	str	x0, [sp, #40]
   8139c:	f94017e1 	ldr	x1, [sp, #40]
   813a0:	f94013e0 	ldr	x0, [sp, #32]
   813a4:	8b000021 	add	x1, x1, x0
   813a8:	b24077e0 	mov	x0, #0x3fffffff            	// #1073741823
   813ac:	eb00003f 	cmp	x1, x0
   813b0:	54000088 	b.hi	813c0 <schedule_tmp_kernel+0x108>  // b.pmore
   813b4:	f94013e0 	ldr	x0, [sp, #32]
   813b8:	f100001f 	cmp	x0, #0x0
   813bc:	54fff96c 	b.gt	812e8 <schedule_tmp_kernel+0x30>
   813c0:	d2800000 	mov	x0, #0x0                   	// #0
   813c4:	9100c3ff 	add	sp, sp, #0x30
   813c8:	d65f03c0 	ret

00000000000813cc <loadimg>:
   813cc:	a9ba7bfd 	stp	x29, x30, [sp, #-96]!
   813d0:	910003fd 	mov	x29, sp
   813d4:	90000020 	adrp	x0, 85000 <error_invalid_el0_64+0x94>
   813d8:	9129e000 	add	x0, x0, #0xa78
   813dc:	94000142 	bl	818e4 <uart_puts>
   813e0:	91005fe0 	add	x0, sp, #0x17
   813e4:	52800022 	mov	w2, #0x1                   	// #1
   813e8:	52800141 	mov	w1, #0xa                   	// #10
   813ec:	97fffd2e 	bl	808a4 <get_nature>
   813f0:	aa0003e1 	mov	x1, x0
   813f4:	b0000020 	adrp	x0, 86000 <delay+0xb88>
   813f8:	f942d800 	ldr	x0, [x0, #1456]
   813fc:	f9000001 	str	x1, [x0]
   81400:	39405fe0 	ldrb	w0, [sp, #23]
   81404:	7101001f 	cmp	w0, #0x40
   81408:	54000141 	b.ne	81430 <loadimg+0x64>  // b.any
   8140c:	52800022 	mov	w2, #0x1                   	// #1
   81410:	52800201 	mov	w1, #0x10                  	// #16
   81414:	d2800000 	mov	x0, #0x0                   	// #0
   81418:	97fffd23 	bl	808a4 <get_nature>
   8141c:	aa0003e1 	mov	x1, x0
   81420:	b0000020 	adrp	x0, 86000 <delay+0xb88>
   81424:	f9429000 	ldr	x0, [x0, #1312]
   81428:	f9000001 	str	x1, [x0]
   8142c:	14000006 	b	81444 <loadimg+0x78>
   81430:	b0000020 	adrp	x0, 86000 <delay+0xb88>
   81434:	f9429000 	ldr	x0, [x0, #1312]
   81438:	b0000021 	adrp	x1, 86000 <delay+0xb88>
   8143c:	f942ac21 	ldr	x1, [x1, #1368]
   81440:	f9000001 	str	x1, [x0]
   81444:	90000020 	adrp	x0, 85000 <error_invalid_el0_64+0x94>
   81448:	912a4000 	add	x0, x0, #0xa90
   8144c:	94000126 	bl	818e4 <uart_puts>
   81450:	90000020 	adrp	x0, 85000 <error_invalid_el0_64+0x94>
   81454:	91282000 	add	x0, x0, #0xa08
   81458:	94000123 	bl	818e4 <uart_puts>
   8145c:	b0000020 	adrp	x0, 86000 <delay+0xb88>
   81460:	f9429000 	ldr	x0, [x0, #1312]
   81464:	f9400001 	ldr	x1, [x0]
   81468:	b0000020 	adrp	x0, 86000 <delay+0xb88>
   8146c:	f942d800 	ldr	x0, [x0, #1456]
   81470:	f9400000 	ldr	x0, [x0]
   81474:	8b000021 	add	x1, x1, x0
   81478:	b0000020 	adrp	x0, 86000 <delay+0xb88>
   8147c:	f9427c00 	ldr	x0, [x0, #1272]
   81480:	f9000001 	str	x1, [x0]
   81484:	b0000020 	adrp	x0, 86000 <delay+0xb88>
   81488:	f9428000 	ldr	x0, [x0, #1280]
   8148c:	f90023e0 	str	x0, [sp, #64]
   81490:	b0000020 	adrp	x0, 86000 <delay+0xb88>
   81494:	f942ac00 	ldr	x0, [x0, #1368]
   81498:	f9001fe0 	str	x0, [sp, #56]
   8149c:	b0000020 	adrp	x0, 86000 <delay+0xb88>
   814a0:	f942c000 	ldr	x0, [x0, #1408]
   814a4:	f9001be0 	str	x0, [sp, #48]
   814a8:	b0000020 	adrp	x0, 86000 <delay+0xb88>
   814ac:	f9427c00 	ldr	x0, [x0, #1272]
   814b0:	f9400000 	ldr	x0, [x0]
   814b4:	f94023e1 	ldr	x1, [sp, #64]
   814b8:	eb00003f 	cmp	x1, x0
   814bc:	540000e8 	b.hi	814d8 <loadimg+0x10c>  // b.pmore
   814c0:	b0000020 	adrp	x0, 86000 <delay+0xb88>
   814c4:	f9429000 	ldr	x0, [x0, #1312]
   814c8:	f9400000 	ldr	x0, [x0]
   814cc:	f9401fe1 	ldr	x1, [sp, #56]
   814d0:	eb00003f 	cmp	x1, x0
   814d4:	540001a8 	b.hi	81508 <loadimg+0x13c>  // b.pmore
   814d8:	b0000020 	adrp	x0, 86000 <delay+0xb88>
   814dc:	f9429000 	ldr	x0, [x0, #1312]
   814e0:	f9400000 	ldr	x0, [x0]
   814e4:	f9401fe1 	ldr	x1, [sp, #56]
   814e8:	eb00003f 	cmp	x1, x0
   814ec:	54000c23 	b.cc	81670 <loadimg+0x2a4>  // b.lo, b.ul, b.last
   814f0:	b0000020 	adrp	x0, 86000 <delay+0xb88>
   814f4:	f9427c00 	ldr	x0, [x0, #1272]
   814f8:	f9400000 	ldr	x0, [x0]
   814fc:	f94023e1 	ldr	x1, [sp, #64]
   81500:	eb00003f 	cmp	x1, x0
   81504:	54000b62 	b.cs	81670 <loadimg+0x2a4>  // b.hs, b.nlast
   81508:	b0000020 	adrp	x0, 86000 <delay+0xb88>
   8150c:	f9429000 	ldr	x0, [x0, #1312]
   81510:	f9400001 	ldr	x1, [x0]
   81514:	b0000020 	adrp	x0, 86000 <delay+0xb88>
   81518:	f9427c00 	ldr	x0, [x0, #1272]
   8151c:	f9400000 	ldr	x0, [x0]
   81520:	aa0003e3 	mov	x3, x0
   81524:	aa0103e2 	mov	x2, x1
   81528:	f9401fe1 	ldr	x1, [sp, #56]
   8152c:	f94023e0 	ldr	x0, [sp, #64]
   81530:	97ffff62 	bl	812b8 <schedule_tmp_kernel>
   81534:	f90013e0 	str	x0, [sp, #32]
   81538:	f94013e0 	ldr	x0, [sp, #32]
   8153c:	f100001f 	cmp	x0, #0x0
   81540:	54001160 	b.eq	8176c <loadimg+0x3a0>  // b.none
   81544:	f94023e0 	ldr	x0, [sp, #64]
   81548:	f9002fe0 	str	x0, [sp, #88]
   8154c:	f94013e0 	ldr	x0, [sp, #32]
   81550:	f9002be0 	str	x0, [sp, #80]
   81554:	90000020 	adrp	x0, 85000 <error_invalid_el0_64+0x94>
   81558:	912a6000 	add	x0, x0, #0xa98
   8155c:	940000e2 	bl	818e4 <uart_puts>
   81560:	1400000b 	b	8158c <loadimg+0x1c0>
   81564:	f9402fe0 	ldr	x0, [sp, #88]
   81568:	39400001 	ldrb	w1, [x0]
   8156c:	f9402be0 	ldr	x0, [sp, #80]
   81570:	39000001 	strb	w1, [x0]
   81574:	f9402be0 	ldr	x0, [sp, #80]
   81578:	91000400 	add	x0, x0, #0x1
   8157c:	f9002be0 	str	x0, [sp, #80]
   81580:	f9402fe0 	ldr	x0, [sp, #88]
   81584:	91000400 	add	x0, x0, #0x1
   81588:	f9002fe0 	str	x0, [sp, #88]
   8158c:	f9402fe1 	ldr	x1, [sp, #88]
   81590:	f9401fe0 	ldr	x0, [sp, #56]
   81594:	eb00003f 	cmp	x1, x0
   81598:	54fffe61 	b.ne	81564 <loadimg+0x198>  // b.any
   8159c:	90000020 	adrp	x0, 85000 <error_invalid_el0_64+0x94>
   815a0:	91280000 	add	x0, x0, #0xa00
   815a4:	940000d0 	bl	818e4 <uart_puts>
   815a8:	90000020 	adrp	x0, 85000 <error_invalid_el0_64+0x94>
   815ac:	91282000 	add	x0, x0, #0xa08
   815b0:	940000cd 	bl	818e4 <uart_puts>
   815b4:	f9401be1 	ldr	x1, [sp, #48]
   815b8:	f94023e0 	ldr	x0, [sp, #64]
   815bc:	cb000020 	sub	x0, x1, x0
   815c0:	91002000 	add	x0, x0, #0x8
   815c4:	f94013e1 	ldr	x1, [sp, #32]
   815c8:	8b000020 	add	x0, x1, x0
   815cc:	f9000fe0 	str	x0, [sp, #24]
   815d0:	f9401fe2 	ldr	x2, [sp, #56]
   815d4:	f94023e1 	ldr	x1, [sp, #64]
   815d8:	90000020 	adrp	x0, 85000 <error_invalid_el0_64+0x94>
   815dc:	912ac000 	add	x0, x0, #0xab0
   815e0:	94000694 	bl	83030 <printf>
   815e4:	f9401fe1 	ldr	x1, [sp, #56]
   815e8:	f94023e0 	ldr	x0, [sp, #64]
   815ec:	cb000020 	sub	x0, x1, x0
   815f0:	aa0003e1 	mov	x1, x0
   815f4:	f94013e0 	ldr	x0, [sp, #32]
   815f8:	8b010000 	add	x0, x0, x1
   815fc:	aa0003e2 	mov	x2, x0
   81600:	f94013e1 	ldr	x1, [sp, #32]
   81604:	90000020 	adrp	x0, 85000 <error_invalid_el0_64+0x94>
   81608:	912b2000 	add	x0, x0, #0xac8
   8160c:	94000689 	bl	83030 <printf>
   81610:	b0000020 	adrp	x0, 86000 <delay+0xb88>
   81614:	f9429000 	ldr	x0, [x0, #1312]
   81618:	f9400001 	ldr	x1, [x0]
   8161c:	b0000020 	adrp	x0, 86000 <delay+0xb88>
   81620:	f9427c00 	ldr	x0, [x0, #1272]
   81624:	f9400000 	ldr	x0, [x0]
   81628:	aa0003e2 	mov	x2, x0
   8162c:	90000020 	adrp	x0, 85000 <error_invalid_el0_64+0x94>
   81630:	912b8000 	add	x0, x0, #0xae0
   81634:	9400067f 	bl	83030 <printf>
   81638:	f9401be1 	ldr	x1, [sp, #48]
   8163c:	90000020 	adrp	x0, 85000 <error_invalid_el0_64+0x94>
   81640:	912be000 	add	x0, x0, #0xaf8
   81644:	9400067b 	bl	83030 <printf>
   81648:	f9400fe1 	ldr	x1, [sp, #24]
   8164c:	90000020 	adrp	x0, 85000 <error_invalid_el0_64+0x94>
   81650:	91296000 	add	x0, x0, #0xa58
   81654:	94000677 	bl	83030 <printf>
   81658:	90000020 	adrp	x0, 85000 <error_invalid_el0_64+0x94>
   8165c:	912c4000 	add	x0, x0, #0xb10
   81660:	940000a1 	bl	818e4 <uart_puts>
   81664:	f9400fe0 	ldr	x0, [sp, #24]
   81668:	d61f0000 	br	x0
   8166c:	14000040 	b	8176c <loadimg+0x3a0>
   81670:	b0000020 	adrp	x0, 86000 <delay+0xb88>
   81674:	f9429000 	ldr	x0, [x0, #1312]
   81678:	f9400000 	ldr	x0, [x0]
   8167c:	f90027e0 	str	x0, [sp, #72]
   81680:	b0000020 	adrp	x0, 86000 <delay+0xb88>
   81684:	f9429000 	ldr	x0, [x0, #1312]
   81688:	f9400000 	ldr	x0, [x0]
   8168c:	aa0003e1 	mov	x1, x0
   81690:	90000020 	adrp	x0, 85000 <error_invalid_el0_64+0x94>
   81694:	91284000 	add	x0, x0, #0xa10
   81698:	94000666 	bl	83030 <printf>
   8169c:	b0000020 	adrp	x0, 86000 <delay+0xb88>
   816a0:	f942d800 	ldr	x0, [x0, #1456]
   816a4:	f9400000 	ldr	x0, [x0]
   816a8:	f94027e1 	ldr	x1, [sp, #72]
   816ac:	aa0103e2 	mov	x2, x1
   816b0:	aa0003e1 	mov	x1, x0
   816b4:	90000020 	adrp	x0, 85000 <error_invalid_el0_64+0x94>
   816b8:	91288000 	add	x0, x0, #0xa20
   816bc:	9400065d 	bl	83030 <printf>
   816c0:	90000020 	adrp	x0, 85000 <error_invalid_el0_64+0x94>
   816c4:	9128e000 	add	x0, x0, #0xa38
   816c8:	94000087 	bl	818e4 <uart_puts>
   816cc:	14000008 	b	816ec <loadimg+0x320>
   816d0:	9400006b 	bl	8187c <uart_recv>
   816d4:	3900bfe0 	strb	w0, [sp, #47]
   816d8:	f94027e0 	ldr	x0, [sp, #72]
   816dc:	91000401 	add	x1, x0, #0x1
   816e0:	f90027e1 	str	x1, [sp, #72]
   816e4:	3940bfe1 	ldrb	w1, [sp, #47]
   816e8:	39000001 	strb	w1, [x0]
   816ec:	b0000020 	adrp	x0, 86000 <delay+0xb88>
   816f0:	f942d800 	ldr	x0, [x0, #1456]
   816f4:	f9400000 	ldr	x0, [x0]
   816f8:	d1000402 	sub	x2, x0, #0x1
   816fc:	b0000021 	adrp	x1, 86000 <delay+0xb88>
   81700:	f942d821 	ldr	x1, [x1, #1456]
   81704:	f9000022 	str	x2, [x1]
   81708:	f100001f 	cmp	x0, #0x0
   8170c:	54fffe21 	b.ne	816d0 <loadimg+0x304>  // b.any
   81710:	90000020 	adrp	x0, 85000 <error_invalid_el0_64+0x94>
   81714:	91280000 	add	x0, x0, #0xa00
   81718:	94000073 	bl	818e4 <uart_puts>
   8171c:	90000020 	adrp	x0, 85000 <error_invalid_el0_64+0x94>
   81720:	91282000 	add	x0, x0, #0xa08
   81724:	94000070 	bl	818e4 <uart_puts>
   81728:	b0000020 	adrp	x0, 86000 <delay+0xb88>
   8172c:	f9429000 	ldr	x0, [x0, #1312]
   81730:	f9400000 	ldr	x0, [x0]
   81734:	aa0003e1 	mov	x1, x0
   81738:	90000020 	adrp	x0, 85000 <error_invalid_el0_64+0x94>
   8173c:	91296000 	add	x0, x0, #0xa58
   81740:	9400063c 	bl	83030 <printf>
   81744:	b0000020 	adrp	x0, 86000 <delay+0xb88>
   81748:	f9429000 	ldr	x0, [x0, #1312]
   8174c:	f9400000 	ldr	x0, [x0]
   81750:	d61f0000 	br	x0
   81754:	90000020 	adrp	x0, 85000 <error_invalid_el0_64+0x94>
   81758:	9129a000 	add	x0, x0, #0xa68
   8175c:	94000062 	bl	818e4 <uart_puts>
   81760:	90000020 	adrp	x0, 85000 <error_invalid_el0_64+0x94>
   81764:	91282000 	add	x0, x0, #0xa08
   81768:	9400005f 	bl	818e4 <uart_puts>
   8176c:	b0000020 	adrp	x0, 86000 <delay+0xb88>
   81770:	f9429000 	ldr	x0, [x0, #1312]
   81774:	f9400000 	ldr	x0, [x0]
   81778:	aa0003e1 	mov	x1, x0
   8177c:	90000020 	adrp	x0, 85000 <error_invalid_el0_64+0x94>
   81780:	912ce000 	add	x0, x0, #0xb38
   81784:	9400062b 	bl	83030 <printf>
   81788:	d503201f 	nop
   8178c:	a8c67bfd 	ldp	x29, x30, [sp], #96
   81790:	d65f03c0 	ret

0000000000081794 <mbox_call>:
   81794:	d10083ff 	sub	sp, sp, #0x20
   81798:	39003fe0 	strb	w0, [sp, #15]
   8179c:	39403fe0 	ldrb	w0, [sp, #15]
   817a0:	12000c01 	and	w1, w0, #0xf
   817a4:	b0000020 	adrp	x0, 86000 <delay+0xb88>
   817a8:	f9427800 	ldr	x0, [x0, #1264]
   817ac:	121c6c00 	and	w0, w0, #0xfffffff0
   817b0:	2a000020 	orr	w0, w1, w0
   817b4:	b9001fe0 	str	w0, [sp, #28]
   817b8:	d503201f 	nop
   817bc:	d2971300 	mov	x0, #0xb898                	// #47256
   817c0:	f2a7e000 	movk	x0, #0x3f00, lsl #16
   817c4:	b9400000 	ldr	w0, [x0]
   817c8:	7100001f 	cmp	w0, #0x0
   817cc:	54ffff6b 	b.lt	817b8 <mbox_call+0x24>  // b.tstop
   817d0:	d2971400 	mov	x0, #0xb8a0                	// #47264
   817d4:	f2a7e000 	movk	x0, #0x3f00, lsl #16
   817d8:	b9401fe1 	ldr	w1, [sp, #28]
   817dc:	b9000001 	str	w1, [x0]
   817e0:	d503201f 	nop
   817e4:	d2971300 	mov	x0, #0xb898                	// #47256
   817e8:	f2a7e000 	movk	x0, #0x3f00, lsl #16
   817ec:	b9400000 	ldr	w0, [x0]
   817f0:	12020000 	and	w0, w0, #0x40000000
   817f4:	7100001f 	cmp	w0, #0x0
   817f8:	54ffff41 	b.ne	817e0 <mbox_call+0x4c>  // b.any
   817fc:	d2971000 	mov	x0, #0xb880                	// #47232
   81800:	f2a7e000 	movk	x0, #0x3f00, lsl #16
   81804:	b9400000 	ldr	w0, [x0]
   81808:	b9401fe1 	ldr	w1, [sp, #28]
   8180c:	6b00003f 	cmp	w1, w0
   81810:	54fffe81 	b.ne	817e0 <mbox_call+0x4c>  // b.any
   81814:	b0000020 	adrp	x0, 86000 <delay+0xb88>
   81818:	f9427800 	ldr	x0, [x0, #1264]
   8181c:	b9400401 	ldr	w1, [x0, #4]
   81820:	52b00000 	mov	w0, #0x80000000            	// #-2147483648
   81824:	6b00003f 	cmp	w1, w0
   81828:	1a9f17e0 	cset	w0, eq  // eq = none
   8182c:	12001c00 	and	w0, w0, #0xff
   81830:	910083ff 	add	sp, sp, #0x20
   81834:	d65f03c0 	ret

0000000000081838 <uart_send>:
   81838:	d10043ff 	sub	sp, sp, #0x10
   8183c:	b9000fe0 	str	w0, [sp, #12]
   81840:	14000002 	b	81848 <uart_send+0x10>
   81844:	d503201f 	nop
   81848:	d28a0a80 	mov	x0, #0x5054                	// #20564
   8184c:	f2a7e420 	movk	x0, #0x3f21, lsl #16
   81850:	b9400000 	ldr	w0, [x0]
   81854:	121b0000 	and	w0, w0, #0x20
   81858:	7100001f 	cmp	w0, #0x0
   8185c:	54ffff40 	b.eq	81844 <uart_send+0xc>  // b.none
   81860:	d28a0800 	mov	x0, #0x5040                	// #20544
   81864:	f2a7e420 	movk	x0, #0x3f21, lsl #16
   81868:	b9400fe1 	ldr	w1, [sp, #12]
   8186c:	b9000001 	str	w1, [x0]
   81870:	d503201f 	nop
   81874:	910043ff 	add	sp, sp, #0x10
   81878:	d65f03c0 	ret

000000000008187c <uart_recv>:
   8187c:	14000002 	b	81884 <uart_recv+0x8>
   81880:	d503201f 	nop
   81884:	d28a0a80 	mov	x0, #0x5054                	// #20564
   81888:	f2a7e420 	movk	x0, #0x3f21, lsl #16
   8188c:	b9400000 	ldr	w0, [x0]
   81890:	12000000 	and	w0, w0, #0x1
   81894:	7100001f 	cmp	w0, #0x0
   81898:	54ffff40 	b.eq	81880 <uart_recv+0x4>  // b.none
   8189c:	d28a0800 	mov	x0, #0x5040                	// #20544
   818a0:	f2a7e420 	movk	x0, #0x3f21, lsl #16
   818a4:	b9400000 	ldr	w0, [x0]
   818a8:	12001c00 	and	w0, w0, #0xff
   818ac:	d65f03c0 	ret

00000000000818b0 <uart_flush>:
   818b0:	14000004 	b	818c0 <uart_flush+0x10>
   818b4:	d28a0800 	mov	x0, #0x5040                	// #20544
   818b8:	f2a7e420 	movk	x0, #0x3f21, lsl #16
   818bc:	b9400000 	ldr	w0, [x0]
   818c0:	d28a0a80 	mov	x0, #0x5054                	// #20564
   818c4:	f2a7e420 	movk	x0, #0x3f21, lsl #16
   818c8:	b9400000 	ldr	w0, [x0]
   818cc:	12000000 	and	w0, w0, #0x1
   818d0:	7100001f 	cmp	w0, #0x0
   818d4:	54ffff01 	b.ne	818b4 <uart_flush+0x4>  // b.any
   818d8:	d503201f 	nop
   818dc:	d503201f 	nop
   818e0:	d65f03c0 	ret

00000000000818e4 <uart_puts>:
   818e4:	a9be7bfd 	stp	x29, x30, [sp, #-32]!
   818e8:	910003fd 	mov	x29, sp
   818ec:	f9000fe0 	str	x0, [sp, #24]
   818f0:	14000007 	b	8190c <uart_puts+0x28>
   818f4:	f9400fe0 	ldr	x0, [sp, #24]
   818f8:	39400000 	ldrb	w0, [x0]
   818fc:	97ffffcf 	bl	81838 <uart_send>
   81900:	f9400fe0 	ldr	x0, [sp, #24]
   81904:	91000400 	add	x0, x0, #0x1
   81908:	f9000fe0 	str	x0, [sp, #24]
   8190c:	f9400fe0 	ldr	x0, [sp, #24]
   81910:	39400000 	ldrb	w0, [x0]
   81914:	7100001f 	cmp	w0, #0x0
   81918:	54fffee1 	b.ne	818f4 <uart_puts+0x10>  // b.any
   8191c:	d503201f 	nop
   81920:	d503201f 	nop
   81924:	a8c27bfd 	ldp	x29, x30, [sp], #32
   81928:	d65f03c0 	ret

000000000008192c <uart_init>:
   8192c:	d10043ff 	sub	sp, sp, #0x10
   81930:	d2800080 	mov	x0, #0x4                   	// #4
   81934:	f2a7e400 	movk	x0, #0x3f20, lsl #16
   81938:	b9400000 	ldr	w0, [x0]
   8193c:	b90007e0 	str	w0, [sp, #4]
   81940:	b94007e0 	ldr	w0, [sp, #4]
   81944:	12117000 	and	w0, w0, #0xffff8fff
   81948:	b90007e0 	str	w0, [sp, #4]
   8194c:	b94007e0 	ldr	w0, [sp, #4]
   81950:	32130000 	orr	w0, w0, #0x2000
   81954:	b90007e0 	str	w0, [sp, #4]
   81958:	b94007e0 	ldr	w0, [sp, #4]
   8195c:	120e7000 	and	w0, w0, #0xfffc7fff
   81960:	b90007e0 	str	w0, [sp, #4]
   81964:	b94007e0 	ldr	w0, [sp, #4]
   81968:	32100000 	orr	w0, w0, #0x10000
   8196c:	b90007e0 	str	w0, [sp, #4]
   81970:	d2800080 	mov	x0, #0x4                   	// #4
   81974:	f2a7e400 	movk	x0, #0x3f20, lsl #16
   81978:	b94007e1 	ldr	w1, [sp, #4]
   8197c:	b9000001 	str	w1, [x0]
   81980:	d2801280 	mov	x0, #0x94                  	// #148
   81984:	f2a7e400 	movk	x0, #0x3f20, lsl #16
   81988:	b900001f 	str	wzr, [x0]
   8198c:	528012c0 	mov	w0, #0x96                  	// #150
   81990:	b9000fe0 	str	w0, [sp, #12]
   81994:	14000002 	b	8199c <uart_init+0x70>
   81998:	d503201f 	nop
   8199c:	b9400fe0 	ldr	w0, [sp, #12]
   819a0:	51000401 	sub	w1, w0, #0x1
   819a4:	b9000fe1 	str	w1, [sp, #12]
   819a8:	7100001f 	cmp	w0, #0x0
   819ac:	54ffff61 	b.ne	81998 <uart_init+0x6c>  // b.any
   819b0:	d2801300 	mov	x0, #0x98                  	// #152
   819b4:	f2a7e400 	movk	x0, #0x3f20, lsl #16
   819b8:	52980001 	mov	w1, #0xc000                	// #49152
   819bc:	b9000001 	str	w1, [x0]
   819c0:	528012c0 	mov	w0, #0x96                  	// #150
   819c4:	b9000be0 	str	w0, [sp, #8]
   819c8:	14000002 	b	819d0 <uart_init+0xa4>
   819cc:	d503201f 	nop
   819d0:	b9400be0 	ldr	w0, [sp, #8]
   819d4:	51000401 	sub	w1, w0, #0x1
   819d8:	b9000be1 	str	w1, [sp, #8]
   819dc:	7100001f 	cmp	w0, #0x0
   819e0:	54ffff61 	b.ne	819cc <uart_init+0xa0>  // b.any
   819e4:	d2801300 	mov	x0, #0x98                  	// #152
   819e8:	f2a7e400 	movk	x0, #0x3f20, lsl #16
   819ec:	b900001f 	str	wzr, [x0]
   819f0:	d28a0080 	mov	x0, #0x5004                	// #20484
   819f4:	f2a7e420 	movk	x0, #0x3f21, lsl #16
   819f8:	52800021 	mov	w1, #0x1                   	// #1
   819fc:	b9000001 	str	w1, [x0]
   81a00:	d28a0c00 	mov	x0, #0x5060                	// #20576
   81a04:	f2a7e420 	movk	x0, #0x3f21, lsl #16
   81a08:	b900001f 	str	wzr, [x0]
   81a0c:	d28a0880 	mov	x0, #0x5044                	// #20548
   81a10:	f2a7e420 	movk	x0, #0x3f21, lsl #16
   81a14:	528001a1 	mov	w1, #0xd                   	// #13
   81a18:	b9000001 	str	w1, [x0]
   81a1c:	d28a0980 	mov	x0, #0x504c                	// #20556
   81a20:	f2a7e420 	movk	x0, #0x3f21, lsl #16
   81a24:	52800061 	mov	w1, #0x3                   	// #3
   81a28:	b9000001 	str	w1, [x0]
   81a2c:	d28a0a00 	mov	x0, #0x5050                	// #20560
   81a30:	f2a7e420 	movk	x0, #0x3f21, lsl #16
   81a34:	b900001f 	str	wzr, [x0]
   81a38:	d28a0d00 	mov	x0, #0x5068                	// #20584
   81a3c:	f2a7e420 	movk	x0, #0x3f21, lsl #16
   81a40:	528021c1 	mov	w1, #0x10e                 	// #270
   81a44:	b9000001 	str	w1, [x0]
   81a48:	d28a0c00 	mov	x0, #0x5060                	// #20576
   81a4c:	f2a7e420 	movk	x0, #0x3f21, lsl #16
   81a50:	52800061 	mov	w1, #0x3                   	// #3
   81a54:	b9000001 	str	w1, [x0]
   81a58:	d503201f 	nop
   81a5c:	910043ff 	add	sp, sp, #0x10
   81a60:	d65f03c0 	ret

0000000000081a64 <reset>:
   81a64:	d10083ff 	sub	sp, sp, #0x20
   81a68:	b9000fe0 	str	w0, [sp, #12]
   81a6c:	d2800400 	mov	x0, #0x20                  	// #32
   81a70:	f2a7e200 	movk	x0, #0x3f10, lsl #16
   81a74:	b9400000 	ldr	w0, [x0]
   81a78:	b9001fe0 	str	w0, [sp, #28]
   81a7c:	b9401fe1 	ldr	w1, [sp, #28]
   81a80:	5280aaa0 	mov	w0, #0x555                 	// #1365
   81a84:	0a000020 	and	w0, w1, w0
   81a88:	b9001fe0 	str	w0, [sp, #28]
   81a8c:	d2800400 	mov	x0, #0x20                  	// #32
   81a90:	f2a7e200 	movk	x0, #0x3f10, lsl #16
   81a94:	b9401fe2 	ldr	w2, [sp, #28]
   81a98:	52ab4001 	mov	w1, #0x5a000000            	// #1509949440
   81a9c:	2a010041 	orr	w1, w2, w1
   81aa0:	b9000001 	str	w1, [x0]
   81aa4:	b9400fe1 	ldr	w1, [sp, #12]
   81aa8:	52ab4000 	mov	w0, #0x5a000000            	// #1509949440
   81aac:	2a000021 	orr	w1, w1, w0
   81ab0:	d2800480 	mov	x0, #0x24                  	// #36
   81ab4:	f2a7e200 	movk	x0, #0x3f10, lsl #16
   81ab8:	b9000001 	str	w1, [x0]
   81abc:	d2800380 	mov	x0, #0x1c                  	// #28
   81ac0:	f2a7e200 	movk	x0, #0x3f10, lsl #16
   81ac4:	52800401 	mov	w1, #0x20                  	// #32
   81ac8:	72ab4001 	movk	w1, #0x5a00, lsl #16
   81acc:	b9000001 	str	w1, [x0]
   81ad0:	d503201f 	nop
   81ad4:	910083ff 	add	sp, sp, #0x20
   81ad8:	d65f03c0 	ret

0000000000081adc <tasks_pos>:
   81adc:	d10083ff 	sub	sp, sp, #0x20
   81ae0:	f90007e0 	str	x0, [sp, #8]
   81ae4:	b9001fff 	str	wzr, [sp, #28]
   81ae8:	1400000d 	b	81b1c <tasks_pos+0x40>
   81aec:	b0000020 	adrp	x0, 86000 <delay+0xb88>
   81af0:	f9427400 	ldr	x0, [x0, #1256]
   81af4:	b9801fe1 	ldrsw	x1, [sp, #28]
   81af8:	f8617800 	ldr	x0, [x0, x1, lsl #3]
   81afc:	f94007e1 	ldr	x1, [sp, #8]
   81b00:	eb00003f 	cmp	x1, x0
   81b04:	54000061 	b.ne	81b10 <tasks_pos+0x34>  // b.any
   81b08:	b9401fe0 	ldr	w0, [sp, #28]
   81b0c:	14000008 	b	81b2c <tasks_pos+0x50>
   81b10:	b9401fe0 	ldr	w0, [sp, #28]
   81b14:	11000400 	add	w0, w0, #0x1
   81b18:	b9001fe0 	str	w0, [sp, #28]
   81b1c:	b9401fe0 	ldr	w0, [sp, #28]
   81b20:	7101001f 	cmp	w0, #0x40
   81b24:	54fffe4d 	b.le	81aec <tasks_pos+0x10>
   81b28:	12800000 	mov	w0, #0xffffffff            	// #-1
   81b2c:	910083ff 	add	sp, sp, #0x20
   81b30:	d65f03c0 	ret

0000000000081b34 <context_switch>:
   81b34:	a9bd7bfd 	stp	x29, x30, [sp, #-48]!
   81b38:	910003fd 	mov	x29, sp
   81b3c:	f9000fe0 	str	x0, [sp, #24]
   81b40:	b0000020 	adrp	x0, 86000 <delay+0xb88>
   81b44:	f942b800 	ldr	x0, [x0, #1392]
   81b48:	f9400000 	ldr	x0, [x0]
   81b4c:	f90017e0 	str	x0, [sp, #40]
   81b50:	b0000020 	adrp	x0, 86000 <delay+0xb88>
   81b54:	f942b800 	ldr	x0, [x0, #1392]
   81b58:	f9400fe1 	ldr	x1, [sp, #24]
   81b5c:	f9000001 	str	x1, [x0]
   81b60:	b0000020 	adrp	x0, 86000 <delay+0xb88>
   81b64:	f942b800 	ldr	x0, [x0, #1392]
   81b68:	f9400000 	ldr	x0, [x0]
   81b6c:	52800081 	mov	w1, #0x4                   	// #4
   81b70:	b901a001 	str	w1, [x0, #416]
   81b74:	f9400fe0 	ldr	x0, [sp, #24]
   81b78:	f9402c00 	ldr	x0, [x0, #88]
   81b7c:	aa0003e2 	mov	x2, x0
   81b80:	b0000020 	adrp	x0, 86000 <delay+0xb88>
   81b84:	f942b401 	ldr	x1, [x0, #1384]
   81b88:	90000020 	adrp	x0, 85000 <error_invalid_el0_64+0x94>
   81b8c:	912e2000 	add	x0, x0, #0xb88
   81b90:	94000528 	bl	83030 <printf>
   81b94:	f9400fe1 	ldr	x1, [sp, #24]
   81b98:	f94017e0 	ldr	x0, [sp, #40]
   81b9c:	94000dfc 	bl	8538c <switch_to>
   81ba0:	d503201f 	nop
   81ba4:	a8c37bfd 	ldp	x29, x30, [sp], #48
   81ba8:	d65f03c0 	ret

0000000000081bac <_schedule>:
   81bac:	a9be7bfd 	stp	x29, x30, [sp, #-32]!
   81bb0:	910003fd 	mov	x29, sp
   81bb4:	9400061a 	bl	8341c <preempt_disable>
   81bb8:	b0000020 	adrp	x0, 86000 <delay+0xb88>
   81bbc:	f942b800 	ldr	x0, [x0, #1392]
   81bc0:	f9400000 	ldr	x0, [x0]
   81bc4:	aa0003e1 	mov	x1, x0
   81bc8:	90000020 	adrp	x0, 85000 <error_invalid_el0_64+0x94>
   81bcc:	912e8000 	add	x0, x0, #0xba0
   81bd0:	94000518 	bl	83030 <printf>
   81bd4:	b0000020 	adrp	x0, 86000 <delay+0xb88>
   81bd8:	f942b800 	ldr	x0, [x0, #1392]
   81bdc:	f9400000 	ldr	x0, [x0]
   81be0:	97ffffbf 	bl	81adc <tasks_pos>
   81be4:	b9001be0 	str	w0, [sp, #24]
   81be8:	b9401be0 	ldr	w0, [sp, #24]
   81bec:	11000400 	add	w0, w0, #0x1
   81bf0:	6b0003e1 	negs	w1, w0
   81bf4:	12001400 	and	w0, w0, #0x3f
   81bf8:	12001421 	and	w1, w1, #0x3f
   81bfc:	5a814400 	csneg	w0, w0, w1, mi  // mi = first
   81c00:	b9001fe0 	str	w0, [sp, #28]
   81c04:	14000027 	b	81ca0 <_schedule+0xf4>
   81c08:	b0000020 	adrp	x0, 86000 <delay+0xb88>
   81c0c:	f9427400 	ldr	x0, [x0, #1256]
   81c10:	b9801fe1 	ldrsw	x1, [sp, #28]
   81c14:	f8617800 	ldr	x0, [x0, x1, lsl #3]
   81c18:	f100001f 	cmp	x0, #0x0
   81c1c:	54000340 	b.eq	81c84 <_schedule+0xd8>  // b.none
   81c20:	b0000020 	adrp	x0, 86000 <delay+0xb88>
   81c24:	f9427400 	ldr	x0, [x0, #1256]
   81c28:	b9801fe1 	ldrsw	x1, [sp, #28]
   81c2c:	f8617800 	ldr	x0, [x0, x1, lsl #3]
   81c30:	b941a000 	ldr	w0, [x0, #416]
   81c34:	7100081f 	cmp	w0, #0x2
   81c38:	54000100 	b.eq	81c58 <_schedule+0xac>  // b.none
   81c3c:	b0000020 	adrp	x0, 86000 <delay+0xb88>
   81c40:	f9427400 	ldr	x0, [x0, #1256]
   81c44:	b9801fe1 	ldrsw	x1, [sp, #28]
   81c48:	f8617800 	ldr	x0, [x0, x1, lsl #3]
   81c4c:	b941a000 	ldr	w0, [x0, #416]
   81c50:	7100041f 	cmp	w0, #0x1
   81c54:	54000181 	b.ne	81c84 <_schedule+0xd8>  // b.any
   81c58:	b0000020 	adrp	x0, 86000 <delay+0xb88>
   81c5c:	f9427400 	ldr	x0, [x0, #1256]
   81c60:	b9801fe1 	ldrsw	x1, [sp, #28]
   81c64:	f8617800 	ldr	x0, [x0, x1, lsl #3]
   81c68:	f9402c00 	ldr	x0, [x0, #88]
   81c6c:	aa0003e2 	mov	x2, x0
   81c70:	b9401fe1 	ldr	w1, [sp, #28]
   81c74:	90000020 	adrp	x0, 85000 <error_invalid_el0_64+0x94>
   81c78:	912ee000 	add	x0, x0, #0xbb8
   81c7c:	940004ed 	bl	83030 <printf>
   81c80:	1400000c 	b	81cb0 <_schedule+0x104>
   81c84:	b9401fe0 	ldr	w0, [sp, #28]
   81c88:	11000400 	add	w0, w0, #0x1
   81c8c:	6b0003e1 	negs	w1, w0
   81c90:	12001400 	and	w0, w0, #0x3f
   81c94:	12001421 	and	w1, w1, #0x3f
   81c98:	5a814400 	csneg	w0, w0, w1, mi  // mi = first
   81c9c:	b9001fe0 	str	w0, [sp, #28]
   81ca0:	b9401fe1 	ldr	w1, [sp, #28]
   81ca4:	b9401be0 	ldr	w0, [sp, #24]
   81ca8:	6b00003f 	cmp	w1, w0
   81cac:	54fffae1 	b.ne	81c08 <_schedule+0x5c>  // b.any
   81cb0:	b9401fe1 	ldr	w1, [sp, #28]
   81cb4:	90000020 	adrp	x0, 85000 <error_invalid_el0_64+0x94>
   81cb8:	912f4000 	add	x0, x0, #0xbd0
   81cbc:	940004dd 	bl	83030 <printf>
   81cc0:	b0000020 	adrp	x0, 86000 <delay+0xb88>
   81cc4:	f942b800 	ldr	x0, [x0, #1392]
   81cc8:	f9400000 	ldr	x0, [x0]
   81ccc:	f100001f 	cmp	x0, #0x0
   81cd0:	540001e0 	b.eq	81d0c <_schedule+0x160>  // b.none
   81cd4:	b0000020 	adrp	x0, 86000 <delay+0xb88>
   81cd8:	f942b800 	ldr	x0, [x0, #1392]
   81cdc:	f9400000 	ldr	x0, [x0]
   81ce0:	52800041 	mov	w1, #0x2                   	// #2
   81ce4:	b901a001 	str	w1, [x0, #416]
   81ce8:	b0000020 	adrp	x0, 86000 <delay+0xb88>
   81cec:	f942b800 	ldr	x0, [x0, #1392]
   81cf0:	f9400000 	ldr	x0, [x0]
   81cf4:	f940c001 	ldr	x1, [x0, #384]
   81cf8:	b0000020 	adrp	x0, 86000 <delay+0xb88>
   81cfc:	f942b800 	ldr	x0, [x0, #1392]
   81d00:	f9400000 	ldr	x0, [x0]
   81d04:	927ff821 	and	x1, x1, #0xfffffffffffffffe
   81d08:	f900c001 	str	x1, [x0, #384]
   81d0c:	b0000020 	adrp	x0, 86000 <delay+0xb88>
   81d10:	f9427400 	ldr	x0, [x0, #1256]
   81d14:	b9801fe1 	ldrsw	x1, [sp, #28]
   81d18:	f8617801 	ldr	x1, [x0, x1, lsl #3]
   81d1c:	b0000020 	adrp	x0, 86000 <delay+0xb88>
   81d20:	f942b800 	ldr	x0, [x0, #1392]
   81d24:	f9400000 	ldr	x0, [x0]
   81d28:	eb00003f 	cmp	x1, x0
   81d2c:	540001c0 	b.eq	81d64 <_schedule+0x1b8>  // b.none
   81d30:	b0000020 	adrp	x0, 86000 <delay+0xb88>
   81d34:	f9427400 	ldr	x0, [x0, #1256]
   81d38:	b9801fe1 	ldrsw	x1, [sp, #28]
   81d3c:	f8617801 	ldr	x1, [x0, x1, lsl #3]
   81d40:	b0000020 	adrp	x0, 86000 <delay+0xb88>
   81d44:	f9427000 	ldr	x0, [x0, #1248]
   81d48:	f9000001 	str	x1, [x0]
   81d4c:	b0000020 	adrp	x0, 86000 <delay+0xb88>
   81d50:	f9427400 	ldr	x0, [x0, #1256]
   81d54:	b9801fe1 	ldrsw	x1, [sp, #28]
   81d58:	f8617800 	ldr	x0, [x0, x1, lsl #3]
   81d5c:	97ffff76 	bl	81b34 <context_switch>
   81d60:	14000002 	b	81d68 <_schedule+0x1bc>
   81d64:	d503201f 	nop
   81d68:	a8c27bfd 	ldp	x29, x30, [sp], #32
   81d6c:	d65f03c0 	ret

0000000000081d70 <schedule_tail>:
   81d70:	a9bf7bfd 	stp	x29, x30, [sp, #-16]!
   81d74:	910003fd 	mov	x29, sp
   81d78:	90000020 	adrp	x0, 85000 <error_invalid_el0_64+0x94>
   81d7c:	912f8000 	add	x0, x0, #0xbe0
   81d80:	97fffed9 	bl	818e4 <uart_puts>
   81d84:	90000020 	adrp	x0, 85000 <error_invalid_el0_64+0x94>
   81d88:	912fc000 	add	x0, x0, #0xbf0
   81d8c:	97fffed6 	bl	818e4 <uart_puts>
   81d90:	9400059b 	bl	833fc <preempt_enable>
   81d94:	d503201f 	nop
   81d98:	a8c17bfd 	ldp	x29, x30, [sp], #16
   81d9c:	d65f03c0 	ret

0000000000081da0 <show_addr>:
   81da0:	a9be7bfd 	stp	x29, x30, [sp, #-32]!
   81da4:	910003fd 	mov	x29, sp
   81da8:	f9000fe0 	str	x0, [sp, #24]
   81dac:	f9400fe1 	ldr	x1, [sp, #24]
   81db0:	90000020 	adrp	x0, 85000 <error_invalid_el0_64+0x94>
   81db4:	912fe000 	add	x0, x0, #0xbf8
   81db8:	9400049e 	bl	83030 <printf>
   81dbc:	d503201f 	nop
   81dc0:	a8c27bfd 	ldp	x29, x30, [sp], #32
   81dc4:	d65f03c0 	ret

0000000000081dc8 <schedule>:
   81dc8:	a9bf7bfd 	stp	x29, x30, [sp, #-16]!
   81dcc:	910003fd 	mov	x29, sp
   81dd0:	b0000020 	adrp	x0, 86000 <delay+0xb88>
   81dd4:	f942b800 	ldr	x0, [x0, #1392]
   81dd8:	f9400000 	ldr	x0, [x0]
   81ddc:	f900c41f 	str	xzr, [x0, #392]
   81de0:	97ffff73 	bl	81bac <_schedule>
   81de4:	d503201f 	nop
   81de8:	a8c17bfd 	ldp	x29, x30, [sp], #16
   81dec:	d65f03c0 	ret

0000000000081df0 <check_resched>:
   81df0:	a9bf7bfd 	stp	x29, x30, [sp, #-16]!
   81df4:	910003fd 	mov	x29, sp
   81df8:	90000020 	adrp	x0, 85000 <error_invalid_el0_64+0x94>
   81dfc:	91302000 	add	x0, x0, #0xc08
   81e00:	97fffeb9 	bl	818e4 <uart_puts>
   81e04:	b0000020 	adrp	x0, 86000 <delay+0xb88>
   81e08:	f942b800 	ldr	x0, [x0, #1392]
   81e0c:	f9400000 	ldr	x0, [x0]
   81e10:	f940c000 	ldr	x0, [x0, #384]
   81e14:	92400000 	and	x0, x0, #0x1
   81e18:	f100001f 	cmp	x0, #0x0
   81e1c:	54000100 	b.eq	81e3c <check_resched+0x4c>  // b.none
   81e20:	90000020 	adrp	x0, 85000 <error_invalid_el0_64+0x94>
   81e24:	91308000 	add	x0, x0, #0xc20
   81e28:	97fffeaf 	bl	818e4 <uart_puts>
   81e2c:	90000020 	adrp	x0, 85000 <error_invalid_el0_64+0x94>
   81e30:	912fc000 	add	x0, x0, #0xbf0
   81e34:	97fffeac 	bl	818e4 <uart_puts>
   81e38:	97ffffe4 	bl	81dc8 <schedule>
   81e3c:	90000020 	adrp	x0, 85000 <error_invalid_el0_64+0x94>
   81e40:	9130e000 	add	x0, x0, #0xc38
   81e44:	97fffea8 	bl	818e4 <uart_puts>
   81e48:	90000020 	adrp	x0, 85000 <error_invalid_el0_64+0x94>
   81e4c:	912fc000 	add	x0, x0, #0xbf0
   81e50:	97fffea5 	bl	818e4 <uart_puts>
   81e54:	d503201f 	nop
   81e58:	a8c17bfd 	ldp	x29, x30, [sp], #16
   81e5c:	d65f03c0 	ret

0000000000081e60 <shell_read_line>:
   81e60:	a9bd7bfd 	stp	x29, x30, [sp, #-48]!
   81e64:	910003fd 	mov	x29, sp
   81e68:	f9000fe0 	str	x0, [sp, #24]
   81e6c:	90000020 	adrp	x0, 85000 <error_invalid_el0_64+0x94>
   81e70:	91314000 	add	x0, x0, #0xc50
   81e74:	97fffe9c 	bl	818e4 <uart_puts>
   81e78:	f9400fe0 	ldr	x0, [sp, #24]
   81e7c:	d1000401 	sub	x1, x0, #0x1
   81e80:	f9000fe1 	str	x1, [sp, #24]
   81e84:	f90017e0 	str	x0, [sp, #40]
   81e88:	f9400fe0 	ldr	x0, [sp, #24]
   81e8c:	91000400 	add	x0, x0, #0x1
   81e90:	f9000fe0 	str	x0, [sp, #24]
   81e94:	97fffe7a 	bl	8187c <uart_recv>
   81e98:	12001c01 	and	w1, w0, #0xff
   81e9c:	f9400fe0 	ldr	x0, [sp, #24]
   81ea0:	39000001 	strb	w1, [x0]
   81ea4:	f9400fe0 	ldr	x0, [sp, #24]
   81ea8:	39400000 	ldrb	w0, [x0]
   81eac:	7101fc1f 	cmp	w0, #0x7f
   81eb0:	54000380 	b.eq	81f20 <shell_read_line+0xc0>  // b.none
   81eb4:	7101fc1f 	cmp	w0, #0x7f
   81eb8:	540009ec 	b.gt	81ff4 <shell_read_line+0x194>
   81ebc:	7100541f 	cmp	w0, #0x15
   81ec0:	540006a0 	b.eq	81f94 <shell_read_line+0x134>  // b.none
   81ec4:	7100541f 	cmp	w0, #0x15
   81ec8:	5400096c 	b.gt	81ff4 <shell_read_line+0x194>
   81ecc:	7100301f 	cmp	w0, #0xc
   81ed0:	54000460 	b.eq	81f5c <shell_read_line+0xfc>  // b.none
   81ed4:	7100301f 	cmp	w0, #0xc
   81ed8:	540008ec 	b.gt	81ff4 <shell_read_line+0x194>
   81edc:	7100101f 	cmp	w0, #0x4
   81ee0:	54000080 	b.eq	81ef0 <shell_read_line+0x90>  // b.none
   81ee4:	7100201f 	cmp	w0, #0x8
   81ee8:	540001c0 	b.eq	81f20 <shell_read_line+0xc0>  // b.none
   81eec:	14000042 	b	81ff4 <shell_read_line+0x194>
   81ef0:	b0000020 	adrp	x0, 86000 <delay+0xb88>
   81ef4:	f942a400 	ldr	x0, [x0, #1352]
   81ef8:	91000400 	add	x0, x0, #0x1
   81efc:	f9000fe0 	str	x0, [sp, #24]
   81f00:	f9400fe0 	ldr	x0, [sp, #24]
   81f04:	528001a1 	mov	w1, #0xd                   	// #13
   81f08:	39000001 	strb	w1, [x0]
   81f0c:	b0000020 	adrp	x0, 86000 <delay+0xb88>
   81f10:	f942a400 	ldr	x0, [x0, #1352]
   81f14:	52800081 	mov	w1, #0x4                   	// #4
   81f18:	39000001 	strb	w1, [x0]
   81f1c:	1400003b 	b	82008 <shell_read_line+0x1a8>
   81f20:	f9400fe0 	ldr	x0, [sp, #24]
   81f24:	d1000400 	sub	x0, x0, #0x1
   81f28:	f9000fe0 	str	x0, [sp, #24]
   81f2c:	f9400fe1 	ldr	x1, [sp, #24]
   81f30:	b0000020 	adrp	x0, 86000 <delay+0xb88>
   81f34:	f942a400 	ldr	x0, [x0, #1352]
   81f38:	eb00003f 	cmp	x1, x0
   81f3c:	54000643 	b.cc	82004 <shell_read_line+0x1a4>  // b.lo, b.ul, b.last
   81f40:	f9400fe0 	ldr	x0, [sp, #24]
   81f44:	d1000400 	sub	x0, x0, #0x1
   81f48:	f9000fe0 	str	x0, [sp, #24]
   81f4c:	90000020 	adrp	x0, 85000 <error_invalid_el0_64+0x94>
   81f50:	91316000 	add	x0, x0, #0xc58
   81f54:	97fffe64 	bl	818e4 <uart_puts>
   81f58:	1400002b 	b	82004 <shell_read_line+0x1a4>
   81f5c:	f9400fe0 	ldr	x0, [sp, #24]
   81f60:	3900001f 	strb	wzr, [x0]
   81f64:	f9400fe0 	ldr	x0, [sp, #24]
   81f68:	d1000400 	sub	x0, x0, #0x1
   81f6c:	f9000fe0 	str	x0, [sp, #24]
   81f70:	90000020 	adrp	x0, 85000 <error_invalid_el0_64+0x94>
   81f74:	91318000 	add	x0, x0, #0xc60
   81f78:	97fffe5b 	bl	818e4 <uart_puts>
   81f7c:	90000020 	adrp	x0, 85000 <error_invalid_el0_64+0x94>
   81f80:	91314000 	add	x0, x0, #0xc50
   81f84:	97fffe58 	bl	818e4 <uart_puts>
   81f88:	f94017e0 	ldr	x0, [sp, #40]
   81f8c:	97fffe56 	bl	818e4 <uart_puts>
   81f90:	1400001e 	b	82008 <shell_read_line+0x1a8>
   81f94:	f9400fe0 	ldr	x0, [sp, #24]
   81f98:	d1000400 	sub	x0, x0, #0x1
   81f9c:	f9000fe0 	str	x0, [sp, #24]
   81fa0:	1400000f 	b	81fdc <shell_read_line+0x17c>
   81fa4:	f9400fe0 	ldr	x0, [sp, #24]
   81fa8:	39400000 	ldrb	w0, [x0]
   81fac:	7100241f 	cmp	w0, #0x9
   81fb0:	540000a1 	b.ne	81fc4 <shell_read_line+0x164>  // b.any
   81fb4:	90000020 	adrp	x0, 85000 <error_invalid_el0_64+0x94>
   81fb8:	9131c000 	add	x0, x0, #0xc70
   81fbc:	97fffe4a 	bl	818e4 <uart_puts>
   81fc0:	14000004 	b	81fd0 <shell_read_line+0x170>
   81fc4:	90000020 	adrp	x0, 85000 <error_invalid_el0_64+0x94>
   81fc8:	91316000 	add	x0, x0, #0xc58
   81fcc:	97fffe46 	bl	818e4 <uart_puts>
   81fd0:	f9400fe0 	ldr	x0, [sp, #24]
   81fd4:	d1000400 	sub	x0, x0, #0x1
   81fd8:	f9000fe0 	str	x0, [sp, #24]
   81fdc:	f9400fe1 	ldr	x1, [sp, #24]
   81fe0:	b0000020 	adrp	x0, 86000 <delay+0xb88>
   81fe4:	f942a400 	ldr	x0, [x0, #1352]
   81fe8:	eb00003f 	cmp	x1, x0
   81fec:	54fffdc2 	b.cs	81fa4 <shell_read_line+0x144>  // b.hs, b.nlast
   81ff0:	14000006 	b	82008 <shell_read_line+0x1a8>
   81ff4:	f9400fe0 	ldr	x0, [sp, #24]
   81ff8:	39400000 	ldrb	w0, [x0]
   81ffc:	97fffe0f 	bl	81838 <uart_send>
   82000:	14000002 	b	82008 <shell_read_line+0x1a8>
   82004:	d503201f 	nop
   82008:	f9400fe1 	ldr	x1, [sp, #24]
   8200c:	90000020 	adrp	x0, 86000 <delay+0xb88>
   82010:	f942a400 	ldr	x0, [x0, #1352]
   82014:	eb00003f 	cmp	x1, x0
   82018:	54fff383 	b.cc	81e88 <shell_read_line+0x28>  // b.lo, b.ul, b.last
   8201c:	f9400fe0 	ldr	x0, [sp, #24]
   82020:	39400000 	ldrb	w0, [x0]
   82024:	2a0003e1 	mov	w1, w0
   82028:	f0000000 	adrp	x0, 85000 <error_invalid_el0_64+0x94>
   8202c:	9131e000 	add	x0, x0, #0xc78
   82030:	9400043d 	bl	83124 <strchr>
   82034:	f100001f 	cmp	x0, #0x0
   82038:	54fff280 	b.eq	81e88 <shell_read_line+0x28>  // b.none
   8203c:	14000004 	b	8204c <shell_read_line+0x1ec>
   82040:	f9400fe0 	ldr	x0, [sp, #24]
   82044:	d1000400 	sub	x0, x0, #0x1
   82048:	f9000fe0 	str	x0, [sp, #24]
   8204c:	f9400fe1 	ldr	x1, [sp, #24]
   82050:	90000020 	adrp	x0, 86000 <delay+0xb88>
   82054:	f942a400 	ldr	x0, [x0, #1352]
   82058:	eb00003f 	cmp	x1, x0
   8205c:	54000123 	b.cc	82080 <shell_read_line+0x220>  // b.lo, b.ul, b.last
   82060:	f9400fe0 	ldr	x0, [sp, #24]
   82064:	39400000 	ldrb	w0, [x0]
   82068:	2a0003e1 	mov	w1, w0
   8206c:	f0000000 	adrp	x0, 85000 <error_invalid_el0_64+0x94>
   82070:	91320000 	add	x0, x0, #0xc80
   82074:	9400042c 	bl	83124 <strchr>
   82078:	f100001f 	cmp	x0, #0x0
   8207c:	54fffe21 	b.ne	82040 <shell_read_line+0x1e0>  // b.any
   82080:	f9400fe0 	ldr	x0, [sp, #24]
   82084:	91000400 	add	x0, x0, #0x1
   82088:	f9000fe0 	str	x0, [sp, #24]
   8208c:	f9400fe0 	ldr	x0, [sp, #24]
   82090:	3900001f 	strb	wzr, [x0]
   82094:	f0000000 	adrp	x0, 85000 <error_invalid_el0_64+0x94>
   82098:	91322000 	add	x0, x0, #0xc88
   8209c:	97fffe12 	bl	818e4 <uart_puts>
   820a0:	f0000000 	adrp	x0, 85000 <error_invalid_el0_64+0x94>
   820a4:	91324000 	add	x0, x0, #0xc90
   820a8:	97fffe0f 	bl	818e4 <uart_puts>
   820ac:	14000004 	b	820bc <shell_read_line+0x25c>
   820b0:	f94017e0 	ldr	x0, [sp, #40]
   820b4:	91000400 	add	x0, x0, #0x1
   820b8:	f90017e0 	str	x0, [sp, #40]
   820bc:	f94017e1 	ldr	x1, [sp, #40]
   820c0:	f9400fe0 	ldr	x0, [sp, #24]
   820c4:	eb00003f 	cmp	x1, x0
   820c8:	54000122 	b.cs	820ec <shell_read_line+0x28c>  // b.hs, b.nlast
   820cc:	f94017e0 	ldr	x0, [sp, #40]
   820d0:	39400000 	ldrb	w0, [x0]
   820d4:	2a0003e1 	mov	w1, w0
   820d8:	f0000000 	adrp	x0, 85000 <error_invalid_el0_64+0x94>
   820dc:	91326000 	add	x0, x0, #0xc98
   820e0:	94000411 	bl	83124 <strchr>
   820e4:	f100001f 	cmp	x0, #0x0
   820e8:	54fffe41 	b.ne	820b0 <shell_read_line+0x250>  // b.any
   820ec:	f94017e0 	ldr	x0, [sp, #40]
   820f0:	a8c37bfd 	ldp	x29, x30, [sp], #48
   820f4:	d65f03c0 	ret

00000000000820f8 <shell_execute>:
   820f8:	a9bd7bfd 	stp	x29, x30, [sp, #-48]!
   820fc:	910003fd 	mov	x29, sp
   82100:	f9000fe0 	str	x0, [sp, #24]
   82104:	f9400fe1 	ldr	x1, [sp, #24]
   82108:	f0000000 	adrp	x0, 85000 <error_invalid_el0_64+0x94>
   8210c:	91328000 	add	x0, x0, #0xca0
   82110:	940003e9 	bl	830b4 <strcmp>
   82114:	7100001f 	cmp	w0, #0x0
   82118:	54000101 	b.ne	82138 <shell_execute+0x40>  // b.any
   8211c:	f0000000 	adrp	x0, 85000 <error_invalid_el0_64+0x94>
   82120:	9132a000 	add	x0, x0, #0xca8
   82124:	97fffdf0 	bl	818e4 <uart_puts>
   82128:	f0000000 	adrp	x0, 85000 <error_invalid_el0_64+0x94>
   8212c:	91324000 	add	x0, x0, #0xc90
   82130:	97fffded 	bl	818e4 <uart_puts>
   82134:	140000d5 	b	82488 <shell_execute+0x390>
   82138:	f9400fe1 	ldr	x1, [sp, #24]
   8213c:	f0000000 	adrp	x0, 85000 <error_invalid_el0_64+0x94>
   82140:	9132e000 	add	x0, x0, #0xcb8
   82144:	940003dc 	bl	830b4 <strcmp>
   82148:	7100001f 	cmp	w0, #0x0
   8214c:	54000401 	b.ne	821cc <shell_execute+0xd4>  // b.any
   82150:	f0000000 	adrp	x0, 85000 <error_invalid_el0_64+0x94>
   82154:	91330000 	add	x0, x0, #0xcc0
   82158:	97fffde3 	bl	818e4 <uart_puts>
   8215c:	f0000000 	adrp	x0, 85000 <error_invalid_el0_64+0x94>
   82160:	91324000 	add	x0, x0, #0xc90
   82164:	97fffde0 	bl	818e4 <uart_puts>
   82168:	f0000000 	adrp	x0, 85000 <error_invalid_el0_64+0x94>
   8216c:	91338000 	add	x0, x0, #0xce0
   82170:	97fffddd 	bl	818e4 <uart_puts>
   82174:	f0000000 	adrp	x0, 85000 <error_invalid_el0_64+0x94>
   82178:	91324000 	add	x0, x0, #0xc90
   8217c:	97fffdda 	bl	818e4 <uart_puts>
   82180:	f0000000 	adrp	x0, 85000 <error_invalid_el0_64+0x94>
   82184:	91340000 	add	x0, x0, #0xd00
   82188:	97fffdd7 	bl	818e4 <uart_puts>
   8218c:	f0000000 	adrp	x0, 85000 <error_invalid_el0_64+0x94>
   82190:	91324000 	add	x0, x0, #0xc90
   82194:	97fffdd4 	bl	818e4 <uart_puts>
   82198:	f0000000 	adrp	x0, 85000 <error_invalid_el0_64+0x94>
   8219c:	91348000 	add	x0, x0, #0xd20
   821a0:	97fffdd1 	bl	818e4 <uart_puts>
   821a4:	f0000000 	adrp	x0, 85000 <error_invalid_el0_64+0x94>
   821a8:	91324000 	add	x0, x0, #0xc90
   821ac:	97fffdce 	bl	818e4 <uart_puts>
   821b0:	f0000000 	adrp	x0, 85000 <error_invalid_el0_64+0x94>
   821b4:	91350000 	add	x0, x0, #0xd40
   821b8:	97fffdcb 	bl	818e4 <uart_puts>
   821bc:	f0000000 	adrp	x0, 85000 <error_invalid_el0_64+0x94>
   821c0:	91324000 	add	x0, x0, #0xc90
   821c4:	97fffdc8 	bl	818e4 <uart_puts>
   821c8:	140000b0 	b	82488 <shell_execute+0x390>
   821cc:	f9400fe1 	ldr	x1, [sp, #24]
   821d0:	f0000000 	adrp	x0, 85000 <error_invalid_el0_64+0x94>
   821d4:	9135a000 	add	x0, x0, #0xd68
   821d8:	940003b7 	bl	830b4 <strcmp>
   821dc:	7100001f 	cmp	w0, #0x0
   821e0:	54000061 	b.ne	821ec <shell_execute+0xf4>  // b.any
   821e4:	94000630 	bl	83aa4 <timestamp>
   821e8:	140000a8 	b	82488 <shell_execute+0x390>
   821ec:	f9400fe1 	ldr	x1, [sp, #24]
   821f0:	f0000000 	adrp	x0, 85000 <error_invalid_el0_64+0x94>
   821f4:	9135e000 	add	x0, x0, #0xd78
   821f8:	940003af 	bl	830b4 <strcmp>
   821fc:	7100001f 	cmp	w0, #0x0
   82200:	540000a1 	b.ne	82214 <shell_execute+0x11c>  // b.any
   82204:	5291b000 	mov	w0, #0x8d80                	// #36224
   82208:	72a00b60 	movk	w0, #0x5b, lsl #16
   8220c:	940005d5 	bl	83960 <wait_msec>
   82210:	1400009e 	b	82488 <shell_execute+0x390>
   82214:	f9400fe1 	ldr	x1, [sp, #24]
   82218:	f0000000 	adrp	x0, 85000 <error_invalid_el0_64+0x94>
   8221c:	91360000 	add	x0, x0, #0xd80
   82220:	940003a5 	bl	830b4 <strcmp>
   82224:	7100001f 	cmp	w0, #0x0
   82228:	54000161 	b.ne	82254 <shell_execute+0x15c>  // b.any
   8222c:	f0000000 	adrp	x0, 85000 <error_invalid_el0_64+0x94>
   82230:	91362000 	add	x0, x0, #0xd88
   82234:	97fffdac 	bl	818e4 <uart_puts>
   82238:	f0000000 	adrp	x0, 85000 <error_invalid_el0_64+0x94>
   8223c:	91324000 	add	x0, x0, #0xc90
   82240:	97fffda9 	bl	818e4 <uart_puts>
   82244:	52800c80 	mov	w0, #0x64                  	// #100
   82248:	97fffe07 	bl	81a64 <reset>
   8224c:	12800000 	mov	w0, #0xffffffff            	// #-1
   82250:	1400008f 	b	8248c <shell_execute+0x394>
   82254:	f9400fe1 	ldr	x1, [sp, #24]
   82258:	f0000000 	adrp	x0, 85000 <error_invalid_el0_64+0x94>
   8225c:	91366000 	add	x0, x0, #0xd98
   82260:	94000395 	bl	830b4 <strcmp>
   82264:	7100001f 	cmp	w0, #0x0
   82268:	540000a0 	b.eq	8227c <shell_execute+0x184>  // b.none
   8226c:	f9400fe0 	ldr	x0, [sp, #24]
   82270:	39400000 	ldrb	w0, [x0]
   82274:	7100101f 	cmp	w0, #0x4
   82278:	540000e1 	b.ne	82294 <shell_execute+0x19c>  // b.any
   8227c:	a9bf27e8 	stp	x8, x9, [sp, #-16]!
   82280:	d2800048 	mov	x8, #0x2                   	// #2
   82284:	d4000001 	svc	#0x0
   82288:	a8c127e8 	ldp	x8, x9, [sp], #16
   8228c:	12800000 	mov	w0, #0xffffffff            	// #-1
   82290:	1400007f 	b	8248c <shell_execute+0x394>
   82294:	f9400fe1 	ldr	x1, [sp, #24]
   82298:	f0000000 	adrp	x0, 85000 <error_invalid_el0_64+0x94>
   8229c:	91368000 	add	x0, x0, #0xda0
   822a0:	94000385 	bl	830b4 <strcmp>
   822a4:	7100001f 	cmp	w0, #0x0
   822a8:	540000a1 	b.ne	822bc <shell_execute+0x1c4>  // b.any
   822ac:	f0000000 	adrp	x0, 85000 <error_invalid_el0_64+0x94>
   822b0:	91318000 	add	x0, x0, #0xc60
   822b4:	97fffd8c 	bl	818e4 <uart_puts>
   822b8:	14000074 	b	82488 <shell_execute+0x390>
   822bc:	f9400fe1 	ldr	x1, [sp, #24]
   822c0:	f0000000 	adrp	x0, 85000 <error_invalid_el0_64+0x94>
   822c4:	9136a000 	add	x0, x0, #0xda8
   822c8:	9400037b 	bl	830b4 <strcmp>
   822cc:	7100001f 	cmp	w0, #0x0
   822d0:	54000061 	b.ne	822dc <shell_execute+0x1e4>  // b.any
   822d4:	97fffc3e 	bl	813cc <loadimg>
   822d8:	1400006c 	b	82488 <shell_execute+0x390>
   822dc:	f9400fe1 	ldr	x1, [sp, #24]
   822e0:	f0000000 	adrp	x0, 85000 <error_invalid_el0_64+0x94>
   822e4:	9136c000 	add	x0, x0, #0xdb0
   822e8:	94000373 	bl	830b4 <strcmp>
   822ec:	7100001f 	cmp	w0, #0x0
   822f0:	54000141 	b.ne	82318 <shell_execute+0x220>  // b.any
   822f4:	97fff85c 	bl	80464 <get_current_el>
   822f8:	910003e0 	mov	x0, sp
   822fc:	f90013e0 	str	x0, [sp, #32]
   82300:	f94013e1 	ldr	x1, [sp, #32]
   82304:	f0000000 	adrp	x0, 85000 <error_invalid_el0_64+0x94>
   82308:	9136e000 	add	x0, x0, #0xdb8
   8230c:	94000349 	bl	83030 <printf>
   82310:	d4000021 	svc	#0x1
   82314:	1400005d 	b	82488 <shell_execute+0x390>
   82318:	f9400fe1 	ldr	x1, [sp, #24]
   8231c:	f0000000 	adrp	x0, 85000 <error_invalid_el0_64+0x94>
   82320:	91372000 	add	x0, x0, #0xdc8
   82324:	94000364 	bl	830b4 <strcmp>
   82328:	7100001f 	cmp	w0, #0x0
   8232c:	540001e1 	b.ne	82368 <shell_execute+0x270>  // b.any
   82330:	910003e0 	mov	x0, sp
   82334:	f90017e0 	str	x0, [sp, #40]
   82338:	f94017e1 	ldr	x1, [sp, #40]
   8233c:	f0000000 	adrp	x0, 85000 <error_invalid_el0_64+0x94>
   82340:	9136e000 	add	x0, x0, #0xdb8
   82344:	9400033b 	bl	83030 <printf>
   82348:	d4200020 	brk	#0x1
   8234c:	f0000000 	adrp	x0, 85000 <error_invalid_el0_64+0x94>
   82350:	91374000 	add	x0, x0, #0xdd0
   82354:	97fffd64 	bl	818e4 <uart_puts>
   82358:	f0000000 	adrp	x0, 85000 <error_invalid_el0_64+0x94>
   8235c:	91324000 	add	x0, x0, #0xc90
   82360:	97fffd61 	bl	818e4 <uart_puts>
   82364:	14000049 	b	82488 <shell_execute+0x390>
   82368:	f9400fe1 	ldr	x1, [sp, #24]
   8236c:	f0000000 	adrp	x0, 85000 <error_invalid_el0_64+0x94>
   82370:	91378000 	add	x0, x0, #0xde0
   82374:	94000350 	bl	830b4 <strcmp>
   82378:	7100001f 	cmp	w0, #0x0
   8237c:	540000a1 	b.ne	82390 <shell_execute+0x298>  // b.any
   82380:	940005fa 	bl	83b68 <sys_timer_init>
   82384:	940005cf 	bl	83ac0 <local_timer_init>
   82388:	94000631 	bl	83c4c <core_timer_init>
   8238c:	1400003f 	b	82488 <shell_execute+0x390>
   82390:	f9400fe1 	ldr	x1, [sp, #24]
   82394:	f0000000 	adrp	x0, 85000 <error_invalid_el0_64+0x94>
   82398:	9137a000 	add	x0, x0, #0xde8
   8239c:	94000346 	bl	830b4 <strcmp>
   823a0:	7100001f 	cmp	w0, #0x0
   823a4:	54000261 	b.ne	823f0 <shell_execute+0x2f8>  // b.any
   823a8:	97fff7a9 	bl	8024c <get_board_revision>
   823ac:	7100001f 	cmp	w0, #0x0
   823b0:	54000120 	b.eq	823d4 <shell_execute+0x2dc>  // b.none
   823b4:	90000020 	adrp	x0, 86000 <delay+0xb88>
   823b8:	f9427800 	ldr	x0, [x0, #1264]
   823bc:	b9401400 	ldr	w0, [x0, #20]
   823c0:	2a0003e1 	mov	w1, w0
   823c4:	f0000000 	adrp	x0, 85000 <error_invalid_el0_64+0x94>
   823c8:	9137c000 	add	x0, x0, #0xdf0
   823cc:	94000319 	bl	83030 <printf>
   823d0:	1400002e 	b	82488 <shell_execute+0x390>
   823d4:	f0000000 	adrp	x0, 85000 <error_invalid_el0_64+0x94>
   823d8:	9137e000 	add	x0, x0, #0xdf8
   823dc:	97fffd42 	bl	818e4 <uart_puts>
   823e0:	f0000000 	adrp	x0, 85000 <error_invalid_el0_64+0x94>
   823e4:	91324000 	add	x0, x0, #0xc90
   823e8:	97fffd3f 	bl	818e4 <uart_puts>
   823ec:	14000027 	b	82488 <shell_execute+0x390>
   823f0:	f9400fe1 	ldr	x1, [sp, #24]
   823f4:	f0000000 	adrp	x0, 85000 <error_invalid_el0_64+0x94>
   823f8:	91386000 	add	x0, x0, #0xe18
   823fc:	9400032e 	bl	830b4 <strcmp>
   82400:	7100001f 	cmp	w0, #0x0
   82404:	54000261 	b.ne	82450 <shell_execute+0x358>  // b.any
   82408:	97fff7b0 	bl	802c8 <get_vc_memaddr>
   8240c:	7100001f 	cmp	w0, #0x0
   82410:	54000120 	b.eq	82434 <shell_execute+0x33c>  // b.none
   82414:	90000020 	adrp	x0, 86000 <delay+0xb88>
   82418:	f9427800 	ldr	x0, [x0, #1264]
   8241c:	b9401400 	ldr	w0, [x0, #20]
   82420:	2a0003e1 	mov	w1, w0
   82424:	f0000000 	adrp	x0, 85000 <error_invalid_el0_64+0x94>
   82428:	91388000 	add	x0, x0, #0xe20
   8242c:	94000301 	bl	83030 <printf>
   82430:	14000016 	b	82488 <shell_execute+0x390>
   82434:	f0000000 	adrp	x0, 85000 <error_invalid_el0_64+0x94>
   82438:	9138a000 	add	x0, x0, #0xe28
   8243c:	97fffd2a 	bl	818e4 <uart_puts>
   82440:	f0000000 	adrp	x0, 85000 <error_invalid_el0_64+0x94>
   82444:	91324000 	add	x0, x0, #0xc90
   82448:	97fffd27 	bl	818e4 <uart_puts>
   8244c:	1400000f 	b	82488 <shell_execute+0x390>
   82450:	f9400fe0 	ldr	x0, [sp, #24]
   82454:	94000349 	bl	83178 <strlen>
   82458:	7100001f 	cmp	w0, #0x0
   8245c:	54000160 	b.eq	82488 <shell_execute+0x390>  // b.none
   82460:	f0000000 	adrp	x0, 85000 <error_invalid_el0_64+0x94>
   82464:	91390000 	add	x0, x0, #0xe40
   82468:	97fffd1f 	bl	818e4 <uart_puts>
   8246c:	f9400fe0 	ldr	x0, [sp, #24]
   82470:	97fffd1d 	bl	818e4 <uart_puts>
   82474:	f0000000 	adrp	x0, 85000 <error_invalid_el0_64+0x94>
   82478:	91324000 	add	x0, x0, #0xc90
   8247c:	97fffd1a 	bl	818e4 <uart_puts>
   82480:	52800020 	mov	w0, #0x1                   	// #1
   82484:	14000002 	b	8248c <shell_execute+0x394>
   82488:	52800000 	mov	w0, #0x0                   	// #0
   8248c:	a8c37bfd 	ldp	x29, x30, [sp], #48
   82490:	d65f03c0 	ret

0000000000082494 <shell_stuff_line>:
   82494:	a9be7bfd 	stp	x29, x30, [sp, #-32]!
   82498:	910003fd 	mov	x29, sp
   8249c:	39007fe0 	strb	w0, [sp, #31]
   824a0:	90000020 	adrp	x0, 86000 <delay+0xb88>
   824a4:	f942cc00 	ldr	x0, [x0, #1432]
   824a8:	39400000 	ldrb	w0, [x0]
   824ac:	7100001f 	cmp	w0, #0x0
   824b0:	54002020 	b.eq	828b4 <shell_stuff_line+0x420>  // b.none
   824b4:	90000020 	adrp	x0, 86000 <delay+0xb88>
   824b8:	9103c000 	add	x0, x0, #0xf0
   824bc:	f9400000 	ldr	x0, [x0]
   824c0:	91000401 	add	x1, x0, #0x1
   824c4:	90000020 	adrp	x0, 86000 <delay+0xb88>
   824c8:	9103c000 	add	x0, x0, #0xf0
   824cc:	f9000001 	str	x1, [x0]
   824d0:	90000020 	adrp	x0, 86000 <delay+0xb88>
   824d4:	9103c000 	add	x0, x0, #0xf0
   824d8:	f9400000 	ldr	x0, [x0]
   824dc:	39407fe1 	ldrb	w1, [sp, #31]
   824e0:	39000001 	strb	w1, [x0]
   824e4:	90000020 	adrp	x0, 86000 <delay+0xb88>
   824e8:	9103c000 	add	x0, x0, #0xf0
   824ec:	f9400000 	ldr	x0, [x0]
   824f0:	39400000 	ldrb	w0, [x0]
   824f4:	7101fc1f 	cmp	w0, #0x7f
   824f8:	54000400 	b.eq	82578 <shell_stuff_line+0xe4>  // b.none
   824fc:	7101fc1f 	cmp	w0, #0x7f
   82500:	54000e0c 	b.gt	826c0 <shell_stuff_line+0x22c>
   82504:	7100541f 	cmp	w0, #0x15
   82508:	54000940 	b.eq	82630 <shell_stuff_line+0x19c>  // b.none
   8250c:	7100541f 	cmp	w0, #0x15
   82510:	54000d8c 	b.gt	826c0 <shell_stuff_line+0x22c>
   82514:	7100301f 	cmp	w0, #0xc
   82518:	54000620 	b.eq	825dc <shell_stuff_line+0x148>  // b.none
   8251c:	7100301f 	cmp	w0, #0xc
   82520:	54000d0c 	b.gt	826c0 <shell_stuff_line+0x22c>
   82524:	7100101f 	cmp	w0, #0x4
   82528:	54000080 	b.eq	82538 <shell_stuff_line+0xa4>  // b.none
   8252c:	7100201f 	cmp	w0, #0x8
   82530:	54000240 	b.eq	82578 <shell_stuff_line+0xe4>  // b.none
   82534:	14000063 	b	826c0 <shell_stuff_line+0x22c>
   82538:	90000020 	adrp	x0, 86000 <delay+0xb88>
   8253c:	f942a400 	ldr	x0, [x0, #1352]
   82540:	91000401 	add	x1, x0, #0x1
   82544:	90000020 	adrp	x0, 86000 <delay+0xb88>
   82548:	9103c000 	add	x0, x0, #0xf0
   8254c:	f9000001 	str	x1, [x0]
   82550:	90000020 	adrp	x0, 86000 <delay+0xb88>
   82554:	9103c000 	add	x0, x0, #0xf0
   82558:	f9400000 	ldr	x0, [x0]
   8255c:	528001a1 	mov	w1, #0xd                   	// #13
   82560:	39000001 	strb	w1, [x0]
   82564:	90000020 	adrp	x0, 86000 <delay+0xb88>
   82568:	f942a400 	ldr	x0, [x0, #1352]
   8256c:	52800081 	mov	w1, #0x4                   	// #4
   82570:	39000001 	strb	w1, [x0]
   82574:	1400005a 	b	826dc <shell_stuff_line+0x248>
   82578:	90000020 	adrp	x0, 86000 <delay+0xb88>
   8257c:	9103c000 	add	x0, x0, #0xf0
   82580:	f9400000 	ldr	x0, [x0]
   82584:	d1000401 	sub	x1, x0, #0x1
   82588:	90000020 	adrp	x0, 86000 <delay+0xb88>
   8258c:	9103c000 	add	x0, x0, #0xf0
   82590:	f9000001 	str	x1, [x0]
   82594:	90000020 	adrp	x0, 86000 <delay+0xb88>
   82598:	9103c000 	add	x0, x0, #0xf0
   8259c:	f9400001 	ldr	x1, [x0]
   825a0:	90000020 	adrp	x0, 86000 <delay+0xb88>
   825a4:	f942a400 	ldr	x0, [x0, #1352]
   825a8:	eb00003f 	cmp	x1, x0
   825ac:	54000963 	b.cc	826d8 <shell_stuff_line+0x244>  // b.lo, b.ul, b.last
   825b0:	90000020 	adrp	x0, 86000 <delay+0xb88>
   825b4:	9103c000 	add	x0, x0, #0xf0
   825b8:	f9400000 	ldr	x0, [x0]
   825bc:	d1000401 	sub	x1, x0, #0x1
   825c0:	90000020 	adrp	x0, 86000 <delay+0xb88>
   825c4:	9103c000 	add	x0, x0, #0xf0
   825c8:	f9000001 	str	x1, [x0]
   825cc:	f0000000 	adrp	x0, 85000 <error_invalid_el0_64+0x94>
   825d0:	91316000 	add	x0, x0, #0xc58
   825d4:	97fffcc4 	bl	818e4 <uart_puts>
   825d8:	14000040 	b	826d8 <shell_stuff_line+0x244>
   825dc:	90000020 	adrp	x0, 86000 <delay+0xb88>
   825e0:	9103c000 	add	x0, x0, #0xf0
   825e4:	f9400000 	ldr	x0, [x0]
   825e8:	3900001f 	strb	wzr, [x0]
   825ec:	90000020 	adrp	x0, 86000 <delay+0xb88>
   825f0:	9103c000 	add	x0, x0, #0xf0
   825f4:	f9400000 	ldr	x0, [x0]
   825f8:	d1000401 	sub	x1, x0, #0x1
   825fc:	90000020 	adrp	x0, 86000 <delay+0xb88>
   82600:	9103c000 	add	x0, x0, #0xf0
   82604:	f9000001 	str	x1, [x0]
   82608:	f0000000 	adrp	x0, 85000 <error_invalid_el0_64+0x94>
   8260c:	91318000 	add	x0, x0, #0xc60
   82610:	97fffcb5 	bl	818e4 <uart_puts>
   82614:	f0000000 	adrp	x0, 85000 <error_invalid_el0_64+0x94>
   82618:	91314000 	add	x0, x0, #0xc50
   8261c:	97fffcb2 	bl	818e4 <uart_puts>
   82620:	90000020 	adrp	x0, 86000 <delay+0xb88>
   82624:	f942a400 	ldr	x0, [x0, #1352]
   82628:	97fffcaf 	bl	818e4 <uart_puts>
   8262c:	1400002c 	b	826dc <shell_stuff_line+0x248>
   82630:	90000020 	adrp	x0, 86000 <delay+0xb88>
   82634:	9103c000 	add	x0, x0, #0xf0
   82638:	f9400000 	ldr	x0, [x0]
   8263c:	d1000401 	sub	x1, x0, #0x1
   82640:	90000020 	adrp	x0, 86000 <delay+0xb88>
   82644:	9103c000 	add	x0, x0, #0xf0
   82648:	f9000001 	str	x1, [x0]
   8264c:	14000015 	b	826a0 <shell_stuff_line+0x20c>
   82650:	90000020 	adrp	x0, 86000 <delay+0xb88>
   82654:	9103c000 	add	x0, x0, #0xf0
   82658:	f9400000 	ldr	x0, [x0]
   8265c:	39400000 	ldrb	w0, [x0]
   82660:	7100241f 	cmp	w0, #0x9
   82664:	540000a1 	b.ne	82678 <shell_stuff_line+0x1e4>  // b.any
   82668:	f0000000 	adrp	x0, 85000 <error_invalid_el0_64+0x94>
   8266c:	9131c000 	add	x0, x0, #0xc70
   82670:	97fffc9d 	bl	818e4 <uart_puts>
   82674:	14000004 	b	82684 <shell_stuff_line+0x1f0>
   82678:	f0000000 	adrp	x0, 85000 <error_invalid_el0_64+0x94>
   8267c:	91316000 	add	x0, x0, #0xc58
   82680:	97fffc99 	bl	818e4 <uart_puts>
   82684:	90000020 	adrp	x0, 86000 <delay+0xb88>
   82688:	9103c000 	add	x0, x0, #0xf0
   8268c:	f9400000 	ldr	x0, [x0]
   82690:	d1000401 	sub	x1, x0, #0x1
   82694:	90000020 	adrp	x0, 86000 <delay+0xb88>
   82698:	9103c000 	add	x0, x0, #0xf0
   8269c:	f9000001 	str	x1, [x0]
   826a0:	90000020 	adrp	x0, 86000 <delay+0xb88>
   826a4:	9103c000 	add	x0, x0, #0xf0
   826a8:	f9400001 	ldr	x1, [x0]
   826ac:	90000020 	adrp	x0, 86000 <delay+0xb88>
   826b0:	f942a400 	ldr	x0, [x0, #1352]
   826b4:	eb00003f 	cmp	x1, x0
   826b8:	54fffcc2 	b.cs	82650 <shell_stuff_line+0x1bc>  // b.hs, b.nlast
   826bc:	14000008 	b	826dc <shell_stuff_line+0x248>
   826c0:	90000020 	adrp	x0, 86000 <delay+0xb88>
   826c4:	9103c000 	add	x0, x0, #0xf0
   826c8:	f9400000 	ldr	x0, [x0]
   826cc:	39400000 	ldrb	w0, [x0]
   826d0:	97fffc5a 	bl	81838 <uart_send>
   826d4:	14000002 	b	826dc <shell_stuff_line+0x248>
   826d8:	d503201f 	nop
   826dc:	90000020 	adrp	x0, 86000 <delay+0xb88>
   826e0:	9103c000 	add	x0, x0, #0xf0
   826e4:	f9400001 	ldr	x1, [x0]
   826e8:	90000020 	adrp	x0, 86000 <delay+0xb88>
   826ec:	f942a400 	ldr	x0, [x0, #1352]
   826f0:	eb00003f 	cmp	x1, x0
   826f4:	54000b63 	b.cc	82860 <shell_stuff_line+0x3cc>  // b.lo, b.ul, b.last
   826f8:	90000020 	adrp	x0, 86000 <delay+0xb88>
   826fc:	9103c000 	add	x0, x0, #0xf0
   82700:	f9400000 	ldr	x0, [x0]
   82704:	39400000 	ldrb	w0, [x0]
   82708:	2a0003e1 	mov	w1, w0
   8270c:	f0000000 	adrp	x0, 85000 <error_invalid_el0_64+0x94>
   82710:	91324000 	add	x0, x0, #0xc90
   82714:	94000284 	bl	83124 <strchr>
   82718:	f100001f 	cmp	x0, #0x0
   8271c:	54000a20 	b.eq	82860 <shell_stuff_line+0x3cc>  // b.none
   82720:	90000020 	adrp	x0, 86000 <delay+0xb88>
   82724:	f9428800 	ldr	x0, [x0, #1296]
   82728:	90000021 	adrp	x1, 86000 <delay+0xb88>
   8272c:	f942a421 	ldr	x1, [x1, #1352]
   82730:	f9000001 	str	x1, [x0]
   82734:	14000008 	b	82754 <shell_stuff_line+0x2c0>
   82738:	90000020 	adrp	x0, 86000 <delay+0xb88>
   8273c:	9103c000 	add	x0, x0, #0xf0
   82740:	f9400000 	ldr	x0, [x0]
   82744:	d1000401 	sub	x1, x0, #0x1
   82748:	90000020 	adrp	x0, 86000 <delay+0xb88>
   8274c:	9103c000 	add	x0, x0, #0xf0
   82750:	f9000001 	str	x1, [x0]
   82754:	90000020 	adrp	x0, 86000 <delay+0xb88>
   82758:	9103c000 	add	x0, x0, #0xf0
   8275c:	f9400001 	ldr	x1, [x0]
   82760:	90000020 	adrp	x0, 86000 <delay+0xb88>
   82764:	f942a400 	ldr	x0, [x0, #1352]
   82768:	eb00003f 	cmp	x1, x0
   8276c:	54000163 	b.cc	82798 <shell_stuff_line+0x304>  // b.lo, b.ul, b.last
   82770:	90000020 	adrp	x0, 86000 <delay+0xb88>
   82774:	9103c000 	add	x0, x0, #0xf0
   82778:	f9400000 	ldr	x0, [x0]
   8277c:	39400000 	ldrb	w0, [x0]
   82780:	2a0003e1 	mov	w1, w0
   82784:	f0000000 	adrp	x0, 85000 <error_invalid_el0_64+0x94>
   82788:	91320000 	add	x0, x0, #0xc80
   8278c:	94000266 	bl	83124 <strchr>
   82790:	f100001f 	cmp	x0, #0x0
   82794:	54fffd21 	b.ne	82738 <shell_stuff_line+0x2a4>  // b.any
   82798:	90000020 	adrp	x0, 86000 <delay+0xb88>
   8279c:	9103c000 	add	x0, x0, #0xf0
   827a0:	f9400000 	ldr	x0, [x0]
   827a4:	91000401 	add	x1, x0, #0x1
   827a8:	90000020 	adrp	x0, 86000 <delay+0xb88>
   827ac:	9103c000 	add	x0, x0, #0xf0
   827b0:	f9000001 	str	x1, [x0]
   827b4:	90000020 	adrp	x0, 86000 <delay+0xb88>
   827b8:	9103c000 	add	x0, x0, #0xf0
   827bc:	f9400000 	ldr	x0, [x0]
   827c0:	3900001f 	strb	wzr, [x0]
   827c4:	f0000000 	adrp	x0, 85000 <error_invalid_el0_64+0x94>
   827c8:	91322000 	add	x0, x0, #0xc88
   827cc:	97fffc46 	bl	818e4 <uart_puts>
   827d0:	f0000000 	adrp	x0, 85000 <error_invalid_el0_64+0x94>
   827d4:	91324000 	add	x0, x0, #0xc90
   827d8:	97fffc43 	bl	818e4 <uart_puts>
   827dc:	14000008 	b	827fc <shell_stuff_line+0x368>
   827e0:	90000020 	adrp	x0, 86000 <delay+0xb88>
   827e4:	f9428800 	ldr	x0, [x0, #1296]
   827e8:	f9400000 	ldr	x0, [x0]
   827ec:	91000401 	add	x1, x0, #0x1
   827f0:	90000020 	adrp	x0, 86000 <delay+0xb88>
   827f4:	f9428800 	ldr	x0, [x0, #1296]
   827f8:	f9000001 	str	x1, [x0]
   827fc:	90000020 	adrp	x0, 86000 <delay+0xb88>
   82800:	f9428800 	ldr	x0, [x0, #1296]
   82804:	f9400001 	ldr	x1, [x0]
   82808:	90000020 	adrp	x0, 86000 <delay+0xb88>
   8280c:	9103c000 	add	x0, x0, #0xf0
   82810:	f9400000 	ldr	x0, [x0]
   82814:	eb00003f 	cmp	x1, x0
   82818:	54000162 	b.cs	82844 <shell_stuff_line+0x3b0>  // b.hs, b.nlast
   8281c:	90000020 	adrp	x0, 86000 <delay+0xb88>
   82820:	f9428800 	ldr	x0, [x0, #1296]
   82824:	f9400000 	ldr	x0, [x0]
   82828:	39400000 	ldrb	w0, [x0]
   8282c:	2a0003e1 	mov	w1, w0
   82830:	f0000000 	adrp	x0, 85000 <error_invalid_el0_64+0x94>
   82834:	91326000 	add	x0, x0, #0xc98
   82838:	9400023b 	bl	83124 <strchr>
   8283c:	f100001f 	cmp	x0, #0x0
   82840:	54fffd01 	b.ne	827e0 <shell_stuff_line+0x34c>  // b.any
   82844:	90000020 	adrp	x0, 86000 <delay+0xb88>
   82848:	f942a400 	ldr	x0, [x0, #1352]
   8284c:	d1000401 	sub	x1, x0, #0x1
   82850:	90000020 	adrp	x0, 86000 <delay+0xb88>
   82854:	9103c000 	add	x0, x0, #0xf0
   82858:	f9000001 	str	x1, [x0]
   8285c:	14000017 	b	828b8 <shell_stuff_line+0x424>
   82860:	90000020 	adrp	x0, 86000 <delay+0xb88>
   82864:	9103c000 	add	x0, x0, #0xf0
   82868:	f9400001 	ldr	x1, [x0]
   8286c:	90000020 	adrp	x0, 86000 <delay+0xb88>
   82870:	f942a400 	ldr	x0, [x0, #1352]
   82874:	91100000 	add	x0, x0, #0x400
   82878:	eb00003f 	cmp	x1, x0
   8287c:	540001e3 	b.cc	828b8 <shell_stuff_line+0x424>  // b.lo, b.ul, b.last
   82880:	f0000000 	adrp	x0, 85000 <error_invalid_el0_64+0x94>
   82884:	91396000 	add	x0, x0, #0xe58
   82888:	97fffc17 	bl	818e4 <uart_puts>
   8288c:	f0000000 	adrp	x0, 85000 <error_invalid_el0_64+0x94>
   82890:	91324000 	add	x0, x0, #0xc90
   82894:	97fffc14 	bl	818e4 <uart_puts>
   82898:	90000020 	adrp	x0, 86000 <delay+0xb88>
   8289c:	f942a400 	ldr	x0, [x0, #1352]
   828a0:	d1000401 	sub	x1, x0, #0x1
   828a4:	90000020 	adrp	x0, 86000 <delay+0xb88>
   828a8:	9103c000 	add	x0, x0, #0xf0
   828ac:	f9000001 	str	x1, [x0]
   828b0:	14000002 	b	828b8 <shell_stuff_line+0x424>
   828b4:	d503201f 	nop
   828b8:	a8c27bfd 	ldp	x29, x30, [sp], #32
   828bc:	d65f03c0 	ret

00000000000828c0 <busy_shell_loop>:
   828c0:	a9bf7bfd 	stp	x29, x30, [sp, #-16]!
   828c4:	910003fd 	mov	x29, sp
   828c8:	d503201f 	nop
   828cc:	90000020 	adrp	x0, 86000 <delay+0xb88>
   828d0:	f942a400 	ldr	x0, [x0, #1352]
   828d4:	97fffd63 	bl	81e60 <shell_read_line>
   828d8:	97fffe08 	bl	820f8 <shell_execute>
   828dc:	7100001f 	cmp	w0, #0x0
   828e0:	54ffff6a 	b.ge	828cc <busy_shell_loop+0xc>  // b.tcont
   828e4:	52800000 	mov	w0, #0x0                   	// #0
   828e8:	a8c17bfd 	ldp	x29, x30, [sp], #16
   828ec:	d65f03c0 	ret

00000000000828f0 <irq_shell_loop>:
   828f0:	a9bf7bfd 	stp	x29, x30, [sp, #-16]!
   828f4:	910003fd 	mov	x29, sp
   828f8:	f0000000 	adrp	x0, 85000 <error_invalid_el0_64+0x94>
   828fc:	91314000 	add	x0, x0, #0xc50
   82900:	97fffbf9 	bl	818e4 <uart_puts>
   82904:	90000020 	adrp	x0, 86000 <delay+0xb88>
   82908:	f942cc00 	ldr	x0, [x0, #1432]
   8290c:	52800021 	mov	w1, #0x1                   	// #1
   82910:	39000001 	strb	w1, [x0]
   82914:	90000020 	adrp	x0, 86000 <delay+0xb88>
   82918:	f9428800 	ldr	x0, [x0, #1296]
   8291c:	f9400000 	ldr	x0, [x0]
   82920:	f100001f 	cmp	x0, #0x0
   82924:	54000180 	b.eq	82954 <irq_shell_loop+0x64>  // b.none
   82928:	90000020 	adrp	x0, 86000 <delay+0xb88>
   8292c:	f9428800 	ldr	x0, [x0, #1296]
   82930:	f9400000 	ldr	x0, [x0]
   82934:	97fffdf1 	bl	820f8 <shell_execute>
   82938:	90000020 	adrp	x0, 86000 <delay+0xb88>
   8293c:	f9428800 	ldr	x0, [x0, #1296]
   82940:	f900001f 	str	xzr, [x0]
   82944:	f0000000 	adrp	x0, 85000 <error_invalid_el0_64+0x94>
   82948:	91314000 	add	x0, x0, #0xc50
   8294c:	97fffbe6 	bl	818e4 <uart_puts>
   82950:	17fffff1 	b	82914 <irq_shell_loop+0x24>
   82954:	90000020 	adrp	x0, 86000 <delay+0xb88>
   82958:	f942a000 	ldr	x0, [x0, #1344]
   8295c:	b9400000 	ldr	w0, [x0]
   82960:	7100001f 	cmp	w0, #0x0
   82964:	54fffd80 	b.eq	82914 <irq_shell_loop+0x24>  // b.none
   82968:	a9bf27e8 	stp	x8, x9, [sp, #-16]!
   8296c:	d2800088 	mov	x8, #0x4                   	// #4
   82970:	d4000001 	svc	#0x0
   82974:	a8c127e8 	ldp	x8, x9, [sp], #16
   82978:	17ffffe7 	b	82914 <irq_shell_loop+0x24>

000000000008297c <vsprintf>:
   8297c:	a9b97bfd 	stp	x29, x30, [sp, #-112]!
   82980:	910003fd 	mov	x29, sp
   82984:	f9000bf3 	str	x19, [sp, #16]
   82988:	f90017e0 	str	x0, [sp, #40]
   8298c:	f90013e1 	str	x1, [sp, #32]
   82990:	aa0203f3 	mov	x19, x2
   82994:	f94017e0 	ldr	x0, [sp, #40]
   82998:	f90027e0 	str	x0, [sp, #72]
   8299c:	f94013e0 	ldr	x0, [sp, #32]
   829a0:	f100001f 	cmp	x0, #0x0
   829a4:	54000061 	b.ne	829b0 <vsprintf+0x34>  // b.any
   829a8:	52800000 	mov	w0, #0x0                   	// #0
   829ac:	1400017e 	b	82fa4 <vsprintf+0x628>
   829b0:	f90037ff 	str	xzr, [sp, #104]
   829b4:	14000170 	b	82f74 <vsprintf+0x5f8>
   829b8:	f94013e0 	ldr	x0, [sp, #32]
   829bc:	39400000 	ldrb	w0, [x0]
   829c0:	7100941f 	cmp	w0, #0x25
   829c4:	54002b21 	b.ne	82f28 <vsprintf+0x5ac>  // b.any
   829c8:	f94013e0 	ldr	x0, [sp, #32]
   829cc:	91000400 	add	x0, x0, #0x1
   829d0:	f90013e0 	str	x0, [sp, #32]
   829d4:	f94013e0 	ldr	x0, [sp, #32]
   829d8:	39400000 	ldrb	w0, [x0]
   829dc:	7100941f 	cmp	w0, #0x25
   829e0:	54002a80 	b.eq	82f30 <vsprintf+0x5b4>  // b.none
   829e4:	b90067ff 	str	wzr, [sp, #100]
   829e8:	14000010 	b	82a28 <vsprintf+0xac>
   829ec:	b94067e1 	ldr	w1, [sp, #100]
   829f0:	2a0103e0 	mov	w0, w1
   829f4:	531e7400 	lsl	w0, w0, #2
   829f8:	0b010000 	add	w0, w0, w1
   829fc:	531f7800 	lsl	w0, w0, #1
   82a00:	b90067e0 	str	w0, [sp, #100]
   82a04:	f94013e0 	ldr	x0, [sp, #32]
   82a08:	39400000 	ldrb	w0, [x0]
   82a0c:	5100c000 	sub	w0, w0, #0x30
   82a10:	b94067e1 	ldr	w1, [sp, #100]
   82a14:	0b000020 	add	w0, w1, w0
   82a18:	b90067e0 	str	w0, [sp, #100]
   82a1c:	f94013e0 	ldr	x0, [sp, #32]
   82a20:	91000400 	add	x0, x0, #0x1
   82a24:	f90013e0 	str	x0, [sp, #32]
   82a28:	f94013e0 	ldr	x0, [sp, #32]
   82a2c:	39400000 	ldrb	w0, [x0]
   82a30:	7100bc1f 	cmp	w0, #0x2f
   82a34:	540000a9 	b.ls	82a48 <vsprintf+0xcc>  // b.plast
   82a38:	f94013e0 	ldr	x0, [sp, #32]
   82a3c:	39400000 	ldrb	w0, [x0]
   82a40:	7100e41f 	cmp	w0, #0x39
   82a44:	54fffd49 	b.ls	829ec <vsprintf+0x70>  // b.plast
   82a48:	f94013e0 	ldr	x0, [sp, #32]
   82a4c:	39400000 	ldrb	w0, [x0]
   82a50:	7101b01f 	cmp	w0, #0x6c
   82a54:	54000081 	b.ne	82a64 <vsprintf+0xe8>  // b.any
   82a58:	f94013e0 	ldr	x0, [sp, #32]
   82a5c:	91000400 	add	x0, x0, #0x1
   82a60:	f90013e0 	str	x0, [sp, #32]
   82a64:	f94013e0 	ldr	x0, [sp, #32]
   82a68:	39400000 	ldrb	w0, [x0]
   82a6c:	71018c1f 	cmp	w0, #0x63
   82a70:	54000521 	b.ne	82b14 <vsprintf+0x198>  // b.any
   82a74:	b9401a61 	ldr	w1, [x19, #24]
   82a78:	f9400260 	ldr	x0, [x19]
   82a7c:	7100003f 	cmp	w1, #0x0
   82a80:	540000ab 	b.lt	82a94 <vsprintf+0x118>  // b.tstop
   82a84:	91002c01 	add	x1, x0, #0xb
   82a88:	927df021 	and	x1, x1, #0xfffffffffffffff8
   82a8c:	f9000261 	str	x1, [x19]
   82a90:	1400000d 	b	82ac4 <vsprintf+0x148>
   82a94:	11002022 	add	w2, w1, #0x8
   82a98:	b9001a62 	str	w2, [x19, #24]
   82a9c:	b9401a62 	ldr	w2, [x19, #24]
   82aa0:	7100005f 	cmp	w2, #0x0
   82aa4:	540000ad 	b.le	82ab8 <vsprintf+0x13c>
   82aa8:	91002c01 	add	x1, x0, #0xb
   82aac:	927df021 	and	x1, x1, #0xfffffffffffffff8
   82ab0:	f9000261 	str	x1, [x19]
   82ab4:	14000004 	b	82ac4 <vsprintf+0x148>
   82ab8:	f9400662 	ldr	x2, [x19, #8]
   82abc:	93407c20 	sxtw	x0, w1
   82ac0:	8b000040 	add	x0, x2, x0
   82ac4:	b9400000 	ldr	w0, [x0]
   82ac8:	93407c00 	sxtw	x0, w0
   82acc:	f90037e0 	str	x0, [sp, #104]
   82ad0:	f94017e0 	ldr	x0, [sp, #40]
   82ad4:	f100001f 	cmp	x0, #0x0
   82ad8:	54000100 	b.eq	82af8 <vsprintf+0x17c>  // b.none
   82adc:	f94017e0 	ldr	x0, [sp, #40]
   82ae0:	91000401 	add	x1, x0, #0x1
   82ae4:	f90017e1 	str	x1, [sp, #40]
   82ae8:	f94037e1 	ldr	x1, [sp, #104]
   82aec:	12001c21 	and	w1, w1, #0xff
   82af0:	39000001 	strb	w1, [x0]
   82af4:	14000004 	b	82b04 <vsprintf+0x188>
   82af8:	f94037e0 	ldr	x0, [sp, #104]
   82afc:	12001c00 	and	w0, w0, #0xff
   82b00:	97fffb4e 	bl	81838 <uart_send>
   82b04:	f94013e0 	ldr	x0, [sp, #32]
   82b08:	91000400 	add	x0, x0, #0x1
   82b0c:	f90013e0 	str	x0, [sp, #32]
   82b10:	14000119 	b	82f74 <vsprintf+0x5f8>
   82b14:	f94013e0 	ldr	x0, [sp, #32]
   82b18:	39400000 	ldrb	w0, [x0]
   82b1c:	7101901f 	cmp	w0, #0x64
   82b20:	54000ee1 	b.ne	82cfc <vsprintf+0x380>  // b.any
   82b24:	b9401a61 	ldr	w1, [x19, #24]
   82b28:	f9400260 	ldr	x0, [x19]
   82b2c:	7100003f 	cmp	w1, #0x0
   82b30:	540000ab 	b.lt	82b44 <vsprintf+0x1c8>  // b.tstop
   82b34:	91002c01 	add	x1, x0, #0xb
   82b38:	927df021 	and	x1, x1, #0xfffffffffffffff8
   82b3c:	f9000261 	str	x1, [x19]
   82b40:	1400000d 	b	82b74 <vsprintf+0x1f8>
   82b44:	11002022 	add	w2, w1, #0x8
   82b48:	b9001a62 	str	w2, [x19, #24]
   82b4c:	b9401a62 	ldr	w2, [x19, #24]
   82b50:	7100005f 	cmp	w2, #0x0
   82b54:	540000ad 	b.le	82b68 <vsprintf+0x1ec>
   82b58:	91002c01 	add	x1, x0, #0xb
   82b5c:	927df021 	and	x1, x1, #0xfffffffffffffff8
   82b60:	f9000261 	str	x1, [x19]
   82b64:	14000004 	b	82b74 <vsprintf+0x1f8>
   82b68:	f9400662 	ldr	x2, [x19, #8]
   82b6c:	93407c20 	sxtw	x0, w1
   82b70:	8b000040 	add	x0, x2, x0
   82b74:	b9400000 	ldr	w0, [x0]
   82b78:	93407c00 	sxtw	x0, w0
   82b7c:	f90037e0 	str	x0, [sp, #104]
   82b80:	b90063ff 	str	wzr, [sp, #96]
   82b84:	f94037e0 	ldr	x0, [sp, #104]
   82b88:	7100001f 	cmp	w0, #0x0
   82b8c:	540000ea 	b.ge	82ba8 <vsprintf+0x22c>  // b.tcont
   82b90:	f94037e0 	ldr	x0, [sp, #104]
   82b94:	cb0003e0 	neg	x0, x0
   82b98:	f90037e0 	str	x0, [sp, #104]
   82b9c:	b94063e0 	ldr	w0, [sp, #96]
   82ba0:	11000400 	add	w0, w0, #0x1
   82ba4:	b90063e0 	str	w0, [sp, #96]
   82ba8:	f94037e1 	ldr	x1, [sp, #104]
   82bac:	92b44ec0 	mov	x0, #0xffffffff5d89ffff    	// #-2725642241
   82bb0:	f2c8af00 	movk	x0, #0x4578, lsl #32
   82bb4:	f2e02c60 	movk	x0, #0x163, lsl #48
   82bb8:	eb00003f 	cmp	x1, x0
   82bbc:	540000ad 	b.le	82bd0 <vsprintf+0x254>
   82bc0:	92b44ec0 	mov	x0, #0xffffffff5d89ffff    	// #-2725642241
   82bc4:	f2c8af00 	movk	x0, #0x4578, lsl #32
   82bc8:	f2e02c60 	movk	x0, #0x163, lsl #48
   82bcc:	f90037e0 	str	x0, [sp, #104]
   82bd0:	52800240 	mov	w0, #0x12                  	// #18
   82bd4:	b9005fe0 	str	w0, [sp, #92]
   82bd8:	b9805fe0 	ldrsw	x0, [sp, #92]
   82bdc:	9100c3e1 	add	x1, sp, #0x30
   82be0:	3820683f 	strb	wzr, [x1, x0]
   82be4:	f94037e1 	ldr	x1, [sp, #104]
   82be8:	b203e7e0 	mov	x0, #0x6666666666666666    	// #7378697629483820646
   82bec:	f28ccce0 	movk	x0, #0x6667
   82bf0:	9b407c20 	smulh	x0, x1, x0
   82bf4:	9342fc02 	asr	x2, x0, #2
   82bf8:	937ffc20 	asr	x0, x1, #63
   82bfc:	cb000042 	sub	x2, x2, x0
   82c00:	aa0203e0 	mov	x0, x2
   82c04:	d37ef400 	lsl	x0, x0, #2
   82c08:	8b020000 	add	x0, x0, x2
   82c0c:	d37ff800 	lsl	x0, x0, #1
   82c10:	cb000022 	sub	x2, x1, x0
   82c14:	12001c40 	and	w0, w2, #0xff
   82c18:	b9405fe1 	ldr	w1, [sp, #92]
   82c1c:	51000421 	sub	w1, w1, #0x1
   82c20:	b9005fe1 	str	w1, [sp, #92]
   82c24:	1100c000 	add	w0, w0, #0x30
   82c28:	12001c02 	and	w2, w0, #0xff
   82c2c:	b9805fe0 	ldrsw	x0, [sp, #92]
   82c30:	9100c3e1 	add	x1, sp, #0x30
   82c34:	38206822 	strb	w2, [x1, x0]
   82c38:	f94037e0 	ldr	x0, [sp, #104]
   82c3c:	b203e7e1 	mov	x1, #0x6666666666666666    	// #7378697629483820646
   82c40:	f28ccce1 	movk	x1, #0x6667
   82c44:	9b417c01 	smulh	x1, x0, x1
   82c48:	9342fc21 	asr	x1, x1, #2
   82c4c:	937ffc00 	asr	x0, x0, #63
   82c50:	cb000020 	sub	x0, x1, x0
   82c54:	f90037e0 	str	x0, [sp, #104]
   82c58:	f94037e0 	ldr	x0, [sp, #104]
   82c5c:	f100001f 	cmp	x0, #0x0
   82c60:	54000080 	b.eq	82c70 <vsprintf+0x2f4>  // b.none
   82c64:	b9405fe0 	ldr	w0, [sp, #92]
   82c68:	7100001f 	cmp	w0, #0x0
   82c6c:	54fffbcc 	b.gt	82be4 <vsprintf+0x268>
   82c70:	b94063e0 	ldr	w0, [sp, #96]
   82c74:	7100001f 	cmp	w0, #0x0
   82c78:	54000100 	b.eq	82c98 <vsprintf+0x31c>  // b.none
   82c7c:	b9405fe0 	ldr	w0, [sp, #92]
   82c80:	51000400 	sub	w0, w0, #0x1
   82c84:	b9005fe0 	str	w0, [sp, #92]
   82c88:	b9805fe0 	ldrsw	x0, [sp, #92]
   82c8c:	9100c3e1 	add	x1, sp, #0x30
   82c90:	528005a2 	mov	w2, #0x2d                  	// #45
   82c94:	38206822 	strb	w2, [x1, x0]
   82c98:	b94067e0 	ldr	w0, [sp, #100]
   82c9c:	7100001f 	cmp	w0, #0x0
   82ca0:	5400024d 	b.le	82ce8 <vsprintf+0x36c>
   82ca4:	b94067e0 	ldr	w0, [sp, #100]
   82ca8:	7100441f 	cmp	w0, #0x11
   82cac:	540001ec 	b.gt	82ce8 <vsprintf+0x36c>
   82cb0:	14000008 	b	82cd0 <vsprintf+0x354>
   82cb4:	b9405fe0 	ldr	w0, [sp, #92]
   82cb8:	51000400 	sub	w0, w0, #0x1
   82cbc:	b9005fe0 	str	w0, [sp, #92]
   82cc0:	b9805fe0 	ldrsw	x0, [sp, #92]
   82cc4:	9100c3e1 	add	x1, sp, #0x30
   82cc8:	52800402 	mov	w2, #0x20                  	// #32
   82ccc:	38206822 	strb	w2, [x1, x0]
   82cd0:	52800241 	mov	w1, #0x12                  	// #18
   82cd4:	b94067e0 	ldr	w0, [sp, #100]
   82cd8:	4b000020 	sub	w0, w1, w0
   82cdc:	b9405fe1 	ldr	w1, [sp, #92]
   82ce0:	6b00003f 	cmp	w1, w0
   82ce4:	54fffe8c 	b.gt	82cb4 <vsprintf+0x338>
   82ce8:	9100c3e1 	add	x1, sp, #0x30
   82cec:	b9805fe0 	ldrsw	x0, [sp, #92]
   82cf0:	8b000020 	add	x0, x1, x0
   82cf4:	f9002be0 	str	x0, [sp, #80]
   82cf8:	1400006f 	b	82eb4 <vsprintf+0x538>
   82cfc:	f94013e0 	ldr	x0, [sp, #32]
   82d00:	39400000 	ldrb	w0, [x0]
   82d04:	7101e01f 	cmp	w0, #0x78
   82d08:	54000a21 	b.ne	82e4c <vsprintf+0x4d0>  // b.any
   82d0c:	b9401a61 	ldr	w1, [x19, #24]
   82d10:	f9400260 	ldr	x0, [x19]
   82d14:	7100003f 	cmp	w1, #0x0
   82d18:	540000ab 	b.lt	82d2c <vsprintf+0x3b0>  // b.tstop
   82d1c:	91003c01 	add	x1, x0, #0xf
   82d20:	927df021 	and	x1, x1, #0xfffffffffffffff8
   82d24:	f9000261 	str	x1, [x19]
   82d28:	1400000d 	b	82d5c <vsprintf+0x3e0>
   82d2c:	11002022 	add	w2, w1, #0x8
   82d30:	b9001a62 	str	w2, [x19, #24]
   82d34:	b9401a62 	ldr	w2, [x19, #24]
   82d38:	7100005f 	cmp	w2, #0x0
   82d3c:	540000ad 	b.le	82d50 <vsprintf+0x3d4>
   82d40:	91003c01 	add	x1, x0, #0xf
   82d44:	927df021 	and	x1, x1, #0xfffffffffffffff8
   82d48:	f9000261 	str	x1, [x19]
   82d4c:	14000004 	b	82d5c <vsprintf+0x3e0>
   82d50:	f9400662 	ldr	x2, [x19, #8]
   82d54:	93407c20 	sxtw	x0, w1
   82d58:	8b000040 	add	x0, x2, x0
   82d5c:	f9400000 	ldr	x0, [x0]
   82d60:	f90037e0 	str	x0, [sp, #104]
   82d64:	52800200 	mov	w0, #0x10                  	// #16
   82d68:	b9005fe0 	str	w0, [sp, #92]
   82d6c:	b9805fe0 	ldrsw	x0, [sp, #92]
   82d70:	9100c3e1 	add	x1, sp, #0x30
   82d74:	3820683f 	strb	wzr, [x1, x0]
   82d78:	f94037e0 	ldr	x0, [sp, #104]
   82d7c:	12001c00 	and	w0, w0, #0xff
   82d80:	12000c00 	and	w0, w0, #0xf
   82d84:	39011fe0 	strb	w0, [sp, #71]
   82d88:	39411fe0 	ldrb	w0, [sp, #71]
   82d8c:	7100241f 	cmp	w0, #0x9
   82d90:	54000069 	b.ls	82d9c <vsprintf+0x420>  // b.plast
   82d94:	528006e0 	mov	w0, #0x37                  	// #55
   82d98:	14000002 	b	82da0 <vsprintf+0x424>
   82d9c:	52800600 	mov	w0, #0x30                  	// #48
   82da0:	b9405fe1 	ldr	w1, [sp, #92]
   82da4:	51000421 	sub	w1, w1, #0x1
   82da8:	b9005fe1 	str	w1, [sp, #92]
   82dac:	39411fe1 	ldrb	w1, [sp, #71]
   82db0:	0b010000 	add	w0, w0, w1
   82db4:	12001c02 	and	w2, w0, #0xff
   82db8:	b9805fe0 	ldrsw	x0, [sp, #92]
   82dbc:	9100c3e1 	add	x1, sp, #0x30
   82dc0:	38206822 	strb	w2, [x1, x0]
   82dc4:	f94037e0 	ldr	x0, [sp, #104]
   82dc8:	9344fc00 	asr	x0, x0, #4
   82dcc:	f90037e0 	str	x0, [sp, #104]
   82dd0:	f94037e0 	ldr	x0, [sp, #104]
   82dd4:	f100001f 	cmp	x0, #0x0
   82dd8:	54000080 	b.eq	82de8 <vsprintf+0x46c>  // b.none
   82ddc:	b9405fe0 	ldr	w0, [sp, #92]
   82de0:	7100001f 	cmp	w0, #0x0
   82de4:	54fffcac 	b.gt	82d78 <vsprintf+0x3fc>
   82de8:	b94067e0 	ldr	w0, [sp, #100]
   82dec:	7100001f 	cmp	w0, #0x0
   82df0:	5400024d 	b.le	82e38 <vsprintf+0x4bc>
   82df4:	b94067e0 	ldr	w0, [sp, #100]
   82df8:	7100401f 	cmp	w0, #0x10
   82dfc:	540001ec 	b.gt	82e38 <vsprintf+0x4bc>
   82e00:	14000008 	b	82e20 <vsprintf+0x4a4>
   82e04:	b9405fe0 	ldr	w0, [sp, #92]
   82e08:	51000400 	sub	w0, w0, #0x1
   82e0c:	b9005fe0 	str	w0, [sp, #92]
   82e10:	b9805fe0 	ldrsw	x0, [sp, #92]
   82e14:	9100c3e1 	add	x1, sp, #0x30
   82e18:	52800602 	mov	w2, #0x30                  	// #48
   82e1c:	38206822 	strb	w2, [x1, x0]
   82e20:	52800201 	mov	w1, #0x10                  	// #16
   82e24:	b94067e0 	ldr	w0, [sp, #100]
   82e28:	4b000020 	sub	w0, w1, w0
   82e2c:	b9405fe1 	ldr	w1, [sp, #92]
   82e30:	6b00003f 	cmp	w1, w0
   82e34:	54fffe8c 	b.gt	82e04 <vsprintf+0x488>
   82e38:	9100c3e1 	add	x1, sp, #0x30
   82e3c:	b9805fe0 	ldrsw	x0, [sp, #92]
   82e40:	8b000020 	add	x0, x1, x0
   82e44:	f9002be0 	str	x0, [sp, #80]
   82e48:	1400001b 	b	82eb4 <vsprintf+0x538>
   82e4c:	f94013e0 	ldr	x0, [sp, #32]
   82e50:	39400000 	ldrb	w0, [x0]
   82e54:	7101cc1f 	cmp	w0, #0x73
   82e58:	54000881 	b.ne	82f68 <vsprintf+0x5ec>  // b.any
   82e5c:	b9401a61 	ldr	w1, [x19, #24]
   82e60:	f9400260 	ldr	x0, [x19]
   82e64:	7100003f 	cmp	w1, #0x0
   82e68:	540000ab 	b.lt	82e7c <vsprintf+0x500>  // b.tstop
   82e6c:	91003c01 	add	x1, x0, #0xf
   82e70:	927df021 	and	x1, x1, #0xfffffffffffffff8
   82e74:	f9000261 	str	x1, [x19]
   82e78:	1400000d 	b	82eac <vsprintf+0x530>
   82e7c:	11002022 	add	w2, w1, #0x8
   82e80:	b9001a62 	str	w2, [x19, #24]
   82e84:	b9401a62 	ldr	w2, [x19, #24]
   82e88:	7100005f 	cmp	w2, #0x0
   82e8c:	540000ad 	b.le	82ea0 <vsprintf+0x524>
   82e90:	91003c01 	add	x1, x0, #0xf
   82e94:	927df021 	and	x1, x1, #0xfffffffffffffff8
   82e98:	f9000261 	str	x1, [x19]
   82e9c:	14000004 	b	82eac <vsprintf+0x530>
   82ea0:	f9400662 	ldr	x2, [x19, #8]
   82ea4:	93407c20 	sxtw	x0, w1
   82ea8:	8b000040 	add	x0, x2, x0
   82eac:	f9400000 	ldr	x0, [x0]
   82eb0:	f9002be0 	str	x0, [sp, #80]
   82eb4:	f9402be0 	ldr	x0, [sp, #80]
   82eb8:	f100001f 	cmp	x0, #0x0
   82ebc:	540002c1 	b.ne	82f14 <vsprintf+0x598>  // b.any
   82ec0:	f0000000 	adrp	x0, 85000 <error_invalid_el0_64+0x94>
   82ec4:	913a0000 	add	x0, x0, #0xe80
   82ec8:	f9002be0 	str	x0, [sp, #80]
   82ecc:	14000012 	b	82f14 <vsprintf+0x598>
   82ed0:	f94017e0 	ldr	x0, [sp, #40]
   82ed4:	f100001f 	cmp	x0, #0x0
   82ed8:	54000140 	b.eq	82f00 <vsprintf+0x584>  // b.none
   82edc:	f9402be1 	ldr	x1, [sp, #80]
   82ee0:	91000420 	add	x0, x1, #0x1
   82ee4:	f9002be0 	str	x0, [sp, #80]
   82ee8:	f94017e0 	ldr	x0, [sp, #40]
   82eec:	91000402 	add	x2, x0, #0x1
   82ef0:	f90017e2 	str	x2, [sp, #40]
   82ef4:	39400021 	ldrb	w1, [x1]
   82ef8:	39000001 	strb	w1, [x0]
   82efc:	14000006 	b	82f14 <vsprintf+0x598>
   82f00:	f9402be0 	ldr	x0, [sp, #80]
   82f04:	91000401 	add	x1, x0, #0x1
   82f08:	f9002be1 	str	x1, [sp, #80]
   82f0c:	39400000 	ldrb	w0, [x0]
   82f10:	97fffa4a 	bl	81838 <uart_send>
   82f14:	f9402be0 	ldr	x0, [sp, #80]
   82f18:	39400000 	ldrb	w0, [x0]
   82f1c:	7100001f 	cmp	w0, #0x0
   82f20:	54fffd81 	b.ne	82ed0 <vsprintf+0x554>  // b.any
   82f24:	14000011 	b	82f68 <vsprintf+0x5ec>
   82f28:	d503201f 	nop
   82f2c:	14000002 	b	82f34 <vsprintf+0x5b8>
   82f30:	d503201f 	nop
   82f34:	f94017e0 	ldr	x0, [sp, #40]
   82f38:	f100001f 	cmp	x0, #0x0
   82f3c:	54000100 	b.eq	82f5c <vsprintf+0x5e0>  // b.none
   82f40:	f94017e0 	ldr	x0, [sp, #40]
   82f44:	91000401 	add	x1, x0, #0x1
   82f48:	f90017e1 	str	x1, [sp, #40]
   82f4c:	f94013e1 	ldr	x1, [sp, #32]
   82f50:	39400021 	ldrb	w1, [x1]
   82f54:	39000001 	strb	w1, [x0]
   82f58:	14000004 	b	82f68 <vsprintf+0x5ec>
   82f5c:	f94013e0 	ldr	x0, [sp, #32]
   82f60:	39400000 	ldrb	w0, [x0]
   82f64:	97fffa35 	bl	81838 <uart_send>
   82f68:	f94013e0 	ldr	x0, [sp, #32]
   82f6c:	91000400 	add	x0, x0, #0x1
   82f70:	f90013e0 	str	x0, [sp, #32]
   82f74:	f94013e0 	ldr	x0, [sp, #32]
   82f78:	39400000 	ldrb	w0, [x0]
   82f7c:	7100001f 	cmp	w0, #0x0
   82f80:	54ffd1c1 	b.ne	829b8 <vsprintf+0x3c>  // b.any
   82f84:	f94017e0 	ldr	x0, [sp, #40]
   82f88:	f100001f 	cmp	x0, #0x0
   82f8c:	54000060 	b.eq	82f98 <vsprintf+0x61c>  // b.none
   82f90:	f94017e0 	ldr	x0, [sp, #40]
   82f94:	3900001f 	strb	wzr, [x0]
   82f98:	f94017e1 	ldr	x1, [sp, #40]
   82f9c:	f94027e0 	ldr	x0, [sp, #72]
   82fa0:	cb000020 	sub	x0, x1, x0
   82fa4:	f9400bf3 	ldr	x19, [sp, #16]
   82fa8:	a8c77bfd 	ldp	x29, x30, [sp], #112
   82fac:	d65f03c0 	ret

0000000000082fb0 <sprintf>:
   82fb0:	a9b77bfd 	stp	x29, x30, [sp, #-144]!
   82fb4:	910003fd 	mov	x29, sp
   82fb8:	f9001fe0 	str	x0, [sp, #56]
   82fbc:	f9001be1 	str	x1, [sp, #48]
   82fc0:	f90033e2 	str	x2, [sp, #96]
   82fc4:	f90037e3 	str	x3, [sp, #104]
   82fc8:	f9003be4 	str	x4, [sp, #112]
   82fcc:	f9003fe5 	str	x5, [sp, #120]
   82fd0:	f90043e6 	str	x6, [sp, #128]
   82fd4:	f90047e7 	str	x7, [sp, #136]
   82fd8:	910243e0 	add	x0, sp, #0x90
   82fdc:	f90023e0 	str	x0, [sp, #64]
   82fe0:	910243e0 	add	x0, sp, #0x90
   82fe4:	f90027e0 	str	x0, [sp, #72]
   82fe8:	910183e0 	add	x0, sp, #0x60
   82fec:	f9002be0 	str	x0, [sp, #80]
   82ff0:	128005e0 	mov	w0, #0xffffffd0            	// #-48
   82ff4:	b9005be0 	str	w0, [sp, #88]
   82ff8:	b9005fff 	str	wzr, [sp, #92]
   82ffc:	910043e2 	add	x2, sp, #0x10
   83000:	910103e3 	add	x3, sp, #0x40
   83004:	a9400460 	ldp	x0, x1, [x3]
   83008:	a9000440 	stp	x0, x1, [x2]
   8300c:	a9410460 	ldp	x0, x1, [x3, #16]
   83010:	a9010440 	stp	x0, x1, [x2, #16]
   83014:	910043e0 	add	x0, sp, #0x10
   83018:	aa0003e2 	mov	x2, x0
   8301c:	f9401be1 	ldr	x1, [sp, #48]
   83020:	f9401fe0 	ldr	x0, [sp, #56]
   83024:	97fffe56 	bl	8297c <vsprintf>
   83028:	a8c97bfd 	ldp	x29, x30, [sp], #144
   8302c:	d65f03c0 	ret

0000000000083030 <printf>:
   83030:	a9b67bfd 	stp	x29, x30, [sp, #-160]!
   83034:	910003fd 	mov	x29, sp
   83038:	f9001fe0 	str	x0, [sp, #56]
   8303c:	f90037e1 	str	x1, [sp, #104]
   83040:	f9003be2 	str	x2, [sp, #112]
   83044:	f9003fe3 	str	x3, [sp, #120]
   83048:	f90043e4 	str	x4, [sp, #128]
   8304c:	f90047e5 	str	x5, [sp, #136]
   83050:	f9004be6 	str	x6, [sp, #144]
   83054:	f9004fe7 	str	x7, [sp, #152]
   83058:	910283e0 	add	x0, sp, #0xa0
   8305c:	f90023e0 	str	x0, [sp, #64]
   83060:	910283e0 	add	x0, sp, #0xa0
   83064:	f90027e0 	str	x0, [sp, #72]
   83068:	910183e0 	add	x0, sp, #0x60
   8306c:	f9002be0 	str	x0, [sp, #80]
   83070:	128006e0 	mov	w0, #0xffffffc8            	// #-56
   83074:	b9005be0 	str	w0, [sp, #88]
   83078:	b9005fff 	str	wzr, [sp, #92]
   8307c:	910043e2 	add	x2, sp, #0x10
   83080:	910103e3 	add	x3, sp, #0x40
   83084:	a9400460 	ldp	x0, x1, [x3]
   83088:	a9000440 	stp	x0, x1, [x2]
   8308c:	a9410460 	ldp	x0, x1, [x3, #16]
   83090:	a9010440 	stp	x0, x1, [x2, #16]
   83094:	910043e0 	add	x0, sp, #0x10
   83098:	aa0003e2 	mov	x2, x0
   8309c:	f9401fe1 	ldr	x1, [sp, #56]
   830a0:	d2800000 	mov	x0, #0x0                   	// #0
   830a4:	97fffe36 	bl	8297c <vsprintf>
   830a8:	d503201f 	nop
   830ac:	a8ca7bfd 	ldp	x29, x30, [sp], #160
   830b0:	d65f03c0 	ret

00000000000830b4 <strcmp>:
   830b4:	d10043ff 	sub	sp, sp, #0x10
   830b8:	f90007e0 	str	x0, [sp, #8]
   830bc:	f90003e1 	str	x1, [sp]
   830c0:	14000007 	b	830dc <strcmp+0x28>
   830c4:	f94007e0 	ldr	x0, [sp, #8]
   830c8:	91000400 	add	x0, x0, #0x1
   830cc:	f90007e0 	str	x0, [sp, #8]
   830d0:	f94003e0 	ldr	x0, [sp]
   830d4:	91000400 	add	x0, x0, #0x1
   830d8:	f90003e0 	str	x0, [sp]
   830dc:	f94007e0 	ldr	x0, [sp, #8]
   830e0:	39400000 	ldrb	w0, [x0]
   830e4:	7100001f 	cmp	w0, #0x0
   830e8:	540000e0 	b.eq	83104 <strcmp+0x50>  // b.none
   830ec:	f94007e0 	ldr	x0, [sp, #8]
   830f0:	39400001 	ldrb	w1, [x0]
   830f4:	f94003e0 	ldr	x0, [sp]
   830f8:	39400000 	ldrb	w0, [x0]
   830fc:	6b00003f 	cmp	w1, w0
   83100:	54fffe20 	b.eq	830c4 <strcmp+0x10>  // b.none
   83104:	f94007e0 	ldr	x0, [sp, #8]
   83108:	39400000 	ldrb	w0, [x0]
   8310c:	2a0003e1 	mov	w1, w0
   83110:	f94003e0 	ldr	x0, [sp]
   83114:	39400000 	ldrb	w0, [x0]
   83118:	4b000020 	sub	w0, w1, w0
   8311c:	910043ff 	add	sp, sp, #0x10
   83120:	d65f03c0 	ret

0000000000083124 <strchr>:
   83124:	d10043ff 	sub	sp, sp, #0x10
   83128:	f90007e0 	str	x0, [sp, #8]
   8312c:	b90007e1 	str	w1, [sp, #4]
   83130:	14000009 	b	83154 <strchr+0x30>
   83134:	f94007e0 	ldr	x0, [sp, #8]
   83138:	91000401 	add	x1, x0, #0x1
   8313c:	f90007e1 	str	x1, [sp, #8]
   83140:	39400000 	ldrb	w0, [x0]
   83144:	7100001f 	cmp	w0, #0x0
   83148:	54000061 	b.ne	83154 <strchr+0x30>  // b.any
   8314c:	d2800000 	mov	x0, #0x0                   	// #0
   83150:	14000008 	b	83170 <strchr+0x4c>
   83154:	f94007e0 	ldr	x0, [sp, #8]
   83158:	39400001 	ldrb	w1, [x0]
   8315c:	b94007e0 	ldr	w0, [sp, #4]
   83160:	12001c00 	and	w0, w0, #0xff
   83164:	6b00003f 	cmp	w1, w0
   83168:	54fffe61 	b.ne	83134 <strchr+0x10>  // b.any
   8316c:	f94007e0 	ldr	x0, [sp, #8]
   83170:	910043ff 	add	sp, sp, #0x10
   83174:	d65f03c0 	ret

0000000000083178 <strlen>:
   83178:	d10083ff 	sub	sp, sp, #0x20
   8317c:	f90007e0 	str	x0, [sp, #8]
   83180:	f94007e0 	ldr	x0, [sp, #8]
   83184:	f9000fe0 	str	x0, [sp, #24]
   83188:	14000004 	b	83198 <strlen+0x20>
   8318c:	f94007e0 	ldr	x0, [sp, #8]
   83190:	91000400 	add	x0, x0, #0x1
   83194:	f90007e0 	str	x0, [sp, #8]
   83198:	f94007e0 	ldr	x0, [sp, #8]
   8319c:	39400000 	ldrb	w0, [x0]
   831a0:	7100001f 	cmp	w0, #0x0
   831a4:	54ffff41 	b.ne	8318c <strlen+0x14>  // b.any
   831a8:	f94007e1 	ldr	x1, [sp, #8]
   831ac:	f9400fe0 	ldr	x0, [sp, #24]
   831b0:	cb000020 	sub	x0, x1, x0
   831b4:	910083ff 	add	sp, sp, #0x20
   831b8:	d65f03c0 	ret

00000000000831bc <sys_read>:
   831bc:	d503201f 	nop
   831c0:	d65f03c0 	ret

00000000000831c4 <sys_write>:
   831c4:	a9be7bfd 	stp	x29, x30, [sp, #-32]!
   831c8:	910003fd 	mov	x29, sp
   831cc:	f9000fe0 	str	x0, [sp, #24]
   831d0:	f9400fe1 	ldr	x1, [sp, #24]
   831d4:	d0000000 	adrp	x0, 85000 <error_invalid_el0_64+0x94>
   831d8:	913a2000 	add	x0, x0, #0xe88
   831dc:	97ffff95 	bl	83030 <printf>
   831e0:	d503201f 	nop
   831e4:	a8c27bfd 	ldp	x29, x30, [sp], #32
   831e8:	d65f03c0 	ret

00000000000831ec <sys_exec>:
   831ec:	a9be7bfd 	stp	x29, x30, [sp, #-32]!
   831f0:	910003fd 	mov	x29, sp
   831f4:	f9000fe0 	str	x0, [sp, #24]
   831f8:	f9400fe0 	ldr	x0, [sp, #24]
   831fc:	940001b2 	bl	838c4 <do_exec>
   83200:	d503201f 	nop
   83204:	a8c27bfd 	ldp	x29, x30, [sp], #32
   83208:	d65f03c0 	ret

000000000008320c <sys_fork>:
   8320c:	a9be7bfd 	stp	x29, x30, [sp, #-32]!
   83210:	910003fd 	mov	x29, sp
   83214:	f9000fe0 	str	x0, [sp, #24]
   83218:	f9400fe1 	ldr	x1, [sp, #24]
   8321c:	f0000000 	adrp	x0, 86000 <delay+0xb88>
   83220:	f942b000 	ldr	x0, [x0, #1376]
   83224:	940000a6 	bl	834bc <privilege_task_create>
   83228:	52800000 	mov	w0, #0x0                   	// #0
   8322c:	a8c27bfd 	ldp	x29, x30, [sp], #32
   83230:	d65f03c0 	ret

0000000000083234 <sys_exit>:
   83234:	a9bf7bfd 	stp	x29, x30, [sp, #-16]!
   83238:	910003fd 	mov	x29, sp
   8323c:	94000078 	bl	8341c <preempt_disable>
   83240:	f0000000 	adrp	x0, 86000 <delay+0xb88>
   83244:	f942b800 	ldr	x0, [x0, #1392]
   83248:	f9400000 	ldr	x0, [x0]
   8324c:	52800061 	mov	w1, #0x3                   	// #3
   83250:	b901a001 	str	w1, [x0, #416]
   83254:	9400006a 	bl	833fc <preempt_enable>
   83258:	97fffadc 	bl	81dc8 <schedule>
   8325c:	d503201f 	nop
   83260:	a8c17bfd 	ldp	x29, x30, [sp], #16
   83264:	d65f03c0 	ret

0000000000083268 <syscall>:
   83268:	a9bb7bfd 	stp	x29, x30, [sp, #-80]!
   8326c:	910003fd 	mov	x29, sp
   83270:	b9004fe0 	str	w0, [sp, #76]
   83274:	f90023e1 	str	x1, [sp, #64]
   83278:	f9001fe2 	str	x2, [sp, #56]
   8327c:	f9001be3 	str	x3, [sp, #48]
   83280:	f90017e4 	str	x4, [sp, #40]
   83284:	f90013e5 	str	x5, [sp, #32]
   83288:	f9000fe6 	str	x6, [sp, #24]
   8328c:	b9404fe0 	ldr	w0, [sp, #76]
   83290:	7100101f 	cmp	w0, #0x4
   83294:	54000660 	b.eq	83360 <syscall+0xf8>  // b.none
   83298:	b9404fe0 	ldr	w0, [sp, #76]
   8329c:	7100101f 	cmp	w0, #0x4
   832a0:	54000648 	b.hi	83368 <syscall+0x100>  // b.pmore
   832a4:	b9404fe0 	ldr	w0, [sp, #76]
   832a8:	71000c1f 	cmp	w0, #0x3
   832ac:	54000480 	b.eq	8333c <syscall+0xd4>  // b.none
   832b0:	b9404fe0 	ldr	w0, [sp, #76]
   832b4:	71000c1f 	cmp	w0, #0x3
   832b8:	54000588 	b.hi	83368 <syscall+0x100>  // b.pmore
   832bc:	b9404fe0 	ldr	w0, [sp, #76]
   832c0:	7100081f 	cmp	w0, #0x2
   832c4:	540002a0 	b.eq	83318 <syscall+0xb0>  // b.none
   832c8:	b9404fe0 	ldr	w0, [sp, #76]
   832cc:	7100081f 	cmp	w0, #0x2
   832d0:	540004c8 	b.hi	83368 <syscall+0x100>  // b.pmore
   832d4:	b9404fe0 	ldr	w0, [sp, #76]
   832d8:	7100001f 	cmp	w0, #0x0
   832dc:	540000a0 	b.eq	832f0 <syscall+0x88>  // b.none
   832e0:	b9404fe0 	ldr	w0, [sp, #76]
   832e4:	7100041f 	cmp	w0, #0x1
   832e8:	54000120 	b.eq	8330c <syscall+0xa4>  // b.none
   832ec:	1400001f 	b	83368 <syscall+0x100>
   832f0:	d0000000 	adrp	x0, 85000 <error_invalid_el0_64+0x94>
   832f4:	913a4000 	add	x0, x0, #0xe90
   832f8:	97fff97b 	bl	818e4 <uart_puts>
   832fc:	d0000000 	adrp	x0, 85000 <error_invalid_el0_64+0x94>
   83300:	913a8000 	add	x0, x0, #0xea0
   83304:	97fff978 	bl	818e4 <uart_puts>
   83308:	1400001a 	b	83370 <syscall+0x108>
   8330c:	f94023e0 	ldr	x0, [sp, #64]
   83310:	97ffffad 	bl	831c4 <sys_write>
   83314:	14000017 	b	83370 <syscall+0x108>
   83318:	d0000000 	adrp	x0, 85000 <error_invalid_el0_64+0x94>
   8331c:	913aa000 	add	x0, x0, #0xea8
   83320:	97fff971 	bl	818e4 <uart_puts>
   83324:	d0000000 	adrp	x0, 85000 <error_invalid_el0_64+0x94>
   83328:	913a8000 	add	x0, x0, #0xea0
   8332c:	97fff96e 	bl	818e4 <uart_puts>
   83330:	f94023e0 	ldr	x0, [sp, #64]
   83334:	97ffffae 	bl	831ec <sys_exec>
   83338:	1400000e 	b	83370 <syscall+0x108>
   8333c:	d0000000 	adrp	x0, 85000 <error_invalid_el0_64+0x94>
   83340:	913ae000 	add	x0, x0, #0xeb8
   83344:	97fff968 	bl	818e4 <uart_puts>
   83348:	d0000000 	adrp	x0, 85000 <error_invalid_el0_64+0x94>
   8334c:	913a8000 	add	x0, x0, #0xea0
   83350:	97fff965 	bl	818e4 <uart_puts>
   83354:	f94023e0 	ldr	x0, [sp, #64]
   83358:	97ffffad 	bl	8320c <sys_fork>
   8335c:	14000005 	b	83370 <syscall+0x108>
   83360:	97ffffb5 	bl	83234 <sys_exit>
   83364:	14000003 	b	83370 <syscall+0x108>
   83368:	52800020 	mov	w0, #0x1                   	// #1
   8336c:	14000002 	b	83374 <syscall+0x10c>
   83370:	52800000 	mov	w0, #0x0                   	// #0
   83374:	a8c57bfd 	ldp	x29, x30, [sp], #80
   83378:	d65f03c0 	ret

000000000008337c <append_task>:
   8337c:	d10043ff 	sub	sp, sp, #0x10
   83380:	f90007e0 	str	x0, [sp, #8]
   83384:	f0000000 	adrp	x0, 86000 <delay+0xb88>
   83388:	910b2000 	add	x0, x0, #0x2c8
   8338c:	b9400001 	ldr	w1, [x0]
   83390:	f0000000 	adrp	x0, 86000 <delay+0xb88>
   83394:	f9427400 	ldr	x0, [x0, #1256]
   83398:	93407c21 	sxtw	x1, w1
   8339c:	f94007e2 	ldr	x2, [sp, #8]
   833a0:	f8217802 	str	x2, [x0, x1, lsl #3]
   833a4:	f0000000 	adrp	x0, 86000 <delay+0xb88>
   833a8:	910b2000 	add	x0, x0, #0x2c8
   833ac:	b9400000 	ldr	w0, [x0]
   833b0:	11000400 	add	w0, w0, #0x1
   833b4:	6b0003e1 	negs	w1, w0
   833b8:	12001400 	and	w0, w0, #0x3f
   833bc:	12001421 	and	w1, w1, #0x3f
   833c0:	5a814401 	csneg	w1, w0, w1, mi  // mi = first
   833c4:	f0000000 	adrp	x0, 86000 <delay+0xb88>
   833c8:	910b2000 	add	x0, x0, #0x2c8
   833cc:	b9000001 	str	w1, [x0]
   833d0:	d503201f 	nop
   833d4:	910043ff 	add	sp, sp, #0x10
   833d8:	d65f03c0 	ret

00000000000833dc <unique_pid>:
   833dc:	f0000000 	adrp	x0, 86000 <delay+0xb88>
   833e0:	910b3000 	add	x0, x0, #0x2cc
   833e4:	b9400000 	ldr	w0, [x0]
   833e8:	11000402 	add	w2, w0, #0x1
   833ec:	f0000001 	adrp	x1, 86000 <delay+0xb88>
   833f0:	910b3021 	add	x1, x1, #0x2cc
   833f4:	b9000022 	str	w2, [x1]
   833f8:	d65f03c0 	ret

00000000000833fc <preempt_enable>:
   833fc:	f0000000 	adrp	x0, 86000 <delay+0xb88>
   83400:	f942b800 	ldr	x0, [x0, #1392]
   83404:	f9400000 	ldr	x0, [x0]
   83408:	f940cc01 	ldr	x1, [x0, #408]
   8340c:	d1000421 	sub	x1, x1, #0x1
   83410:	f900cc01 	str	x1, [x0, #408]
   83414:	d503201f 	nop
   83418:	d65f03c0 	ret

000000000008341c <preempt_disable>:
   8341c:	f0000000 	adrp	x0, 86000 <delay+0xb88>
   83420:	f942b800 	ldr	x0, [x0, #1392]
   83424:	f9400000 	ldr	x0, [x0]
   83428:	f940cc01 	ldr	x1, [x0, #408]
   8342c:	91000421 	add	x1, x1, #0x1
   83430:	f900cc01 	str	x1, [x0, #408]
   83434:	d503201f 	nop
   83438:	d65f03c0 	ret

000000000008343c <talloc>:
   8343c:	d10043ff 	sub	sp, sp, #0x10
   83440:	b9000fff 	str	wzr, [sp, #12]
   83444:	14000018 	b	834a4 <talloc+0x68>
   83448:	f0000000 	adrp	x0, 86000 <delay+0xb88>
   8344c:	f942bc01 	ldr	x1, [x0, #1400]
   83450:	b9800fe2 	ldrsw	x2, [sp, #12]
   83454:	d2803500 	mov	x0, #0x1a8                 	// #424
   83458:	9b007c40 	mul	x0, x2, x0
   8345c:	8b000020 	add	x0, x1, x0
   83460:	b941a000 	ldr	w0, [x0, #416]
   83464:	7100001f 	cmp	w0, #0x0
   83468:	54000140 	b.eq	83490 <talloc+0x54>  // b.none
   8346c:	f0000000 	adrp	x0, 86000 <delay+0xb88>
   83470:	f942bc01 	ldr	x1, [x0, #1400]
   83474:	b9800fe2 	ldrsw	x2, [sp, #12]
   83478:	d2803500 	mov	x0, #0x1a8                 	// #424
   8347c:	9b007c40 	mul	x0, x2, x0
   83480:	8b000020 	add	x0, x1, x0
   83484:	b941a000 	ldr	w0, [x0, #416]
   83488:	71000c1f 	cmp	w0, #0x3
   8348c:	54000061 	b.ne	83498 <talloc+0x5c>  // b.any
   83490:	b9400fe0 	ldr	w0, [sp, #12]
   83494:	14000008 	b	834b4 <talloc+0x78>
   83498:	b9400fe0 	ldr	w0, [sp, #12]
   8349c:	11000400 	add	w0, w0, #0x1
   834a0:	b9000fe0 	str	w0, [sp, #12]
   834a4:	b9400fe0 	ldr	w0, [sp, #12]
   834a8:	7100fc1f 	cmp	w0, #0x3f
   834ac:	54fffced 	b.le	83448 <talloc+0xc>
   834b0:	12800000 	mov	w0, #0xffffffff            	// #-1
   834b4:	910043ff 	add	sp, sp, #0x10
   834b8:	d65f03c0 	ret

00000000000834bc <privilege_task_create>:
   834bc:	a9bd7bfd 	stp	x29, x30, [sp, #-48]!
   834c0:	910003fd 	mov	x29, sp
   834c4:	f9000fe0 	str	x0, [sp, #24]
   834c8:	f9000be1 	str	x1, [sp, #16]
   834cc:	97ffffd4 	bl	8341c <preempt_disable>
   834d0:	97ffffdb 	bl	8343c <talloc>
   834d4:	b9002fe0 	str	w0, [sp, #44]
   834d8:	b9402fe0 	ldr	w0, [sp, #44]
   834dc:	7100001f 	cmp	w0, #0x0
   834e0:	5400010a 	b.ge	83500 <privilege_task_create+0x44>  // b.tcont
   834e4:	d0000000 	adrp	x0, 85000 <error_invalid_el0_64+0x94>
   834e8:	913b2000 	add	x0, x0, #0xec8
   834ec:	97fff8fe 	bl	818e4 <uart_puts>
   834f0:	d0000000 	adrp	x0, 85000 <error_invalid_el0_64+0x94>
   834f4:	913b8000 	add	x0, x0, #0xee0
   834f8:	97fff8fb 	bl	818e4 <uart_puts>
   834fc:	14000047 	b	83618 <privilege_task_create+0x15c>
   83500:	b9802fe1 	ldrsw	x1, [sp, #44]
   83504:	d2803500 	mov	x0, #0x1a8                 	// #424
   83508:	9b007c21 	mul	x1, x1, x0
   8350c:	f0000000 	adrp	x0, 86000 <delay+0xb88>
   83510:	f942bc00 	ldr	x0, [x0, #1400]
   83514:	8b000020 	add	x0, x1, x0
   83518:	f90013e0 	str	x0, [sp, #32]
   8351c:	97ffffb0 	bl	833dc <unique_pid>
   83520:	93407c01 	sxtw	x1, w0
   83524:	f94013e0 	ldr	x0, [sp, #32]
   83528:	f900bc01 	str	x1, [x0, #376]
   8352c:	f94013e0 	ldr	x0, [sp, #32]
   83530:	f900c01f 	str	xzr, [x0, #384]
   83534:	f0000000 	adrp	x0, 86000 <delay+0xb88>
   83538:	f942b800 	ldr	x0, [x0, #1392]
   8353c:	f9400000 	ldr	x0, [x0]
   83540:	f940c801 	ldr	x1, [x0, #400]
   83544:	f94013e0 	ldr	x0, [sp, #32]
   83548:	f900c801 	str	x1, [x0, #400]
   8354c:	f94013e0 	ldr	x0, [sp, #32]
   83550:	f940c801 	ldr	x1, [x0, #400]
   83554:	f94013e0 	ldr	x0, [sp, #32]
   83558:	f900c401 	str	x1, [x0, #392]
   8355c:	f94013e0 	ldr	x0, [sp, #32]
   83560:	d2800021 	mov	x1, #0x1                   	// #1
   83564:	f900cc01 	str	x1, [x0, #408]
   83568:	f94013e0 	ldr	x0, [sp, #32]
   8356c:	52800021 	mov	w1, #0x1                   	// #1
   83570:	b901a001 	str	w1, [x0, #416]
   83574:	f94013e0 	ldr	x0, [sp, #32]
   83578:	f940bc00 	ldr	x0, [x0, #376]
   8357c:	92401400 	and	x0, x0, #0x3f
   83580:	d374cc01 	lsl	x1, x0, #12
   83584:	f0000000 	adrp	x0, 86000 <delay+0xb88>
   83588:	f942e400 	ldr	x0, [x0, #1480]
   8358c:	8b000020 	add	x0, x1, x0
   83590:	91400401 	add	x1, x0, #0x1, lsl #12
   83594:	f94013e0 	ldr	x0, [sp, #32]
   83598:	f9003001 	str	x1, [x0, #96]
   8359c:	f94013e0 	ldr	x0, [sp, #32]
   835a0:	f940bc00 	ldr	x0, [x0, #376]
   835a4:	92401400 	and	x0, x0, #0x3f
   835a8:	d374cc01 	lsl	x1, x0, #12
   835ac:	f0000000 	adrp	x0, 86000 <delay+0xb88>
   835b0:	f942e400 	ldr	x0, [x0, #1480]
   835b4:	8b000020 	add	x0, x1, x0
   835b8:	91400401 	add	x1, x0, #0x1, lsl #12
   835bc:	f94013e0 	ldr	x0, [sp, #32]
   835c0:	f9002801 	str	x1, [x0, #80]
   835c4:	f9400fe1 	ldr	x1, [sp, #24]
   835c8:	f94013e0 	ldr	x0, [sp, #32]
   835cc:	f9000001 	str	x1, [x0]
   835d0:	f94013e0 	ldr	x0, [sp, #32]
   835d4:	f9400be1 	ldr	x1, [sp, #16]
   835d8:	f9000401 	str	x1, [x0, #8]
   835dc:	f0000000 	adrp	x0, 86000 <delay+0xb88>
   835e0:	f942c401 	ldr	x1, [x0, #1416]
   835e4:	f94013e0 	ldr	x0, [sp, #32]
   835e8:	f9002c01 	str	x1, [x0, #88]
   835ec:	f94013e0 	ldr	x0, [sp, #32]
   835f0:	f940bc01 	ldr	x1, [x0, #376]
   835f4:	f94013e0 	ldr	x0, [sp, #32]
   835f8:	f9403000 	ldr	x0, [x0, #96]
   835fc:	f9400fe3 	ldr	x3, [sp, #24]
   83600:	aa0003e2 	mov	x2, x0
   83604:	d0000000 	adrp	x0, 85000 <error_invalid_el0_64+0x94>
   83608:	913ba000 	add	x0, x0, #0xee8
   8360c:	97fffe89 	bl	83030 <printf>
   83610:	f94013e0 	ldr	x0, [sp, #32]
   83614:	97ffff5a 	bl	8337c <append_task>
   83618:	97ffff79 	bl	833fc <preempt_enable>
   8361c:	b9402fe0 	ldr	w0, [sp, #44]
   83620:	7100001f 	cmp	w0, #0x0
   83624:	5400010b 	b.lt	83644 <privilege_task_create+0x188>  // b.tstop
   83628:	b9802fe1 	ldrsw	x1, [sp, #44]
   8362c:	d2803500 	mov	x0, #0x1a8                 	// #424
   83630:	9b007c21 	mul	x1, x1, x0
   83634:	f0000000 	adrp	x0, 86000 <delay+0xb88>
   83638:	f942bc00 	ldr	x0, [x0, #1400]
   8363c:	8b000020 	add	x0, x1, x0
   83640:	14000002 	b	83648 <privilege_task_create+0x18c>
   83644:	d2800000 	mov	x0, #0x0                   	// #0
   83648:	a8c37bfd 	ldp	x29, x30, [sp], #48
   8364c:	d65f03c0 	ret

0000000000083650 <show_sp>:
   83650:	a9be7bfd 	stp	x29, x30, [sp, #-32]!
   83654:	910003fd 	mov	x29, sp
   83658:	910003e0 	mov	x0, sp
   8365c:	f9000fe0 	str	x0, [sp, #24]
   83660:	f9400fe1 	ldr	x1, [sp, #24]
   83664:	d0000000 	adrp	x0, 85000 <error_invalid_el0_64+0x94>
   83668:	913c4000 	add	x0, x0, #0xf10
   8366c:	97fffe71 	bl	83030 <printf>
   83670:	f9400fe0 	ldr	x0, [sp, #24]
   83674:	a8c27bfd 	ldp	x29, x30, [sp], #32
   83678:	d65f03c0 	ret

000000000008367c <task_1>:
   8367c:	a9be7bfd 	stp	x29, x30, [sp, #-32]!
   83680:	910003fd 	mov	x29, sp
   83684:	d0000000 	adrp	x0, 85000 <error_invalid_el0_64+0x94>
   83688:	913c8000 	add	x0, x0, #0xf20
   8368c:	97fff896 	bl	818e4 <uart_puts>
   83690:	d0000000 	adrp	x0, 85000 <error_invalid_el0_64+0x94>
   83694:	913b8000 	add	x0, x0, #0xee0
   83698:	97fff893 	bl	818e4 <uart_puts>
   8369c:	97fff372 	bl	80464 <get_current_el>
   836a0:	d0000000 	adrp	x0, 85000 <error_invalid_el0_64+0x94>
   836a4:	913ca000 	add	x0, x0, #0xf28
   836a8:	97fff88f 	bl	818e4 <uart_puts>
   836ac:	d0000000 	adrp	x0, 85000 <error_invalid_el0_64+0x94>
   836b0:	913b8000 	add	x0, x0, #0xee0
   836b4:	97fff88c 	bl	818e4 <uart_puts>
   836b8:	528e8000 	mov	w0, #0x7400                	// #29696
   836bc:	72b48760 	movk	w0, #0xa43b, lsl #16
   836c0:	b9001fe0 	str	w0, [sp, #28]
   836c4:	14000002 	b	836cc <task_1+0x50>
   836c8:	d503201f 	nop
   836cc:	b9401fe0 	ldr	w0, [sp, #28]
   836d0:	51000401 	sub	w1, w0, #0x1
   836d4:	b9001fe1 	str	w1, [sp, #28]
   836d8:	7100001f 	cmp	w0, #0x0
   836dc:	54ffff61 	b.ne	836c8 <task_1+0x4c>  // b.any
   836e0:	97ffffdc 	bl	83650 <show_sp>
   836e4:	97fff9c3 	bl	81df0 <check_resched>
   836e8:	17ffffed 	b	8369c <task_1+0x20>

00000000000836ec <task_2>:
   836ec:	a9be7bfd 	stp	x29, x30, [sp, #-32]!
   836f0:	910003fd 	mov	x29, sp
   836f4:	d0000000 	adrp	x0, 85000 <error_invalid_el0_64+0x94>
   836f8:	913ce000 	add	x0, x0, #0xf38
   836fc:	97fff87a 	bl	818e4 <uart_puts>
   83700:	d0000000 	adrp	x0, 85000 <error_invalid_el0_64+0x94>
   83704:	913b8000 	add	x0, x0, #0xee0
   83708:	97fff877 	bl	818e4 <uart_puts>
   8370c:	97fff356 	bl	80464 <get_current_el>
   83710:	d0000000 	adrp	x0, 85000 <error_invalid_el0_64+0x94>
   83714:	913d0000 	add	x0, x0, #0xf40
   83718:	97fff873 	bl	818e4 <uart_puts>
   8371c:	d0000000 	adrp	x0, 85000 <error_invalid_el0_64+0x94>
   83720:	913b8000 	add	x0, x0, #0xee0
   83724:	97fff870 	bl	818e4 <uart_puts>
   83728:	528e8000 	mov	w0, #0x7400                	// #29696
   8372c:	72b48760 	movk	w0, #0xa43b, lsl #16
   83730:	b9001fe0 	str	w0, [sp, #28]
   83734:	14000002 	b	8373c <task_2+0x50>
   83738:	d503201f 	nop
   8373c:	b9401fe0 	ldr	w0, [sp, #28]
   83740:	51000401 	sub	w1, w0, #0x1
   83744:	b9001fe1 	str	w1, [sp, #28]
   83748:	7100001f 	cmp	w0, #0x0
   8374c:	54ffff61 	b.ne	83738 <task_2+0x4c>  // b.any
   83750:	97ffffc0 	bl	83650 <show_sp>
   83754:	97fff9a7 	bl	81df0 <check_resched>
   83758:	17ffffed 	b	8370c <task_2+0x20>

000000000008375c <task_3>:
   8375c:	a9be7bfd 	stp	x29, x30, [sp, #-32]!
   83760:	910003fd 	mov	x29, sp
   83764:	d0000000 	adrp	x0, 85000 <error_invalid_el0_64+0x94>
   83768:	913d4000 	add	x0, x0, #0xf50
   8376c:	97fff85e 	bl	818e4 <uart_puts>
   83770:	d0000000 	adrp	x0, 85000 <error_invalid_el0_64+0x94>
   83774:	913b8000 	add	x0, x0, #0xee0
   83778:	97fff85b 	bl	818e4 <uart_puts>
   8377c:	97fff33a 	bl	80464 <get_current_el>
   83780:	d0000000 	adrp	x0, 85000 <error_invalid_el0_64+0x94>
   83784:	913d6000 	add	x0, x0, #0xf58
   83788:	97fff857 	bl	818e4 <uart_puts>
   8378c:	d0000000 	adrp	x0, 85000 <error_invalid_el0_64+0x94>
   83790:	913b8000 	add	x0, x0, #0xee0
   83794:	97fff854 	bl	818e4 <uart_puts>
   83798:	528e8000 	mov	w0, #0x7400                	// #29696
   8379c:	72b48760 	movk	w0, #0xa43b, lsl #16
   837a0:	b9001fe0 	str	w0, [sp, #28]
   837a4:	14000002 	b	837ac <task_3+0x50>
   837a8:	d503201f 	nop
   837ac:	b9401fe0 	ldr	w0, [sp, #28]
   837b0:	51000401 	sub	w1, w0, #0x1
   837b4:	b9001fe1 	str	w1, [sp, #28]
   837b8:	7100001f 	cmp	w0, #0x0
   837bc:	54ffff61 	b.ne	837a8 <task_3+0x4c>  // b.any
   837c0:	97ffffa4 	bl	83650 <show_sp>
   837c4:	97fff98b 	bl	81df0 <check_resched>
   837c8:	17ffffed 	b	8377c <task_3+0x20>

00000000000837cc <task_4>:
   837cc:	a9be7bfd 	stp	x29, x30, [sp, #-32]!
   837d0:	910003fd 	mov	x29, sp
   837d4:	d0000000 	adrp	x0, 85000 <error_invalid_el0_64+0x94>
   837d8:	913da000 	add	x0, x0, #0xf68
   837dc:	97fff842 	bl	818e4 <uart_puts>
   837e0:	d0000000 	adrp	x0, 85000 <error_invalid_el0_64+0x94>
   837e4:	913b8000 	add	x0, x0, #0xee0
   837e8:	97fff83f 	bl	818e4 <uart_puts>
   837ec:	97fff31e 	bl	80464 <get_current_el>
   837f0:	d0000000 	adrp	x0, 85000 <error_invalid_el0_64+0x94>
   837f4:	913dc000 	add	x0, x0, #0xf70
   837f8:	97fff83b 	bl	818e4 <uart_puts>
   837fc:	d0000000 	adrp	x0, 85000 <error_invalid_el0_64+0x94>
   83800:	913b8000 	add	x0, x0, #0xee0
   83804:	97fff838 	bl	818e4 <uart_puts>
   83808:	528e8000 	mov	w0, #0x7400                	// #29696
   8380c:	72b48760 	movk	w0, #0xa43b, lsl #16
   83810:	b9001fe0 	str	w0, [sp, #28]
   83814:	14000002 	b	8381c <task_4+0x50>
   83818:	d503201f 	nop
   8381c:	b9401fe0 	ldr	w0, [sp, #28]
   83820:	51000401 	sub	w1, w0, #0x1
   83824:	b9001fe1 	str	w1, [sp, #28]
   83828:	7100001f 	cmp	w0, #0x0
   8382c:	54ffff61 	b.ne	83818 <task_4+0x4c>  // b.any
   83830:	97ffff88 	bl	83650 <show_sp>
   83834:	97fff96f 	bl	81df0 <check_resched>
   83838:	17ffffed 	b	837ec <task_4+0x20>

000000000008383c <user_process>:
   8383c:	a9bf7bfd 	stp	x29, x30, [sp, #-16]!
   83840:	910003fd 	mov	x29, sp
   83844:	d0000000 	adrp	x0, 85000 <error_invalid_el0_64+0x94>
   83848:	913e0000 	add	x0, x0, #0xf80
   8384c:	97fff826 	bl	818e4 <uart_puts>
   83850:	d0000000 	adrp	x0, 85000 <error_invalid_el0_64+0x94>
   83854:	913b8000 	add	x0, x0, #0xee0
   83858:	97fff823 	bl	818e4 <uart_puts>
   8385c:	d0000000 	adrp	x0, 85000 <error_invalid_el0_64+0x94>
   83860:	913e6000 	add	x0, x0, #0xf98
   83864:	940006df 	bl	853e0 <call_sys_write>
   83868:	17fffffd 	b	8385c <user_process+0x20>

000000000008386c <kernel_process>:
   8386c:	a9bf7bfd 	stp	x29, x30, [sp, #-16]!
   83870:	910003fd 	mov	x29, sp
   83874:	d0000000 	adrp	x0, 85000 <error_invalid_el0_64+0x94>
   83878:	913e8000 	add	x0, x0, #0xfa0
   8387c:	97fff81a 	bl	818e4 <uart_puts>
   83880:	d0000000 	adrp	x0, 85000 <error_invalid_el0_64+0x94>
   83884:	913b8000 	add	x0, x0, #0xee0
   83888:	97fff817 	bl	818e4 <uart_puts>
   8388c:	d2800001 	mov	x1, #0x0                   	// #0
   83890:	f0000000 	adrp	x0, 86000 <delay+0xb88>
   83894:	f942d000 	ldr	x0, [x0, #1440]
   83898:	97ffff09 	bl	834bc <privilege_task_create>
   8389c:	d2800001 	mov	x1, #0x0                   	// #0
   838a0:	f0000000 	adrp	x0, 86000 <delay+0xb88>
   838a4:	f9429400 	ldr	x0, [x0, #1320]
   838a8:	97ffff05 	bl	834bc <privilege_task_create>
   838ac:	f0000000 	adrp	x0, 86000 <delay+0xb88>
   838b0:	f942d400 	ldr	x0, [x0, #1448]
   838b4:	94000004 	bl	838c4 <do_exec>
   838b8:	d503201f 	nop
   838bc:	a8c17bfd 	ldp	x29, x30, [sp], #16
   838c0:	d65f03c0 	ret

00000000000838c4 <do_exec>:
   838c4:	a9bd7bfd 	stp	x29, x30, [sp, #-48]!
   838c8:	910003fd 	mov	x29, sp
   838cc:	f9000fe0 	str	x0, [sp, #24]
   838d0:	f0000000 	adrp	x0, 86000 <delay+0xb88>
   838d4:	f942b800 	ldr	x0, [x0, #1392]
   838d8:	f9400000 	ldr	x0, [x0]
   838dc:	f9403000 	ldr	x0, [x0, #96]
   838e0:	f90017e0 	str	x0, [sp, #40]
   838e4:	f94017e2 	ldr	x2, [sp, #40]
   838e8:	f94017e0 	ldr	x0, [sp, #40]
   838ec:	91044000 	add	x0, x0, #0x110
   838f0:	aa0003e1 	mov	x1, x0
   838f4:	aa0203e0 	mov	x0, x2
   838f8:	940006a1 	bl	8537c <memzero>
   838fc:	f94017e0 	ldr	x0, [sp, #40]
   83900:	f9400fe1 	ldr	x1, [sp, #24]
   83904:	f9008001 	str	x1, [x0, #256]
   83908:	f94017e0 	ldr	x0, [sp, #40]
   8390c:	f900841f 	str	xzr, [x0, #264]
   83910:	f0000000 	adrp	x0, 86000 <delay+0xb88>
   83914:	f942b800 	ldr	x0, [x0, #1392]
   83918:	f9400000 	ldr	x0, [x0]
   8391c:	f940bc00 	ldr	x0, [x0, #376]
   83920:	92401400 	and	x0, x0, #0x3f
   83924:	d374cc01 	lsl	x1, x0, #12
   83928:	f0000000 	adrp	x0, 86000 <delay+0xb88>
   8392c:	f9428400 	ldr	x0, [x0, #1288]
   83930:	8b000020 	add	x0, x1, x0
   83934:	aa0003e1 	mov	x1, x0
   83938:	f94017e0 	ldr	x0, [sp, #40]
   8393c:	f9007c01 	str	x1, [x0, #248]
   83940:	d503201f 	nop
   83944:	a8c37bfd 	ldp	x29, x30, [sp], #48
   83948:	d65f03c0 	ret

000000000008394c <fork>:
   8394c:	d10043ff 	sub	sp, sp, #0x10
   83950:	f90007e0 	str	x0, [sp, #8]
   83954:	d503201f 	nop
   83958:	910043ff 	add	sp, sp, #0x10
   8395c:	d65f03c0 	ret

0000000000083960 <wait_msec>:
   83960:	a9be53f3 	stp	x19, x20, [sp, #-32]!
   83964:	b9001fe0 	str	w0, [sp, #28]
   83968:	d53be000 	mrs	x0, cntfrq_el0
   8396c:	aa0003f4 	mov	x20, x0
   83970:	d53be020 	mrs	x0, cntpct_el0
   83974:	aa0003f3 	mov	x19, x0
   83978:	d343fe81 	lsr	x1, x20, #3
   8397c:	d29ef9e0 	mov	x0, #0xf7cf                	// #63439
   83980:	f2bc6a60 	movk	x0, #0xe353, lsl #16
   83984:	f2d374a0 	movk	x0, #0x9ba5, lsl #32
   83988:	f2e41880 	movk	x0, #0x20c4, lsl #48
   8398c:	9bc07c20 	umulh	x0, x1, x0
   83990:	d344fc01 	lsr	x1, x0, #4
   83994:	b9401fe0 	ldr	w0, [sp, #28]
   83998:	9b007c20 	mul	x0, x1, x0
   8399c:	d343fc01 	lsr	x1, x0, #3
   839a0:	d29ef9e0 	mov	x0, #0xf7cf                	// #63439
   839a4:	f2bc6a60 	movk	x0, #0xe353, lsl #16
   839a8:	f2d374a0 	movk	x0, #0x9ba5, lsl #32
   839ac:	f2e41880 	movk	x0, #0x20c4, lsl #48
   839b0:	9bc07c20 	umulh	x0, x1, x0
   839b4:	d344fc00 	lsr	x0, x0, #4
   839b8:	8b000273 	add	x19, x19, x0
   839bc:	d53be020 	mrs	x0, cntpct_el0
   839c0:	aa0003f4 	mov	x20, x0
   839c4:	eb13029f 	cmp	x20, x19
   839c8:	54ffffa3 	b.cc	839bc <wait_msec+0x5c>  // b.lo, b.ul, b.last
   839cc:	d503201f 	nop
   839d0:	d503201f 	nop
   839d4:	a8c253f3 	ldp	x19, x20, [sp], #32
   839d8:	d65f03c0 	ret

00000000000839dc <sys_timestamp>:
   839dc:	a9bc7bfd 	stp	x29, x30, [sp, #-64]!
   839e0:	910003fd 	mov	x29, sp
   839e4:	a90153f3 	stp	x19, x20, [sp, #16]
   839e8:	d53be000 	mrs	x0, cntfrq_el0
   839ec:	aa0003f3 	mov	x19, x0
   839f0:	d53be020 	mrs	x0, cntpct_el0
   839f4:	aa0003f4 	mov	x20, x0
   839f8:	f9001ff4 	str	x20, [sp, #56]
   839fc:	f9001bf3 	str	x19, [sp, #48]
   83a00:	f9401fe1 	ldr	x1, [sp, #56]
   83a04:	f9401be0 	ldr	x0, [sp, #48]
   83a08:	9ac00820 	udiv	x0, x1, x0
   83a0c:	f90017e0 	str	x0, [sp, #40]
   83a10:	f9401fe1 	ldr	x1, [sp, #56]
   83a14:	d29c2000 	mov	x0, #0xe100                	// #57600
   83a18:	f2a0bea0 	movk	x0, #0x5f5, lsl #16
   83a1c:	9b007c21 	mul	x1, x1, x0
   83a20:	f9401be0 	ldr	x0, [sp, #48]
   83a24:	9ac00820 	udiv	x0, x1, x0
   83a28:	d299dfa1 	mov	x1, #0xcefd                	// #52989
   83a2c:	f2b08c21 	movk	x1, #0x8461, lsl #16
   83a30:	f2cee221 	movk	x1, #0x7711, lsl #32
   83a34:	f2f57981 	movk	x1, #0xabcc, lsl #48
   83a38:	9bc17c01 	umulh	x1, x0, x1
   83a3c:	d35afc22 	lsr	x2, x1, #26
   83a40:	d29c2001 	mov	x1, #0xe100                	// #57600
   83a44:	f2a0bea1 	movk	x1, #0x5f5, lsl #16
   83a48:	9b017c41 	mul	x1, x2, x1
   83a4c:	cb010000 	sub	x0, x0, x1
   83a50:	f90013e0 	str	x0, [sp, #32]
   83a54:	d0000000 	adrp	x0, 85000 <error_invalid_el0_64+0x94>
   83a58:	913ee000 	add	x0, x0, #0xfb8
   83a5c:	97fff7a2 	bl	818e4 <uart_puts>
   83a60:	f94017e0 	ldr	x0, [sp, #40]
   83a64:	97fff32b 	bl	80710 <__print_ULL_as_number>
   83a68:	d0000000 	adrp	x0, 85000 <error_invalid_el0_64+0x94>
   83a6c:	913f0000 	add	x0, x0, #0xfc0
   83a70:	97fff79d 	bl	818e4 <uart_puts>
   83a74:	f94013e0 	ldr	x0, [sp, #32]
   83a78:	97fff326 	bl	80710 <__print_ULL_as_number>
   83a7c:	d0000000 	adrp	x0, 85000 <error_invalid_el0_64+0x94>
   83a80:	913f2000 	add	x0, x0, #0xfc8
   83a84:	97fff798 	bl	818e4 <uart_puts>
   83a88:	d0000000 	adrp	x0, 85000 <error_invalid_el0_64+0x94>
   83a8c:	913f4000 	add	x0, x0, #0xfd0
   83a90:	97fff795 	bl	818e4 <uart_puts>
   83a94:	d503201f 	nop
   83a98:	a94153f3 	ldp	x19, x20, [sp, #16]
   83a9c:	a8c47bfd 	ldp	x29, x30, [sp], #64
   83aa0:	d65f03c0 	ret

0000000000083aa4 <timestamp>:
   83aa4:	a9bf7bfd 	stp	x29, x30, [sp, #-16]!
   83aa8:	910003fd 	mov	x29, sp
   83aac:	97ffffcc 	bl	839dc <sys_timestamp>
   83ab0:	d503201f 	nop
   83ab4:	a8c17bfd 	ldp	x29, x30, [sp], #16
   83ab8:	d65f03c0 	ret
   83abc:	00000000 	.inst	0x00000000 ; undefined

0000000000083ac0 <local_timer_init>:
   83ac0:	a9be7bfd 	stp	x29, x30, [sp, #-32]!
   83ac4:	910003fd 	mov	x29, sp
   83ac8:	d0000000 	adrp	x0, 85000 <error_invalid_el0_64+0x94>
   83acc:	913f6000 	add	x0, x0, #0xfd8
   83ad0:	97fff785 	bl	818e4 <uart_puts>
   83ad4:	d0000000 	adrp	x0, 85000 <error_invalid_el0_64+0x94>
   83ad8:	913fc000 	add	x0, x0, #0xff0
   83adc:	97fff782 	bl	818e4 <uart_puts>
   83ae0:	52a60000 	mov	w0, #0x30000000            	// #805306368
   83ae4:	b9001fe0 	str	w0, [sp, #28]
   83ae8:	528f0800 	mov	w0, #0x7840                	// #30784
   83aec:	72a02fa0 	movk	w0, #0x17d, lsl #16
   83af0:	b9001be0 	str	w0, [sp, #24]
   83af4:	d2800680 	mov	x0, #0x34                  	// #52
   83af8:	f2a80000 	movk	x0, #0x4000, lsl #16
   83afc:	b9401fe2 	ldr	w2, [sp, #28]
   83b00:	b9401be1 	ldr	w1, [sp, #24]
   83b04:	2a010041 	orr	w1, w2, w1
   83b08:	b9000001 	str	w1, [x0]
   83b0c:	d503201f 	nop
   83b10:	a8c27bfd 	ldp	x29, x30, [sp], #32
   83b14:	d65f03c0 	ret

0000000000083b18 <local_timer_handler>:
   83b18:	a9bf7bfd 	stp	x29, x30, [sp, #-16]!
   83b1c:	910003fd 	mov	x29, sp
   83b20:	d2800700 	mov	x0, #0x38                  	// #56
   83b24:	f2a80000 	movk	x0, #0x4000, lsl #16
   83b28:	52b80001 	mov	w1, #0xc0000000            	// #-1073741824
   83b2c:	b9000001 	str	w1, [x0]
   83b30:	d0000040 	adrp	x0, 8d000 <task_pool+0x69f8>
   83b34:	91002000 	add	x0, x0, #0x8
   83b38:	b9400000 	ldr	w0, [x0]
   83b3c:	11000402 	add	w2, w0, #0x1
   83b40:	d0000041 	adrp	x1, 8d000 <task_pool+0x69f8>
   83b44:	91002021 	add	x1, x1, #0x8
   83b48:	b9000022 	str	w2, [x1]
   83b4c:	2a0003e1 	mov	w1, w0
   83b50:	d0000000 	adrp	x0, 85000 <error_invalid_el0_64+0x94>
   83b54:	913fe000 	add	x0, x0, #0xff8
   83b58:	97fffd36 	bl	83030 <printf>
   83b5c:	d503201f 	nop
   83b60:	a8c17bfd 	ldp	x29, x30, [sp], #16
   83b64:	d65f03c0 	ret

0000000000083b68 <sys_timer_init>:
   83b68:	a9be7bfd 	stp	x29, x30, [sp, #-32]!
   83b6c:	910003fd 	mov	x29, sp
   83b70:	f0000000 	adrp	x0, 86000 <delay+0xb88>
   83b74:	91006000 	add	x0, x0, #0x18
   83b78:	97fff75b 	bl	818e4 <uart_puts>
   83b7c:	d0000000 	adrp	x0, 85000 <error_invalid_el0_64+0x94>
   83b80:	913fc000 	add	x0, x0, #0xff0
   83b84:	97fff758 	bl	818e4 <uart_puts>
   83b88:	d2860080 	mov	x0, #0x3004                	// #12292
   83b8c:	f2a7e000 	movk	x0, #0x3f00, lsl #16
   83b90:	b9400000 	ldr	w0, [x0]
   83b94:	b9001fe0 	str	w0, [sp, #28]
   83b98:	d2860200 	mov	x0, #0x3010                	// #12304
   83b9c:	f2a7e000 	movk	x0, #0x3f00, lsl #16
   83ba0:	b9401fe2 	ldr	w2, [sp, #28]
   83ba4:	5284b401 	mov	w1, #0x25a0                	// #9632
   83ba8:	72a004c1 	movk	w1, #0x26, lsl #16
   83bac:	0b010041 	add	w1, w2, w1
   83bb0:	b9000001 	str	w1, [x0]
   83bb4:	d2964200 	mov	x0, #0xb210                	// #45584
   83bb8:	f2a7e000 	movk	x0, #0x3f00, lsl #16
   83bbc:	52800041 	mov	w1, #0x2                   	// #2
   83bc0:	b9000001 	str	w1, [x0]
   83bc4:	d503201f 	nop
   83bc8:	a8c27bfd 	ldp	x29, x30, [sp], #32
   83bcc:	d65f03c0 	ret

0000000000083bd0 <sys_timer_handler>:
   83bd0:	a9be7bfd 	stp	x29, x30, [sp, #-32]!
   83bd4:	910003fd 	mov	x29, sp
   83bd8:	d2860080 	mov	x0, #0x3004                	// #12292
   83bdc:	f2a7e000 	movk	x0, #0x3f00, lsl #16
   83be0:	b9400000 	ldr	w0, [x0]
   83be4:	b9001fe0 	str	w0, [sp, #28]
   83be8:	d2860200 	mov	x0, #0x3010                	// #12304
   83bec:	f2a7e000 	movk	x0, #0x3f00, lsl #16
   83bf0:	b9401fe2 	ldr	w2, [sp, #28]
   83bf4:	5284b401 	mov	w1, #0x25a0                	// #9632
   83bf8:	72a004c1 	movk	w1, #0x26, lsl #16
   83bfc:	0b010041 	add	w1, w2, w1
   83c00:	b9000001 	str	w1, [x0]
   83c04:	d2860000 	mov	x0, #0x3000                	// #12288
   83c08:	f2a7e000 	movk	x0, #0x3f00, lsl #16
   83c0c:	528001e1 	mov	w1, #0xf                   	// #15
   83c10:	b9000001 	str	w1, [x0]
   83c14:	d0000040 	adrp	x0, 8d000 <task_pool+0x69f8>
   83c18:	91003000 	add	x0, x0, #0xc
   83c1c:	b9400000 	ldr	w0, [x0]
   83c20:	11000402 	add	w2, w0, #0x1
   83c24:	d0000041 	adrp	x1, 8d000 <task_pool+0x69f8>
   83c28:	91003021 	add	x1, x1, #0xc
   83c2c:	b9000022 	str	w2, [x1]
   83c30:	2a0003e1 	mov	w1, w0
   83c34:	f0000000 	adrp	x0, 86000 <delay+0xb88>
   83c38:	9100c000 	add	x0, x0, #0x30
   83c3c:	97fffcfd 	bl	83030 <printf>
   83c40:	d503201f 	nop
   83c44:	a8c27bfd 	ldp	x29, x30, [sp], #32
   83c48:	d65f03c0 	ret

0000000000083c4c <core_timer_init>:
   83c4c:	a9bf7bfd 	stp	x29, x30, [sp, #-16]!
   83c50:	910003fd 	mov	x29, sp
   83c54:	f0000000 	adrp	x0, 86000 <delay+0xb88>
   83c58:	91014000 	add	x0, x0, #0x50
   83c5c:	97fff722 	bl	818e4 <uart_puts>
   83c60:	d0000000 	adrp	x0, 85000 <error_invalid_el0_64+0x94>
   83c64:	913fc000 	add	x0, x0, #0xff0
   83c68:	97fff71f 	bl	818e4 <uart_puts>
   83c6c:	d2800020 	mov	x0, #0x1                   	// #1
   83c70:	d51be220 	msr	cntp_ctl_el0, x0
   83c74:	d2800040 	mov	x0, #0x2                   	// #2
   83c78:	58000601 	ldr	x1, 83d38 <core_timer_handler+0xa4>
   83c7c:	f9000020 	str	x0, [x1]
   83c80:	d53be000 	mrs	x0, cntfrq_el0
   83c84:	d51be200 	msr	cntp_tval_el0, x0
   83c88:	d503201f 	nop
   83c8c:	a8c17bfd 	ldp	x29, x30, [sp], #16
   83c90:	d65f03c0 	ret

0000000000083c94 <core_timer_handler>:
   83c94:	a9bf7bfd 	stp	x29, x30, [sp, #-16]!
   83c98:	910003fd 	mov	x29, sp
   83c9c:	d53be000 	mrs	x0, cntfrq_el0
   83ca0:	d51be200 	msr	cntp_tval_el0, x0
   83ca4:	f0000000 	adrp	x0, 86000 <delay+0xb88>
   83ca8:	9101a000 	add	x0, x0, #0x68
   83cac:	97fff70e 	bl	818e4 <uart_puts>
   83cb0:	d0000000 	adrp	x0, 85000 <error_invalid_el0_64+0x94>
   83cb4:	913fc000 	add	x0, x0, #0xff0
   83cb8:	97fff70b 	bl	818e4 <uart_puts>
   83cbc:	d0000040 	adrp	x0, 8d000 <task_pool+0x69f8>
   83cc0:	91004000 	add	x0, x0, #0x10
   83cc4:	b9400002 	ldr	w2, [x0]
   83cc8:	52955560 	mov	w0, #0xaaab                	// #43691
   83ccc:	72b55540 	movk	w0, #0xaaaa, lsl #16
   83cd0:	9ba07c40 	umull	x0, w2, w0
   83cd4:	d360fc00 	lsr	x0, x0, #32
   83cd8:	53017c01 	lsr	w1, w0, #1
   83cdc:	2a0103e0 	mov	w0, w1
   83ce0:	531f7800 	lsl	w0, w0, #1
   83ce4:	0b010000 	add	w0, w0, w1
   83ce8:	4b000041 	sub	w1, w2, w0
   83cec:	7100003f 	cmp	w1, #0x0
   83cf0:	540001e1 	b.ne	83d2c <core_timer_handler+0x98>  // b.any
   83cf4:	f0000000 	adrp	x0, 86000 <delay+0xb88>
   83cf8:	f942b800 	ldr	x0, [x0, #1392]
   83cfc:	f9400000 	ldr	x0, [x0]
   83d00:	f100001f 	cmp	x0, #0x0
   83d04:	54000140 	b.eq	83d2c <core_timer_handler+0x98>  // b.none
   83d08:	f0000000 	adrp	x0, 86000 <delay+0xb88>
   83d0c:	f942b800 	ldr	x0, [x0, #1392]
   83d10:	f9400000 	ldr	x0, [x0]
   83d14:	f940c001 	ldr	x1, [x0, #384]
   83d18:	f0000000 	adrp	x0, 86000 <delay+0xb88>
   83d1c:	f942b800 	ldr	x0, [x0, #1392]
   83d20:	f9400000 	ldr	x0, [x0]
   83d24:	b2400021 	orr	x1, x1, #0x1
   83d28:	f900c001 	str	x1, [x0, #384]
   83d2c:	d503201f 	nop
   83d30:	a8c17bfd 	ldp	x29, x30, [sp], #16
   83d34:	d65f03c0 	ret
   83d38:	40000040 	.word	0x40000040
	...

0000000000084000 <exception_table>:
   84000:	140001e1 	b	84784 <sync_invalid_el1t>
   84004:	d503201f 	nop
   84008:	d503201f 	nop
   8400c:	d503201f 	nop
   84010:	d503201f 	nop
   84014:	d503201f 	nop
   84018:	d503201f 	nop
   8401c:	d503201f 	nop
   84020:	d503201f 	nop
   84024:	d503201f 	nop
   84028:	d503201f 	nop
   8402c:	d503201f 	nop
   84030:	d503201f 	nop
   84034:	d503201f 	nop
   84038:	d503201f 	nop
   8403c:	d503201f 	nop
   84040:	d503201f 	nop
   84044:	d503201f 	nop
   84048:	d503201f 	nop
   8404c:	d503201f 	nop
   84050:	d503201f 	nop
   84054:	d503201f 	nop
   84058:	d503201f 	nop
   8405c:	d503201f 	nop
   84060:	d503201f 	nop
   84064:	d503201f 	nop
   84068:	d503201f 	nop
   8406c:	d503201f 	nop
   84070:	d503201f 	nop
   84074:	d503201f 	nop
   84078:	d503201f 	nop
   8407c:	d503201f 	nop
   84080:	140001ef 	b	8483c <irq_invalid_el1t>
   84084:	d503201f 	nop
   84088:	d503201f 	nop
   8408c:	d503201f 	nop
   84090:	d503201f 	nop
   84094:	d503201f 	nop
   84098:	d503201f 	nop
   8409c:	d503201f 	nop
   840a0:	d503201f 	nop
   840a4:	d503201f 	nop
   840a8:	d503201f 	nop
   840ac:	d503201f 	nop
   840b0:	d503201f 	nop
   840b4:	d503201f 	nop
   840b8:	d503201f 	nop
   840bc:	d503201f 	nop
   840c0:	d503201f 	nop
   840c4:	d503201f 	nop
   840c8:	d503201f 	nop
   840cc:	d503201f 	nop
   840d0:	d503201f 	nop
   840d4:	d503201f 	nop
   840d8:	d503201f 	nop
   840dc:	d503201f 	nop
   840e0:	d503201f 	nop
   840e4:	d503201f 	nop
   840e8:	d503201f 	nop
   840ec:	d503201f 	nop
   840f0:	d503201f 	nop
   840f4:	d503201f 	nop
   840f8:	d503201f 	nop
   840fc:	d503201f 	nop
   84100:	140001fd 	b	848f4 <fiq_invalid_el1t>
   84104:	d503201f 	nop
   84108:	d503201f 	nop
   8410c:	d503201f 	nop
   84110:	d503201f 	nop
   84114:	d503201f 	nop
   84118:	d503201f 	nop
   8411c:	d503201f 	nop
   84120:	d503201f 	nop
   84124:	d503201f 	nop
   84128:	d503201f 	nop
   8412c:	d503201f 	nop
   84130:	d503201f 	nop
   84134:	d503201f 	nop
   84138:	d503201f 	nop
   8413c:	d503201f 	nop
   84140:	d503201f 	nop
   84144:	d503201f 	nop
   84148:	d503201f 	nop
   8414c:	d503201f 	nop
   84150:	d503201f 	nop
   84154:	d503201f 	nop
   84158:	d503201f 	nop
   8415c:	d503201f 	nop
   84160:	d503201f 	nop
   84164:	d503201f 	nop
   84168:	d503201f 	nop
   8416c:	d503201f 	nop
   84170:	d503201f 	nop
   84174:	d503201f 	nop
   84178:	d503201f 	nop
   8417c:	d503201f 	nop
   84180:	1400020b 	b	849ac <error_invalid_el1t>
   84184:	d503201f 	nop
   84188:	d503201f 	nop
   8418c:	d503201f 	nop
   84190:	d503201f 	nop
   84194:	d503201f 	nop
   84198:	d503201f 	nop
   8419c:	d503201f 	nop
   841a0:	d503201f 	nop
   841a4:	d503201f 	nop
   841a8:	d503201f 	nop
   841ac:	d503201f 	nop
   841b0:	d503201f 	nop
   841b4:	d503201f 	nop
   841b8:	d503201f 	nop
   841bc:	d503201f 	nop
   841c0:	d503201f 	nop
   841c4:	d503201f 	nop
   841c8:	d503201f 	nop
   841cc:	d503201f 	nop
   841d0:	d503201f 	nop
   841d4:	d503201f 	nop
   841d8:	d503201f 	nop
   841dc:	d503201f 	nop
   841e0:	d503201f 	nop
   841e4:	d503201f 	nop
   841e8:	d503201f 	nop
   841ec:	d503201f 	nop
   841f0:	d503201f 	nop
   841f4:	d503201f 	nop
   841f8:	d503201f 	nop
   841fc:	d503201f 	nop
   84200:	14000219 	b	84a64 <sync_invalid_el1h>
   84204:	d503201f 	nop
   84208:	d503201f 	nop
   8420c:	d503201f 	nop
   84210:	d503201f 	nop
   84214:	d503201f 	nop
   84218:	d503201f 	nop
   8421c:	d503201f 	nop
   84220:	d503201f 	nop
   84224:	d503201f 	nop
   84228:	d503201f 	nop
   8422c:	d503201f 	nop
   84230:	d503201f 	nop
   84234:	d503201f 	nop
   84238:	d503201f 	nop
   8423c:	d503201f 	nop
   84240:	d503201f 	nop
   84244:	d503201f 	nop
   84248:	d503201f 	nop
   8424c:	d503201f 	nop
   84250:	d503201f 	nop
   84254:	d503201f 	nop
   84258:	d503201f 	nop
   8425c:	d503201f 	nop
   84260:	d503201f 	nop
   84264:	d503201f 	nop
   84268:	d503201f 	nop
   8426c:	d503201f 	nop
   84270:	d503201f 	nop
   84274:	d503201f 	nop
   84278:	d503201f 	nop
   8427c:	d503201f 	nop
   84280:	14000224 	b	84b10 <irq_invalid_el1h>
   84284:	d503201f 	nop
   84288:	d503201f 	nop
   8428c:	d503201f 	nop
   84290:	d503201f 	nop
   84294:	d503201f 	nop
   84298:	d503201f 	nop
   8429c:	d503201f 	nop
   842a0:	d503201f 	nop
   842a4:	d503201f 	nop
   842a8:	d503201f 	nop
   842ac:	d503201f 	nop
   842b0:	d503201f 	nop
   842b4:	d503201f 	nop
   842b8:	d503201f 	nop
   842bc:	d503201f 	nop
   842c0:	d503201f 	nop
   842c4:	d503201f 	nop
   842c8:	d503201f 	nop
   842cc:	d503201f 	nop
   842d0:	d503201f 	nop
   842d4:	d503201f 	nop
   842d8:	d503201f 	nop
   842dc:	d503201f 	nop
   842e0:	d503201f 	nop
   842e4:	d503201f 	nop
   842e8:	d503201f 	nop
   842ec:	d503201f 	nop
   842f0:	d503201f 	nop
   842f4:	d503201f 	nop
   842f8:	d503201f 	nop
   842fc:	d503201f 	nop
   84300:	14000232 	b	84bc8 <fiq_invalid_el1h>
   84304:	d503201f 	nop
   84308:	d503201f 	nop
   8430c:	d503201f 	nop
   84310:	d503201f 	nop
   84314:	d503201f 	nop
   84318:	d503201f 	nop
   8431c:	d503201f 	nop
   84320:	d503201f 	nop
   84324:	d503201f 	nop
   84328:	d503201f 	nop
   8432c:	d503201f 	nop
   84330:	d503201f 	nop
   84334:	d503201f 	nop
   84338:	d503201f 	nop
   8433c:	d503201f 	nop
   84340:	d503201f 	nop
   84344:	d503201f 	nop
   84348:	d503201f 	nop
   8434c:	d503201f 	nop
   84350:	d503201f 	nop
   84354:	d503201f 	nop
   84358:	d503201f 	nop
   8435c:	d503201f 	nop
   84360:	d503201f 	nop
   84364:	d503201f 	nop
   84368:	d503201f 	nop
   8436c:	d503201f 	nop
   84370:	d503201f 	nop
   84374:	d503201f 	nop
   84378:	d503201f 	nop
   8437c:	d503201f 	nop
   84380:	14000240 	b	84c80 <error_invalid_el1h>
   84384:	d503201f 	nop
   84388:	d503201f 	nop
   8438c:	d503201f 	nop
   84390:	d503201f 	nop
   84394:	d503201f 	nop
   84398:	d503201f 	nop
   8439c:	d503201f 	nop
   843a0:	d503201f 	nop
   843a4:	d503201f 	nop
   843a8:	d503201f 	nop
   843ac:	d503201f 	nop
   843b0:	d503201f 	nop
   843b4:	d503201f 	nop
   843b8:	d503201f 	nop
   843bc:	d503201f 	nop
   843c0:	d503201f 	nop
   843c4:	d503201f 	nop
   843c8:	d503201f 	nop
   843cc:	d503201f 	nop
   843d0:	d503201f 	nop
   843d4:	d503201f 	nop
   843d8:	d503201f 	nop
   843dc:	d503201f 	nop
   843e0:	d503201f 	nop
   843e4:	d503201f 	nop
   843e8:	d503201f 	nop
   843ec:	d503201f 	nop
   843f0:	d503201f 	nop
   843f4:	d503201f 	nop
   843f8:	d503201f 	nop
   843fc:	d503201f 	nop
   84400:	1400024e 	b	84d38 <sync_invalid_el0_64>
   84404:	d503201f 	nop
   84408:	d503201f 	nop
   8440c:	d503201f 	nop
   84410:	d503201f 	nop
   84414:	d503201f 	nop
   84418:	d503201f 	nop
   8441c:	d503201f 	nop
   84420:	d503201f 	nop
   84424:	d503201f 	nop
   84428:	d503201f 	nop
   8442c:	d503201f 	nop
   84430:	d503201f 	nop
   84434:	d503201f 	nop
   84438:	d503201f 	nop
   8443c:	d503201f 	nop
   84440:	d503201f 	nop
   84444:	d503201f 	nop
   84448:	d503201f 	nop
   8444c:	d503201f 	nop
   84450:	d503201f 	nop
   84454:	d503201f 	nop
   84458:	d503201f 	nop
   8445c:	d503201f 	nop
   84460:	d503201f 	nop
   84464:	d503201f 	nop
   84468:	d503201f 	nop
   8446c:	d503201f 	nop
   84470:	d503201f 	nop
   84474:	d503201f 	nop
   84478:	d503201f 	nop
   8447c:	d503201f 	nop
   84480:	1400025e 	b	84df8 <irq_invalid_el0_64>
   84484:	d503201f 	nop
   84488:	d503201f 	nop
   8448c:	d503201f 	nop
   84490:	d503201f 	nop
   84494:	d503201f 	nop
   84498:	d503201f 	nop
   8449c:	d503201f 	nop
   844a0:	d503201f 	nop
   844a4:	d503201f 	nop
   844a8:	d503201f 	nop
   844ac:	d503201f 	nop
   844b0:	d503201f 	nop
   844b4:	d503201f 	nop
   844b8:	d503201f 	nop
   844bc:	d503201f 	nop
   844c0:	d503201f 	nop
   844c4:	d503201f 	nop
   844c8:	d503201f 	nop
   844cc:	d503201f 	nop
   844d0:	d503201f 	nop
   844d4:	d503201f 	nop
   844d8:	d503201f 	nop
   844dc:	d503201f 	nop
   844e0:	d503201f 	nop
   844e4:	d503201f 	nop
   844e8:	d503201f 	nop
   844ec:	d503201f 	nop
   844f0:	d503201f 	nop
   844f4:	d503201f 	nop
   844f8:	d503201f 	nop
   844fc:	d503201f 	nop
   84500:	1400026d 	b	84eb4 <fiq_invalid_el0_64>
   84504:	d503201f 	nop
   84508:	d503201f 	nop
   8450c:	d503201f 	nop
   84510:	d503201f 	nop
   84514:	d503201f 	nop
   84518:	d503201f 	nop
   8451c:	d503201f 	nop
   84520:	d503201f 	nop
   84524:	d503201f 	nop
   84528:	d503201f 	nop
   8452c:	d503201f 	nop
   84530:	d503201f 	nop
   84534:	d503201f 	nop
   84538:	d503201f 	nop
   8453c:	d503201f 	nop
   84540:	d503201f 	nop
   84544:	d503201f 	nop
   84548:	d503201f 	nop
   8454c:	d503201f 	nop
   84550:	d503201f 	nop
   84554:	d503201f 	nop
   84558:	d503201f 	nop
   8455c:	d503201f 	nop
   84560:	d503201f 	nop
   84564:	d503201f 	nop
   84568:	d503201f 	nop
   8456c:	d503201f 	nop
   84570:	d503201f 	nop
   84574:	d503201f 	nop
   84578:	d503201f 	nop
   8457c:	d503201f 	nop
   84580:	1400027b 	b	84f6c <error_invalid_el0_64>
   84584:	d503201f 	nop
   84588:	d503201f 	nop
   8458c:	d503201f 	nop
   84590:	d503201f 	nop
   84594:	d503201f 	nop
   84598:	d503201f 	nop
   8459c:	d503201f 	nop
   845a0:	d503201f 	nop
   845a4:	d503201f 	nop
   845a8:	d503201f 	nop
   845ac:	d503201f 	nop
   845b0:	d503201f 	nop
   845b4:	d503201f 	nop
   845b8:	d503201f 	nop
   845bc:	d503201f 	nop
   845c0:	d503201f 	nop
   845c4:	d503201f 	nop
   845c8:	d503201f 	nop
   845cc:	d503201f 	nop
   845d0:	d503201f 	nop
   845d4:	d503201f 	nop
   845d8:	d503201f 	nop
   845dc:	d503201f 	nop
   845e0:	d503201f 	nop
   845e4:	d503201f 	nop
   845e8:	d503201f 	nop
   845ec:	d503201f 	nop
   845f0:	d503201f 	nop
   845f4:	d503201f 	nop
   845f8:	d503201f 	nop
   845fc:	d503201f 	nop
   84600:	14000289 	b	85024 <sync_invalid_el0_32>
   84604:	d503201f 	nop
   84608:	d503201f 	nop
   8460c:	d503201f 	nop
   84610:	d503201f 	nop
   84614:	d503201f 	nop
   84618:	d503201f 	nop
   8461c:	d503201f 	nop
   84620:	d503201f 	nop
   84624:	d503201f 	nop
   84628:	d503201f 	nop
   8462c:	d503201f 	nop
   84630:	d503201f 	nop
   84634:	d503201f 	nop
   84638:	d503201f 	nop
   8463c:	d503201f 	nop
   84640:	d503201f 	nop
   84644:	d503201f 	nop
   84648:	d503201f 	nop
   8464c:	d503201f 	nop
   84650:	d503201f 	nop
   84654:	d503201f 	nop
   84658:	d503201f 	nop
   8465c:	d503201f 	nop
   84660:	d503201f 	nop
   84664:	d503201f 	nop
   84668:	d503201f 	nop
   8466c:	d503201f 	nop
   84670:	d503201f 	nop
   84674:	d503201f 	nop
   84678:	d503201f 	nop
   8467c:	d503201f 	nop
   84680:	14000297 	b	850dc <irq_invalid_el0_32>
   84684:	d503201f 	nop
   84688:	d503201f 	nop
   8468c:	d503201f 	nop
   84690:	d503201f 	nop
   84694:	d503201f 	nop
   84698:	d503201f 	nop
   8469c:	d503201f 	nop
   846a0:	d503201f 	nop
   846a4:	d503201f 	nop
   846a8:	d503201f 	nop
   846ac:	d503201f 	nop
   846b0:	d503201f 	nop
   846b4:	d503201f 	nop
   846b8:	d503201f 	nop
   846bc:	d503201f 	nop
   846c0:	d503201f 	nop
   846c4:	d503201f 	nop
   846c8:	d503201f 	nop
   846cc:	d503201f 	nop
   846d0:	d503201f 	nop
   846d4:	d503201f 	nop
   846d8:	d503201f 	nop
   846dc:	d503201f 	nop
   846e0:	d503201f 	nop
   846e4:	d503201f 	nop
   846e8:	d503201f 	nop
   846ec:	d503201f 	nop
   846f0:	d503201f 	nop
   846f4:	d503201f 	nop
   846f8:	d503201f 	nop
   846fc:	d503201f 	nop
   84700:	140002a5 	b	85194 <fiq_invalid_el0_32>
   84704:	d503201f 	nop
   84708:	d503201f 	nop
   8470c:	d503201f 	nop
   84710:	d503201f 	nop
   84714:	d503201f 	nop
   84718:	d503201f 	nop
   8471c:	d503201f 	nop
   84720:	d503201f 	nop
   84724:	d503201f 	nop
   84728:	d503201f 	nop
   8472c:	d503201f 	nop
   84730:	d503201f 	nop
   84734:	d503201f 	nop
   84738:	d503201f 	nop
   8473c:	d503201f 	nop
   84740:	d503201f 	nop
   84744:	d503201f 	nop
   84748:	d503201f 	nop
   8474c:	d503201f 	nop
   84750:	d503201f 	nop
   84754:	d503201f 	nop
   84758:	d503201f 	nop
   8475c:	d503201f 	nop
   84760:	d503201f 	nop
   84764:	d503201f 	nop
   84768:	d503201f 	nop
   8476c:	d503201f 	nop
   84770:	d503201f 	nop
   84774:	d503201f 	nop
   84778:	d503201f 	nop
   8477c:	d503201f 	nop
   84780:	140002b3 	b	8524c <error_invalid_el0_32>

0000000000084784 <sync_invalid_el1t>:
   84784:	d10403ff 	sub	sp, sp, #0x100
   84788:	a90007e0 	stp	x0, x1, [sp]
   8478c:	a9010fe2 	stp	x2, x3, [sp, #16]
   84790:	a90217e4 	stp	x4, x5, [sp, #32]
   84794:	a9031fe6 	stp	x6, x7, [sp, #48]
   84798:	a90427e8 	stp	x8, x9, [sp, #64]
   8479c:	a9052fea 	stp	x10, x11, [sp, #80]
   847a0:	a90637ec 	stp	x12, x13, [sp, #96]
   847a4:	a9073fee 	stp	x14, x15, [sp, #112]
   847a8:	a90847f0 	stp	x16, x17, [sp, #128]
   847ac:	a9094ff2 	stp	x18, x19, [sp, #144]
   847b0:	a90a57f4 	stp	x20, x21, [sp, #160]
   847b4:	a90b5ff6 	stp	x22, x23, [sp, #176]
   847b8:	a90c67f8 	stp	x24, x25, [sp, #192]
   847bc:	a90d6ffa 	stp	x26, x27, [sp, #208]
   847c0:	a90e77fc 	stp	x28, x29, [sp, #224]
   847c4:	910403f5 	add	x21, sp, #0x100
   847c8:	d5384036 	mrs	x22, elr_el1
   847cc:	d5384017 	mrs	x23, spsr_el1
   847d0:	a90f57fe 	stp	x30, x21, [sp, #240]
   847d4:	a9105ff6 	stp	x22, x23, [sp, #256]
   847d8:	d2800000 	mov	x0, #0x0                   	// #0
   847dc:	d5385201 	mrs	x1, esr_el1
   847e0:	d5384022 	mrs	x2, elr_el1
   847e4:	97ffee33 	bl	800b0 <show_invalid_entry_message>
   847e8:	a9505ff6 	ldp	x22, x23, [sp, #256]
   847ec:	a94f57fe 	ldp	x30, x21, [sp, #240]
   847f0:	d5184036 	msr	elr_el1, x22
   847f4:	d5184017 	msr	spsr_el1, x23
   847f8:	a94007e0 	ldp	x0, x1, [sp]
   847fc:	a9410fe2 	ldp	x2, x3, [sp, #16]
   84800:	a94217e4 	ldp	x4, x5, [sp, #32]
   84804:	a9431fe6 	ldp	x6, x7, [sp, #48]
   84808:	a94427e8 	ldp	x8, x9, [sp, #64]
   8480c:	a9452fea 	ldp	x10, x11, [sp, #80]
   84810:	a94637ec 	ldp	x12, x13, [sp, #96]
   84814:	a9473fee 	ldp	x14, x15, [sp, #112]
   84818:	a94847f0 	ldp	x16, x17, [sp, #128]
   8481c:	a9494ff2 	ldp	x18, x19, [sp, #144]
   84820:	a94a57f4 	ldp	x20, x21, [sp, #160]
   84824:	a94b5ff6 	ldp	x22, x23, [sp, #176]
   84828:	a94c67f8 	ldp	x24, x25, [sp, #192]
   8482c:	a94d6ffa 	ldp	x26, x27, [sp, #208]
   84830:	a94e77fc 	ldp	x28, x29, [sp, #224]
   84834:	910403ff 	add	sp, sp, #0x100
   84838:	d69f03e0 	eret

000000000008483c <irq_invalid_el1t>:
   8483c:	d10403ff 	sub	sp, sp, #0x100
   84840:	a90007e0 	stp	x0, x1, [sp]
   84844:	a9010fe2 	stp	x2, x3, [sp, #16]
   84848:	a90217e4 	stp	x4, x5, [sp, #32]
   8484c:	a9031fe6 	stp	x6, x7, [sp, #48]
   84850:	a90427e8 	stp	x8, x9, [sp, #64]
   84854:	a9052fea 	stp	x10, x11, [sp, #80]
   84858:	a90637ec 	stp	x12, x13, [sp, #96]
   8485c:	a9073fee 	stp	x14, x15, [sp, #112]
   84860:	a90847f0 	stp	x16, x17, [sp, #128]
   84864:	a9094ff2 	stp	x18, x19, [sp, #144]
   84868:	a90a57f4 	stp	x20, x21, [sp, #160]
   8486c:	a90b5ff6 	stp	x22, x23, [sp, #176]
   84870:	a90c67f8 	stp	x24, x25, [sp, #192]
   84874:	a90d6ffa 	stp	x26, x27, [sp, #208]
   84878:	a90e77fc 	stp	x28, x29, [sp, #224]
   8487c:	910403f5 	add	x21, sp, #0x100
   84880:	d5384036 	mrs	x22, elr_el1
   84884:	d5384017 	mrs	x23, spsr_el1
   84888:	a90f57fe 	stp	x30, x21, [sp, #240]
   8488c:	a9105ff6 	stp	x22, x23, [sp, #256]
   84890:	d2800020 	mov	x0, #0x1                   	// #1
   84894:	d5385201 	mrs	x1, esr_el1
   84898:	d5384022 	mrs	x2, elr_el1
   8489c:	97ffee05 	bl	800b0 <show_invalid_entry_message>
   848a0:	a9505ff6 	ldp	x22, x23, [sp, #256]
   848a4:	a94f57fe 	ldp	x30, x21, [sp, #240]
   848a8:	d5184036 	msr	elr_el1, x22
   848ac:	d5184017 	msr	spsr_el1, x23
   848b0:	a94007e0 	ldp	x0, x1, [sp]
   848b4:	a9410fe2 	ldp	x2, x3, [sp, #16]
   848b8:	a94217e4 	ldp	x4, x5, [sp, #32]
   848bc:	a9431fe6 	ldp	x6, x7, [sp, #48]
   848c0:	a94427e8 	ldp	x8, x9, [sp, #64]
   848c4:	a9452fea 	ldp	x10, x11, [sp, #80]
   848c8:	a94637ec 	ldp	x12, x13, [sp, #96]
   848cc:	a9473fee 	ldp	x14, x15, [sp, #112]
   848d0:	a94847f0 	ldp	x16, x17, [sp, #128]
   848d4:	a9494ff2 	ldp	x18, x19, [sp, #144]
   848d8:	a94a57f4 	ldp	x20, x21, [sp, #160]
   848dc:	a94b5ff6 	ldp	x22, x23, [sp, #176]
   848e0:	a94c67f8 	ldp	x24, x25, [sp, #192]
   848e4:	a94d6ffa 	ldp	x26, x27, [sp, #208]
   848e8:	a94e77fc 	ldp	x28, x29, [sp, #224]
   848ec:	910403ff 	add	sp, sp, #0x100
   848f0:	d69f03e0 	eret

00000000000848f4 <fiq_invalid_el1t>:
   848f4:	d10403ff 	sub	sp, sp, #0x100
   848f8:	a90007e0 	stp	x0, x1, [sp]
   848fc:	a9010fe2 	stp	x2, x3, [sp, #16]
   84900:	a90217e4 	stp	x4, x5, [sp, #32]
   84904:	a9031fe6 	stp	x6, x7, [sp, #48]
   84908:	a90427e8 	stp	x8, x9, [sp, #64]
   8490c:	a9052fea 	stp	x10, x11, [sp, #80]
   84910:	a90637ec 	stp	x12, x13, [sp, #96]
   84914:	a9073fee 	stp	x14, x15, [sp, #112]
   84918:	a90847f0 	stp	x16, x17, [sp, #128]
   8491c:	a9094ff2 	stp	x18, x19, [sp, #144]
   84920:	a90a57f4 	stp	x20, x21, [sp, #160]
   84924:	a90b5ff6 	stp	x22, x23, [sp, #176]
   84928:	a90c67f8 	stp	x24, x25, [sp, #192]
   8492c:	a90d6ffa 	stp	x26, x27, [sp, #208]
   84930:	a90e77fc 	stp	x28, x29, [sp, #224]
   84934:	910403f5 	add	x21, sp, #0x100
   84938:	d5384036 	mrs	x22, elr_el1
   8493c:	d5384017 	mrs	x23, spsr_el1
   84940:	a90f57fe 	stp	x30, x21, [sp, #240]
   84944:	a9105ff6 	stp	x22, x23, [sp, #256]
   84948:	d2800040 	mov	x0, #0x2                   	// #2
   8494c:	d5385201 	mrs	x1, esr_el1
   84950:	d5384022 	mrs	x2, elr_el1
   84954:	97ffedd7 	bl	800b0 <show_invalid_entry_message>
   84958:	a9505ff6 	ldp	x22, x23, [sp, #256]
   8495c:	a94f57fe 	ldp	x30, x21, [sp, #240]
   84960:	d5184036 	msr	elr_el1, x22
   84964:	d5184017 	msr	spsr_el1, x23
   84968:	a94007e0 	ldp	x0, x1, [sp]
   8496c:	a9410fe2 	ldp	x2, x3, [sp, #16]
   84970:	a94217e4 	ldp	x4, x5, [sp, #32]
   84974:	a9431fe6 	ldp	x6, x7, [sp, #48]
   84978:	a94427e8 	ldp	x8, x9, [sp, #64]
   8497c:	a9452fea 	ldp	x10, x11, [sp, #80]
   84980:	a94637ec 	ldp	x12, x13, [sp, #96]
   84984:	a9473fee 	ldp	x14, x15, [sp, #112]
   84988:	a94847f0 	ldp	x16, x17, [sp, #128]
   8498c:	a9494ff2 	ldp	x18, x19, [sp, #144]
   84990:	a94a57f4 	ldp	x20, x21, [sp, #160]
   84994:	a94b5ff6 	ldp	x22, x23, [sp, #176]
   84998:	a94c67f8 	ldp	x24, x25, [sp, #192]
   8499c:	a94d6ffa 	ldp	x26, x27, [sp, #208]
   849a0:	a94e77fc 	ldp	x28, x29, [sp, #224]
   849a4:	910403ff 	add	sp, sp, #0x100
   849a8:	d69f03e0 	eret

00000000000849ac <error_invalid_el1t>:
   849ac:	d10403ff 	sub	sp, sp, #0x100
   849b0:	a90007e0 	stp	x0, x1, [sp]
   849b4:	a9010fe2 	stp	x2, x3, [sp, #16]
   849b8:	a90217e4 	stp	x4, x5, [sp, #32]
   849bc:	a9031fe6 	stp	x6, x7, [sp, #48]
   849c0:	a90427e8 	stp	x8, x9, [sp, #64]
   849c4:	a9052fea 	stp	x10, x11, [sp, #80]
   849c8:	a90637ec 	stp	x12, x13, [sp, #96]
   849cc:	a9073fee 	stp	x14, x15, [sp, #112]
   849d0:	a90847f0 	stp	x16, x17, [sp, #128]
   849d4:	a9094ff2 	stp	x18, x19, [sp, #144]
   849d8:	a90a57f4 	stp	x20, x21, [sp, #160]
   849dc:	a90b5ff6 	stp	x22, x23, [sp, #176]
   849e0:	a90c67f8 	stp	x24, x25, [sp, #192]
   849e4:	a90d6ffa 	stp	x26, x27, [sp, #208]
   849e8:	a90e77fc 	stp	x28, x29, [sp, #224]
   849ec:	910403f5 	add	x21, sp, #0x100
   849f0:	d5384036 	mrs	x22, elr_el1
   849f4:	d5384017 	mrs	x23, spsr_el1
   849f8:	a90f57fe 	stp	x30, x21, [sp, #240]
   849fc:	a9105ff6 	stp	x22, x23, [sp, #256]
   84a00:	d2800060 	mov	x0, #0x3                   	// #3
   84a04:	d5385201 	mrs	x1, esr_el1
   84a08:	d5384022 	mrs	x2, elr_el1
   84a0c:	97ffeda9 	bl	800b0 <show_invalid_entry_message>
   84a10:	a9505ff6 	ldp	x22, x23, [sp, #256]
   84a14:	a94f57fe 	ldp	x30, x21, [sp, #240]
   84a18:	d5184036 	msr	elr_el1, x22
   84a1c:	d5184017 	msr	spsr_el1, x23
   84a20:	a94007e0 	ldp	x0, x1, [sp]
   84a24:	a9410fe2 	ldp	x2, x3, [sp, #16]
   84a28:	a94217e4 	ldp	x4, x5, [sp, #32]
   84a2c:	a9431fe6 	ldp	x6, x7, [sp, #48]
   84a30:	a94427e8 	ldp	x8, x9, [sp, #64]
   84a34:	a9452fea 	ldp	x10, x11, [sp, #80]
   84a38:	a94637ec 	ldp	x12, x13, [sp, #96]
   84a3c:	a9473fee 	ldp	x14, x15, [sp, #112]
   84a40:	a94847f0 	ldp	x16, x17, [sp, #128]
   84a44:	a9494ff2 	ldp	x18, x19, [sp, #144]
   84a48:	a94a57f4 	ldp	x20, x21, [sp, #160]
   84a4c:	a94b5ff6 	ldp	x22, x23, [sp, #176]
   84a50:	a94c67f8 	ldp	x24, x25, [sp, #192]
   84a54:	a94d6ffa 	ldp	x26, x27, [sp, #208]
   84a58:	a94e77fc 	ldp	x28, x29, [sp, #224]
   84a5c:	910403ff 	add	sp, sp, #0x100
   84a60:	d69f03e0 	eret

0000000000084a64 <sync_invalid_el1h>:
   84a64:	d10403ff 	sub	sp, sp, #0x100
   84a68:	a90007e0 	stp	x0, x1, [sp]
   84a6c:	a9010fe2 	stp	x2, x3, [sp, #16]
   84a70:	a90217e4 	stp	x4, x5, [sp, #32]
   84a74:	a9031fe6 	stp	x6, x7, [sp, #48]
   84a78:	a90427e8 	stp	x8, x9, [sp, #64]
   84a7c:	a9052fea 	stp	x10, x11, [sp, #80]
   84a80:	a90637ec 	stp	x12, x13, [sp, #96]
   84a84:	a9073fee 	stp	x14, x15, [sp, #112]
   84a88:	a90847f0 	stp	x16, x17, [sp, #128]
   84a8c:	a9094ff2 	stp	x18, x19, [sp, #144]
   84a90:	a90a57f4 	stp	x20, x21, [sp, #160]
   84a94:	a90b5ff6 	stp	x22, x23, [sp, #176]
   84a98:	a90c67f8 	stp	x24, x25, [sp, #192]
   84a9c:	a90d6ffa 	stp	x26, x27, [sp, #208]
   84aa0:	a90e77fc 	stp	x28, x29, [sp, #224]
   84aa4:	910403f5 	add	x21, sp, #0x100
   84aa8:	d5384036 	mrs	x22, elr_el1
   84aac:	d5384017 	mrs	x23, spsr_el1
   84ab0:	a90f57fe 	stp	x30, x21, [sp, #240]
   84ab4:	a9105ff6 	stp	x22, x23, [sp, #256]
   84ab8:	97ffed9b 	bl	80124 <exception_handler>
   84abc:	a9505ff6 	ldp	x22, x23, [sp, #256]
   84ac0:	a94f57fe 	ldp	x30, x21, [sp, #240]
   84ac4:	d5184036 	msr	elr_el1, x22
   84ac8:	d5184017 	msr	spsr_el1, x23
   84acc:	a94007e0 	ldp	x0, x1, [sp]
   84ad0:	a9410fe2 	ldp	x2, x3, [sp, #16]
   84ad4:	a94217e4 	ldp	x4, x5, [sp, #32]
   84ad8:	a9431fe6 	ldp	x6, x7, [sp, #48]
   84adc:	a94427e8 	ldp	x8, x9, [sp, #64]
   84ae0:	a9452fea 	ldp	x10, x11, [sp, #80]
   84ae4:	a94637ec 	ldp	x12, x13, [sp, #96]
   84ae8:	a9473fee 	ldp	x14, x15, [sp, #112]
   84aec:	a94847f0 	ldp	x16, x17, [sp, #128]
   84af0:	a9494ff2 	ldp	x18, x19, [sp, #144]
   84af4:	a94a57f4 	ldp	x20, x21, [sp, #160]
   84af8:	a94b5ff6 	ldp	x22, x23, [sp, #176]
   84afc:	a94c67f8 	ldp	x24, x25, [sp, #192]
   84b00:	a94d6ffa 	ldp	x26, x27, [sp, #208]
   84b04:	a94e77fc 	ldp	x28, x29, [sp, #224]
   84b08:	910403ff 	add	sp, sp, #0x100
   84b0c:	d69f03e0 	eret

0000000000084b10 <irq_invalid_el1h>:
   84b10:	97fff03f 	bl	80c0c <fuck_irqq>
   84b14:	d10403ff 	sub	sp, sp, #0x100
   84b18:	a90007e0 	stp	x0, x1, [sp]
   84b1c:	a9010fe2 	stp	x2, x3, [sp, #16]
   84b20:	a90217e4 	stp	x4, x5, [sp, #32]
   84b24:	a9031fe6 	stp	x6, x7, [sp, #48]
   84b28:	a90427e8 	stp	x8, x9, [sp, #64]
   84b2c:	a9052fea 	stp	x10, x11, [sp, #80]
   84b30:	a90637ec 	stp	x12, x13, [sp, #96]
   84b34:	a9073fee 	stp	x14, x15, [sp, #112]
   84b38:	a90847f0 	stp	x16, x17, [sp, #128]
   84b3c:	a9094ff2 	stp	x18, x19, [sp, #144]
   84b40:	a90a57f4 	stp	x20, x21, [sp, #160]
   84b44:	a90b5ff6 	stp	x22, x23, [sp, #176]
   84b48:	a90c67f8 	stp	x24, x25, [sp, #192]
   84b4c:	a90d6ffa 	stp	x26, x27, [sp, #208]
   84b50:	a90e77fc 	stp	x28, x29, [sp, #224]
   84b54:	910403f5 	add	x21, sp, #0x100
   84b58:	d5384036 	mrs	x22, elr_el1
   84b5c:	d5384017 	mrs	x23, spsr_el1
   84b60:	a90f57fe 	stp	x30, x21, [sp, #240]
   84b64:	a9105ff6 	stp	x22, x23, [sp, #256]
   84b68:	97fff012 	bl	80bb0 <disable_irq>
   84b6c:	97ffefbf 	bl	80a68 <irq_handler>
   84b70:	97fff003 	bl	80b7c <enable_irq>
   84b74:	a9505ff6 	ldp	x22, x23, [sp, #256]
   84b78:	a94f57fe 	ldp	x30, x21, [sp, #240]
   84b7c:	d5184036 	msr	elr_el1, x22
   84b80:	d5184017 	msr	spsr_el1, x23
   84b84:	a94007e0 	ldp	x0, x1, [sp]
   84b88:	a9410fe2 	ldp	x2, x3, [sp, #16]
   84b8c:	a94217e4 	ldp	x4, x5, [sp, #32]
   84b90:	a9431fe6 	ldp	x6, x7, [sp, #48]
   84b94:	a94427e8 	ldp	x8, x9, [sp, #64]
   84b98:	a9452fea 	ldp	x10, x11, [sp, #80]
   84b9c:	a94637ec 	ldp	x12, x13, [sp, #96]
   84ba0:	a9473fee 	ldp	x14, x15, [sp, #112]
   84ba4:	a94847f0 	ldp	x16, x17, [sp, #128]
   84ba8:	a9494ff2 	ldp	x18, x19, [sp, #144]
   84bac:	a94a57f4 	ldp	x20, x21, [sp, #160]
   84bb0:	a94b5ff6 	ldp	x22, x23, [sp, #176]
   84bb4:	a94c67f8 	ldp	x24, x25, [sp, #192]
   84bb8:	a94d6ffa 	ldp	x26, x27, [sp, #208]
   84bbc:	a94e77fc 	ldp	x28, x29, [sp, #224]
   84bc0:	910403ff 	add	sp, sp, #0x100
   84bc4:	d69f03e0 	eret

0000000000084bc8 <fiq_invalid_el1h>:
   84bc8:	d10403ff 	sub	sp, sp, #0x100
   84bcc:	a90007e0 	stp	x0, x1, [sp]
   84bd0:	a9010fe2 	stp	x2, x3, [sp, #16]
   84bd4:	a90217e4 	stp	x4, x5, [sp, #32]
   84bd8:	a9031fe6 	stp	x6, x7, [sp, #48]
   84bdc:	a90427e8 	stp	x8, x9, [sp, #64]
   84be0:	a9052fea 	stp	x10, x11, [sp, #80]
   84be4:	a90637ec 	stp	x12, x13, [sp, #96]
   84be8:	a9073fee 	stp	x14, x15, [sp, #112]
   84bec:	a90847f0 	stp	x16, x17, [sp, #128]
   84bf0:	a9094ff2 	stp	x18, x19, [sp, #144]
   84bf4:	a90a57f4 	stp	x20, x21, [sp, #160]
   84bf8:	a90b5ff6 	stp	x22, x23, [sp, #176]
   84bfc:	a90c67f8 	stp	x24, x25, [sp, #192]
   84c00:	a90d6ffa 	stp	x26, x27, [sp, #208]
   84c04:	a90e77fc 	stp	x28, x29, [sp, #224]
   84c08:	910403f5 	add	x21, sp, #0x100
   84c0c:	d5384036 	mrs	x22, elr_el1
   84c10:	d5384017 	mrs	x23, spsr_el1
   84c14:	a90f57fe 	stp	x30, x21, [sp, #240]
   84c18:	a9105ff6 	stp	x22, x23, [sp, #256]
   84c1c:	d28000c0 	mov	x0, #0x6                   	// #6
   84c20:	d5385201 	mrs	x1, esr_el1
   84c24:	d5384022 	mrs	x2, elr_el1
   84c28:	97ffed22 	bl	800b0 <show_invalid_entry_message>
   84c2c:	a9505ff6 	ldp	x22, x23, [sp, #256]
   84c30:	a94f57fe 	ldp	x30, x21, [sp, #240]
   84c34:	d5184036 	msr	elr_el1, x22
   84c38:	d5184017 	msr	spsr_el1, x23
   84c3c:	a94007e0 	ldp	x0, x1, [sp]
   84c40:	a9410fe2 	ldp	x2, x3, [sp, #16]
   84c44:	a94217e4 	ldp	x4, x5, [sp, #32]
   84c48:	a9431fe6 	ldp	x6, x7, [sp, #48]
   84c4c:	a94427e8 	ldp	x8, x9, [sp, #64]
   84c50:	a9452fea 	ldp	x10, x11, [sp, #80]
   84c54:	a94637ec 	ldp	x12, x13, [sp, #96]
   84c58:	a9473fee 	ldp	x14, x15, [sp, #112]
   84c5c:	a94847f0 	ldp	x16, x17, [sp, #128]
   84c60:	a9494ff2 	ldp	x18, x19, [sp, #144]
   84c64:	a94a57f4 	ldp	x20, x21, [sp, #160]
   84c68:	a94b5ff6 	ldp	x22, x23, [sp, #176]
   84c6c:	a94c67f8 	ldp	x24, x25, [sp, #192]
   84c70:	a94d6ffa 	ldp	x26, x27, [sp, #208]
   84c74:	a94e77fc 	ldp	x28, x29, [sp, #224]
   84c78:	910403ff 	add	sp, sp, #0x100
   84c7c:	d69f03e0 	eret

0000000000084c80 <error_invalid_el1h>:
   84c80:	d10403ff 	sub	sp, sp, #0x100
   84c84:	a90007e0 	stp	x0, x1, [sp]
   84c88:	a9010fe2 	stp	x2, x3, [sp, #16]
   84c8c:	a90217e4 	stp	x4, x5, [sp, #32]
   84c90:	a9031fe6 	stp	x6, x7, [sp, #48]
   84c94:	a90427e8 	stp	x8, x9, [sp, #64]
   84c98:	a9052fea 	stp	x10, x11, [sp, #80]
   84c9c:	a90637ec 	stp	x12, x13, [sp, #96]
   84ca0:	a9073fee 	stp	x14, x15, [sp, #112]
   84ca4:	a90847f0 	stp	x16, x17, [sp, #128]
   84ca8:	a9094ff2 	stp	x18, x19, [sp, #144]
   84cac:	a90a57f4 	stp	x20, x21, [sp, #160]
   84cb0:	a90b5ff6 	stp	x22, x23, [sp, #176]
   84cb4:	a90c67f8 	stp	x24, x25, [sp, #192]
   84cb8:	a90d6ffa 	stp	x26, x27, [sp, #208]
   84cbc:	a90e77fc 	stp	x28, x29, [sp, #224]
   84cc0:	910403f5 	add	x21, sp, #0x100
   84cc4:	d5384036 	mrs	x22, elr_el1
   84cc8:	d5384017 	mrs	x23, spsr_el1
   84ccc:	a90f57fe 	stp	x30, x21, [sp, #240]
   84cd0:	a9105ff6 	stp	x22, x23, [sp, #256]
   84cd4:	d28000e0 	mov	x0, #0x7                   	// #7
   84cd8:	d5385201 	mrs	x1, esr_el1
   84cdc:	d5384022 	mrs	x2, elr_el1
   84ce0:	97ffecf4 	bl	800b0 <show_invalid_entry_message>
   84ce4:	a9505ff6 	ldp	x22, x23, [sp, #256]
   84ce8:	a94f57fe 	ldp	x30, x21, [sp, #240]
   84cec:	d5184036 	msr	elr_el1, x22
   84cf0:	d5184017 	msr	spsr_el1, x23
   84cf4:	a94007e0 	ldp	x0, x1, [sp]
   84cf8:	a9410fe2 	ldp	x2, x3, [sp, #16]
   84cfc:	a94217e4 	ldp	x4, x5, [sp, #32]
   84d00:	a9431fe6 	ldp	x6, x7, [sp, #48]
   84d04:	a94427e8 	ldp	x8, x9, [sp, #64]
   84d08:	a9452fea 	ldp	x10, x11, [sp, #80]
   84d0c:	a94637ec 	ldp	x12, x13, [sp, #96]
   84d10:	a9473fee 	ldp	x14, x15, [sp, #112]
   84d14:	a94847f0 	ldp	x16, x17, [sp, #128]
   84d18:	a9494ff2 	ldp	x18, x19, [sp, #144]
   84d1c:	a94a57f4 	ldp	x20, x21, [sp, #160]
   84d20:	a94b5ff6 	ldp	x22, x23, [sp, #176]
   84d24:	a94c67f8 	ldp	x24, x25, [sp, #192]
   84d28:	a94d6ffa 	ldp	x26, x27, [sp, #208]
   84d2c:	a94e77fc 	ldp	x28, x29, [sp, #224]
   84d30:	910403ff 	add	sp, sp, #0x100
   84d34:	d69f03e0 	eret

0000000000084d38 <sync_invalid_el0_64>:
   84d38:	d10403ff 	sub	sp, sp, #0x100
   84d3c:	a90007e0 	stp	x0, x1, [sp]
   84d40:	a9010fe2 	stp	x2, x3, [sp, #16]
   84d44:	a90217e4 	stp	x4, x5, [sp, #32]
   84d48:	a9031fe6 	stp	x6, x7, [sp, #48]
   84d4c:	a90427e8 	stp	x8, x9, [sp, #64]
   84d50:	a9052fea 	stp	x10, x11, [sp, #80]
   84d54:	a90637ec 	stp	x12, x13, [sp, #96]
   84d58:	a9073fee 	stp	x14, x15, [sp, #112]
   84d5c:	a90847f0 	stp	x16, x17, [sp, #128]
   84d60:	a9094ff2 	stp	x18, x19, [sp, #144]
   84d64:	a90a57f4 	stp	x20, x21, [sp, #160]
   84d68:	a90b5ff6 	stp	x22, x23, [sp, #176]
   84d6c:	a90c67f8 	stp	x24, x25, [sp, #192]
   84d70:	a90d6ffa 	stp	x26, x27, [sp, #208]
   84d74:	a90e77fc 	stp	x28, x29, [sp, #224]
   84d78:	910403f5 	add	x21, sp, #0x100
   84d7c:	d5384036 	mrs	x22, elr_el1
   84d80:	d5384017 	mrs	x23, spsr_el1
   84d84:	a90f57fe 	stp	x30, x21, [sp, #240]
   84d88:	a9105ff6 	stp	x22, x23, [sp, #256]
   84d8c:	d5385219 	mrs	x25, esr_el1
   84d90:	d35aff38 	lsr	x24, x25, #26
   84d94:	f100571f 	cmp	x24, #0x15
   84d98:	97ffece3 	bl	80124 <exception_handler>
   84d9c:	97fff415 	bl	81df0 <check_resched>
   84da0:	a9505ff6 	ldp	x22, x23, [sp, #256]
   84da4:	a94f57fe 	ldp	x30, x21, [sp, #240]
   84da8:	d5184115 	msr	sp_el0, x21
   84dac:	d5184036 	msr	elr_el1, x22
   84db0:	d5184017 	msr	spsr_el1, x23
   84db4:	a94007e0 	ldp	x0, x1, [sp]
   84db8:	a9410fe2 	ldp	x2, x3, [sp, #16]
   84dbc:	a94217e4 	ldp	x4, x5, [sp, #32]
   84dc0:	a9431fe6 	ldp	x6, x7, [sp, #48]
   84dc4:	a94427e8 	ldp	x8, x9, [sp, #64]
   84dc8:	a9452fea 	ldp	x10, x11, [sp, #80]
   84dcc:	a94637ec 	ldp	x12, x13, [sp, #96]
   84dd0:	a9473fee 	ldp	x14, x15, [sp, #112]
   84dd4:	a94847f0 	ldp	x16, x17, [sp, #128]
   84dd8:	a9494ff2 	ldp	x18, x19, [sp, #144]
   84ddc:	a94a57f4 	ldp	x20, x21, [sp, #160]
   84de0:	a94b5ff6 	ldp	x22, x23, [sp, #176]
   84de4:	a94c67f8 	ldp	x24, x25, [sp, #192]
   84de8:	a94d6ffa 	ldp	x26, x27, [sp, #208]
   84dec:	a94e77fc 	ldp	x28, x29, [sp, #224]
   84df0:	910403ff 	add	sp, sp, #0x100
   84df4:	d69f03e0 	eret

0000000000084df8 <irq_invalid_el0_64>:
   84df8:	97ffef7a 	bl	80be0 <fuck_irq>
   84dfc:	d10403ff 	sub	sp, sp, #0x100
   84e00:	a90007e0 	stp	x0, x1, [sp]
   84e04:	a9010fe2 	stp	x2, x3, [sp, #16]
   84e08:	a90217e4 	stp	x4, x5, [sp, #32]
   84e0c:	a9031fe6 	stp	x6, x7, [sp, #48]
   84e10:	a90427e8 	stp	x8, x9, [sp, #64]
   84e14:	a9052fea 	stp	x10, x11, [sp, #80]
   84e18:	a90637ec 	stp	x12, x13, [sp, #96]
   84e1c:	a9073fee 	stp	x14, x15, [sp, #112]
   84e20:	a90847f0 	stp	x16, x17, [sp, #128]
   84e24:	a9094ff2 	stp	x18, x19, [sp, #144]
   84e28:	a90a57f4 	stp	x20, x21, [sp, #160]
   84e2c:	a90b5ff6 	stp	x22, x23, [sp, #176]
   84e30:	a90c67f8 	stp	x24, x25, [sp, #192]
   84e34:	a90d6ffa 	stp	x26, x27, [sp, #208]
   84e38:	a90e77fc 	stp	x28, x29, [sp, #224]
   84e3c:	910403f5 	add	x21, sp, #0x100
   84e40:	d5384036 	mrs	x22, elr_el1
   84e44:	d5384017 	mrs	x23, spsr_el1
   84e48:	a90f57fe 	stp	x30, x21, [sp, #240]
   84e4c:	a9105ff6 	stp	x22, x23, [sp, #256]
   84e50:	97ffef58 	bl	80bb0 <disable_irq>
   84e54:	97ffef05 	bl	80a68 <irq_handler>
   84e58:	97ffef49 	bl	80b7c <enable_irq>
   84e5c:	a9505ff6 	ldp	x22, x23, [sp, #256]
   84e60:	a94f57fe 	ldp	x30, x21, [sp, #240]
   84e64:	d5184115 	msr	sp_el0, x21
   84e68:	d5184036 	msr	elr_el1, x22
   84e6c:	d5184017 	msr	spsr_el1, x23
   84e70:	a94007e0 	ldp	x0, x1, [sp]
   84e74:	a9410fe2 	ldp	x2, x3, [sp, #16]
   84e78:	a94217e4 	ldp	x4, x5, [sp, #32]
   84e7c:	a9431fe6 	ldp	x6, x7, [sp, #48]
   84e80:	a94427e8 	ldp	x8, x9, [sp, #64]
   84e84:	a9452fea 	ldp	x10, x11, [sp, #80]
   84e88:	a94637ec 	ldp	x12, x13, [sp, #96]
   84e8c:	a9473fee 	ldp	x14, x15, [sp, #112]
   84e90:	a94847f0 	ldp	x16, x17, [sp, #128]
   84e94:	a9494ff2 	ldp	x18, x19, [sp, #144]
   84e98:	a94a57f4 	ldp	x20, x21, [sp, #160]
   84e9c:	a94b5ff6 	ldp	x22, x23, [sp, #176]
   84ea0:	a94c67f8 	ldp	x24, x25, [sp, #192]
   84ea4:	a94d6ffa 	ldp	x26, x27, [sp, #208]
   84ea8:	a94e77fc 	ldp	x28, x29, [sp, #224]
   84eac:	910403ff 	add	sp, sp, #0x100
   84eb0:	d69f03e0 	eret

0000000000084eb4 <fiq_invalid_el0_64>:
   84eb4:	d10403ff 	sub	sp, sp, #0x100
   84eb8:	a90007e0 	stp	x0, x1, [sp]
   84ebc:	a9010fe2 	stp	x2, x3, [sp, #16]
   84ec0:	a90217e4 	stp	x4, x5, [sp, #32]
   84ec4:	a9031fe6 	stp	x6, x7, [sp, #48]
   84ec8:	a90427e8 	stp	x8, x9, [sp, #64]
   84ecc:	a9052fea 	stp	x10, x11, [sp, #80]
   84ed0:	a90637ec 	stp	x12, x13, [sp, #96]
   84ed4:	a9073fee 	stp	x14, x15, [sp, #112]
   84ed8:	a90847f0 	stp	x16, x17, [sp, #128]
   84edc:	a9094ff2 	stp	x18, x19, [sp, #144]
   84ee0:	a90a57f4 	stp	x20, x21, [sp, #160]
   84ee4:	a90b5ff6 	stp	x22, x23, [sp, #176]
   84ee8:	a90c67f8 	stp	x24, x25, [sp, #192]
   84eec:	a90d6ffa 	stp	x26, x27, [sp, #208]
   84ef0:	a90e77fc 	stp	x28, x29, [sp, #224]
   84ef4:	910403f5 	add	x21, sp, #0x100
   84ef8:	d5384036 	mrs	x22, elr_el1
   84efc:	d5384017 	mrs	x23, spsr_el1
   84f00:	a90f57fe 	stp	x30, x21, [sp, #240]
   84f04:	a9105ff6 	stp	x22, x23, [sp, #256]
   84f08:	d2800140 	mov	x0, #0xa                   	// #10
   84f0c:	d5385201 	mrs	x1, esr_el1
   84f10:	d5384022 	mrs	x2, elr_el1
   84f14:	97ffec67 	bl	800b0 <show_invalid_entry_message>
   84f18:	a9505ff6 	ldp	x22, x23, [sp, #256]
   84f1c:	a94f57fe 	ldp	x30, x21, [sp, #240]
   84f20:	d5184036 	msr	elr_el1, x22
   84f24:	d5184017 	msr	spsr_el1, x23
   84f28:	a94007e0 	ldp	x0, x1, [sp]
   84f2c:	a9410fe2 	ldp	x2, x3, [sp, #16]
   84f30:	a94217e4 	ldp	x4, x5, [sp, #32]
   84f34:	a9431fe6 	ldp	x6, x7, [sp, #48]
   84f38:	a94427e8 	ldp	x8, x9, [sp, #64]
   84f3c:	a9452fea 	ldp	x10, x11, [sp, #80]
   84f40:	a94637ec 	ldp	x12, x13, [sp, #96]
   84f44:	a9473fee 	ldp	x14, x15, [sp, #112]
   84f48:	a94847f0 	ldp	x16, x17, [sp, #128]
   84f4c:	a9494ff2 	ldp	x18, x19, [sp, #144]
   84f50:	a94a57f4 	ldp	x20, x21, [sp, #160]
   84f54:	a94b5ff6 	ldp	x22, x23, [sp, #176]
   84f58:	a94c67f8 	ldp	x24, x25, [sp, #192]
   84f5c:	a94d6ffa 	ldp	x26, x27, [sp, #208]
   84f60:	a94e77fc 	ldp	x28, x29, [sp, #224]
   84f64:	910403ff 	add	sp, sp, #0x100
   84f68:	d69f03e0 	eret

0000000000084f6c <error_invalid_el0_64>:
   84f6c:	d10403ff 	sub	sp, sp, #0x100
   84f70:	a90007e0 	stp	x0, x1, [sp]
   84f74:	a9010fe2 	stp	x2, x3, [sp, #16]
   84f78:	a90217e4 	stp	x4, x5, [sp, #32]
   84f7c:	a9031fe6 	stp	x6, x7, [sp, #48]
   84f80:	a90427e8 	stp	x8, x9, [sp, #64]
   84f84:	a9052fea 	stp	x10, x11, [sp, #80]
   84f88:	a90637ec 	stp	x12, x13, [sp, #96]
   84f8c:	a9073fee 	stp	x14, x15, [sp, #112]
   84f90:	a90847f0 	stp	x16, x17, [sp, #128]
   84f94:	a9094ff2 	stp	x18, x19, [sp, #144]
   84f98:	a90a57f4 	stp	x20, x21, [sp, #160]
   84f9c:	a90b5ff6 	stp	x22, x23, [sp, #176]
   84fa0:	a90c67f8 	stp	x24, x25, [sp, #192]
   84fa4:	a90d6ffa 	stp	x26, x27, [sp, #208]
   84fa8:	a90e77fc 	stp	x28, x29, [sp, #224]
   84fac:	910403f5 	add	x21, sp, #0x100
   84fb0:	d5384036 	mrs	x22, elr_el1
   84fb4:	d5384017 	mrs	x23, spsr_el1
   84fb8:	a90f57fe 	stp	x30, x21, [sp, #240]
   84fbc:	a9105ff6 	stp	x22, x23, [sp, #256]
   84fc0:	d2800160 	mov	x0, #0xb                   	// #11
   84fc4:	d5385201 	mrs	x1, esr_el1
   84fc8:	d5384022 	mrs	x2, elr_el1
   84fcc:	97ffec39 	bl	800b0 <show_invalid_entry_message>
   84fd0:	a9505ff6 	ldp	x22, x23, [sp, #256]
   84fd4:	a94f57fe 	ldp	x30, x21, [sp, #240]
   84fd8:	d5184036 	msr	elr_el1, x22
   84fdc:	d5184017 	msr	spsr_el1, x23
   84fe0:	a94007e0 	ldp	x0, x1, [sp]
   84fe4:	a9410fe2 	ldp	x2, x3, [sp, #16]
   84fe8:	a94217e4 	ldp	x4, x5, [sp, #32]
   84fec:	a9431fe6 	ldp	x6, x7, [sp, #48]
   84ff0:	a94427e8 	ldp	x8, x9, [sp, #64]
   84ff4:	a9452fea 	ldp	x10, x11, [sp, #80]
   84ff8:	a94637ec 	ldp	x12, x13, [sp, #96]
   84ffc:	a9473fee 	ldp	x14, x15, [sp, #112]
   85000:	a94847f0 	ldp	x16, x17, [sp, #128]
   85004:	a9494ff2 	ldp	x18, x19, [sp, #144]
   85008:	a94a57f4 	ldp	x20, x21, [sp, #160]
   8500c:	a94b5ff6 	ldp	x22, x23, [sp, #176]
   85010:	a94c67f8 	ldp	x24, x25, [sp, #192]
   85014:	a94d6ffa 	ldp	x26, x27, [sp, #208]
   85018:	a94e77fc 	ldp	x28, x29, [sp, #224]
   8501c:	910403ff 	add	sp, sp, #0x100
   85020:	d69f03e0 	eret

0000000000085024 <sync_invalid_el0_32>:
   85024:	d10403ff 	sub	sp, sp, #0x100
   85028:	a90007e0 	stp	x0, x1, [sp]
   8502c:	a9010fe2 	stp	x2, x3, [sp, #16]
   85030:	a90217e4 	stp	x4, x5, [sp, #32]
   85034:	a9031fe6 	stp	x6, x7, [sp, #48]
   85038:	a90427e8 	stp	x8, x9, [sp, #64]
   8503c:	a9052fea 	stp	x10, x11, [sp, #80]
   85040:	a90637ec 	stp	x12, x13, [sp, #96]
   85044:	a9073fee 	stp	x14, x15, [sp, #112]
   85048:	a90847f0 	stp	x16, x17, [sp, #128]
   8504c:	a9094ff2 	stp	x18, x19, [sp, #144]
   85050:	a90a57f4 	stp	x20, x21, [sp, #160]
   85054:	a90b5ff6 	stp	x22, x23, [sp, #176]
   85058:	a90c67f8 	stp	x24, x25, [sp, #192]
   8505c:	a90d6ffa 	stp	x26, x27, [sp, #208]
   85060:	a90e77fc 	stp	x28, x29, [sp, #224]
   85064:	910403f5 	add	x21, sp, #0x100
   85068:	d5384036 	mrs	x22, elr_el1
   8506c:	d5384017 	mrs	x23, spsr_el1
   85070:	a90f57fe 	stp	x30, x21, [sp, #240]
   85074:	a9105ff6 	stp	x22, x23, [sp, #256]
   85078:	d2800180 	mov	x0, #0xc                   	// #12
   8507c:	d5385201 	mrs	x1, esr_el1
   85080:	d5384022 	mrs	x2, elr_el1
   85084:	97ffec0b 	bl	800b0 <show_invalid_entry_message>
   85088:	a9505ff6 	ldp	x22, x23, [sp, #256]
   8508c:	a94f57fe 	ldp	x30, x21, [sp, #240]
   85090:	d5184036 	msr	elr_el1, x22
   85094:	d5184017 	msr	spsr_el1, x23
   85098:	a94007e0 	ldp	x0, x1, [sp]
   8509c:	a9410fe2 	ldp	x2, x3, [sp, #16]
   850a0:	a94217e4 	ldp	x4, x5, [sp, #32]
   850a4:	a9431fe6 	ldp	x6, x7, [sp, #48]
   850a8:	a94427e8 	ldp	x8, x9, [sp, #64]
   850ac:	a9452fea 	ldp	x10, x11, [sp, #80]
   850b0:	a94637ec 	ldp	x12, x13, [sp, #96]
   850b4:	a9473fee 	ldp	x14, x15, [sp, #112]
   850b8:	a94847f0 	ldp	x16, x17, [sp, #128]
   850bc:	a9494ff2 	ldp	x18, x19, [sp, #144]
   850c0:	a94a57f4 	ldp	x20, x21, [sp, #160]
   850c4:	a94b5ff6 	ldp	x22, x23, [sp, #176]
   850c8:	a94c67f8 	ldp	x24, x25, [sp, #192]
   850cc:	a94d6ffa 	ldp	x26, x27, [sp, #208]
   850d0:	a94e77fc 	ldp	x28, x29, [sp, #224]
   850d4:	910403ff 	add	sp, sp, #0x100
   850d8:	d69f03e0 	eret

00000000000850dc <irq_invalid_el0_32>:
   850dc:	d10403ff 	sub	sp, sp, #0x100
   850e0:	a90007e0 	stp	x0, x1, [sp]
   850e4:	a9010fe2 	stp	x2, x3, [sp, #16]
   850e8:	a90217e4 	stp	x4, x5, [sp, #32]
   850ec:	a9031fe6 	stp	x6, x7, [sp, #48]
   850f0:	a90427e8 	stp	x8, x9, [sp, #64]
   850f4:	a9052fea 	stp	x10, x11, [sp, #80]
   850f8:	a90637ec 	stp	x12, x13, [sp, #96]
   850fc:	a9073fee 	stp	x14, x15, [sp, #112]
   85100:	a90847f0 	stp	x16, x17, [sp, #128]
   85104:	a9094ff2 	stp	x18, x19, [sp, #144]
   85108:	a90a57f4 	stp	x20, x21, [sp, #160]
   8510c:	a90b5ff6 	stp	x22, x23, [sp, #176]
   85110:	a90c67f8 	stp	x24, x25, [sp, #192]
   85114:	a90d6ffa 	stp	x26, x27, [sp, #208]
   85118:	a90e77fc 	stp	x28, x29, [sp, #224]
   8511c:	910403f5 	add	x21, sp, #0x100
   85120:	d5384036 	mrs	x22, elr_el1
   85124:	d5384017 	mrs	x23, spsr_el1
   85128:	a90f57fe 	stp	x30, x21, [sp, #240]
   8512c:	a9105ff6 	stp	x22, x23, [sp, #256]
   85130:	d28001a0 	mov	x0, #0xd                   	// #13
   85134:	d5385201 	mrs	x1, esr_el1
   85138:	d5384022 	mrs	x2, elr_el1
   8513c:	97ffebdd 	bl	800b0 <show_invalid_entry_message>
   85140:	a9505ff6 	ldp	x22, x23, [sp, #256]
   85144:	a94f57fe 	ldp	x30, x21, [sp, #240]
   85148:	d5184036 	msr	elr_el1, x22
   8514c:	d5184017 	msr	spsr_el1, x23
   85150:	a94007e0 	ldp	x0, x1, [sp]
   85154:	a9410fe2 	ldp	x2, x3, [sp, #16]
   85158:	a94217e4 	ldp	x4, x5, [sp, #32]
   8515c:	a9431fe6 	ldp	x6, x7, [sp, #48]
   85160:	a94427e8 	ldp	x8, x9, [sp, #64]
   85164:	a9452fea 	ldp	x10, x11, [sp, #80]
   85168:	a94637ec 	ldp	x12, x13, [sp, #96]
   8516c:	a9473fee 	ldp	x14, x15, [sp, #112]
   85170:	a94847f0 	ldp	x16, x17, [sp, #128]
   85174:	a9494ff2 	ldp	x18, x19, [sp, #144]
   85178:	a94a57f4 	ldp	x20, x21, [sp, #160]
   8517c:	a94b5ff6 	ldp	x22, x23, [sp, #176]
   85180:	a94c67f8 	ldp	x24, x25, [sp, #192]
   85184:	a94d6ffa 	ldp	x26, x27, [sp, #208]
   85188:	a94e77fc 	ldp	x28, x29, [sp, #224]
   8518c:	910403ff 	add	sp, sp, #0x100
   85190:	d69f03e0 	eret

0000000000085194 <fiq_invalid_el0_32>:
   85194:	d10403ff 	sub	sp, sp, #0x100
   85198:	a90007e0 	stp	x0, x1, [sp]
   8519c:	a9010fe2 	stp	x2, x3, [sp, #16]
   851a0:	a90217e4 	stp	x4, x5, [sp, #32]
   851a4:	a9031fe6 	stp	x6, x7, [sp, #48]
   851a8:	a90427e8 	stp	x8, x9, [sp, #64]
   851ac:	a9052fea 	stp	x10, x11, [sp, #80]
   851b0:	a90637ec 	stp	x12, x13, [sp, #96]
   851b4:	a9073fee 	stp	x14, x15, [sp, #112]
   851b8:	a90847f0 	stp	x16, x17, [sp, #128]
   851bc:	a9094ff2 	stp	x18, x19, [sp, #144]
   851c0:	a90a57f4 	stp	x20, x21, [sp, #160]
   851c4:	a90b5ff6 	stp	x22, x23, [sp, #176]
   851c8:	a90c67f8 	stp	x24, x25, [sp, #192]
   851cc:	a90d6ffa 	stp	x26, x27, [sp, #208]
   851d0:	a90e77fc 	stp	x28, x29, [sp, #224]
   851d4:	910403f5 	add	x21, sp, #0x100
   851d8:	d5384036 	mrs	x22, elr_el1
   851dc:	d5384017 	mrs	x23, spsr_el1
   851e0:	a90f57fe 	stp	x30, x21, [sp, #240]
   851e4:	a9105ff6 	stp	x22, x23, [sp, #256]
   851e8:	d28001c0 	mov	x0, #0xe                   	// #14
   851ec:	d5385201 	mrs	x1, esr_el1
   851f0:	d5384022 	mrs	x2, elr_el1
   851f4:	97ffebaf 	bl	800b0 <show_invalid_entry_message>
   851f8:	a9505ff6 	ldp	x22, x23, [sp, #256]
   851fc:	a94f57fe 	ldp	x30, x21, [sp, #240]
   85200:	d5184036 	msr	elr_el1, x22
   85204:	d5184017 	msr	spsr_el1, x23
   85208:	a94007e0 	ldp	x0, x1, [sp]
   8520c:	a9410fe2 	ldp	x2, x3, [sp, #16]
   85210:	a94217e4 	ldp	x4, x5, [sp, #32]
   85214:	a9431fe6 	ldp	x6, x7, [sp, #48]
   85218:	a94427e8 	ldp	x8, x9, [sp, #64]
   8521c:	a9452fea 	ldp	x10, x11, [sp, #80]
   85220:	a94637ec 	ldp	x12, x13, [sp, #96]
   85224:	a9473fee 	ldp	x14, x15, [sp, #112]
   85228:	a94847f0 	ldp	x16, x17, [sp, #128]
   8522c:	a9494ff2 	ldp	x18, x19, [sp, #144]
   85230:	a94a57f4 	ldp	x20, x21, [sp, #160]
   85234:	a94b5ff6 	ldp	x22, x23, [sp, #176]
   85238:	a94c67f8 	ldp	x24, x25, [sp, #192]
   8523c:	a94d6ffa 	ldp	x26, x27, [sp, #208]
   85240:	a94e77fc 	ldp	x28, x29, [sp, #224]
   85244:	910403ff 	add	sp, sp, #0x100
   85248:	d69f03e0 	eret

000000000008524c <error_invalid_el0_32>:
   8524c:	d10403ff 	sub	sp, sp, #0x100
   85250:	a90007e0 	stp	x0, x1, [sp]
   85254:	a9010fe2 	stp	x2, x3, [sp, #16]
   85258:	a90217e4 	stp	x4, x5, [sp, #32]
   8525c:	a9031fe6 	stp	x6, x7, [sp, #48]
   85260:	a90427e8 	stp	x8, x9, [sp, #64]
   85264:	a9052fea 	stp	x10, x11, [sp, #80]
   85268:	a90637ec 	stp	x12, x13, [sp, #96]
   8526c:	a9073fee 	stp	x14, x15, [sp, #112]
   85270:	a90847f0 	stp	x16, x17, [sp, #128]
   85274:	a9094ff2 	stp	x18, x19, [sp, #144]
   85278:	a90a57f4 	stp	x20, x21, [sp, #160]
   8527c:	a90b5ff6 	stp	x22, x23, [sp, #176]
   85280:	a90c67f8 	stp	x24, x25, [sp, #192]
   85284:	a90d6ffa 	stp	x26, x27, [sp, #208]
   85288:	a90e77fc 	stp	x28, x29, [sp, #224]
   8528c:	910403f5 	add	x21, sp, #0x100
   85290:	d5384036 	mrs	x22, elr_el1
   85294:	d5384017 	mrs	x23, spsr_el1
   85298:	a90f57fe 	stp	x30, x21, [sp, #240]
   8529c:	a9105ff6 	stp	x22, x23, [sp, #256]
   852a0:	d28001e0 	mov	x0, #0xf                   	// #15
   852a4:	d5385201 	mrs	x1, esr_el1
   852a8:	d5384022 	mrs	x2, elr_el1
   852ac:	97ffeb81 	bl	800b0 <show_invalid_entry_message>
   852b0:	a9505ff6 	ldp	x22, x23, [sp, #256]
   852b4:	a94f57fe 	ldp	x30, x21, [sp, #240]
   852b8:	d5184036 	msr	elr_el1, x22
   852bc:	d5184017 	msr	spsr_el1, x23
   852c0:	a94007e0 	ldp	x0, x1, [sp]
   852c4:	a9410fe2 	ldp	x2, x3, [sp, #16]
   852c8:	a94217e4 	ldp	x4, x5, [sp, #32]
   852cc:	a9431fe6 	ldp	x6, x7, [sp, #48]
   852d0:	a94427e8 	ldp	x8, x9, [sp, #64]
   852d4:	a9452fea 	ldp	x10, x11, [sp, #80]
   852d8:	a94637ec 	ldp	x12, x13, [sp, #96]
   852dc:	a9473fee 	ldp	x14, x15, [sp, #112]
   852e0:	a94847f0 	ldp	x16, x17, [sp, #128]
   852e4:	a9494ff2 	ldp	x18, x19, [sp, #144]
   852e8:	a94a57f4 	ldp	x20, x21, [sp, #160]
   852ec:	a94b5ff6 	ldp	x22, x23, [sp, #176]
   852f0:	a94c67f8 	ldp	x24, x25, [sp, #192]
   852f4:	a94d6ffa 	ldp	x26, x27, [sp, #208]
   852f8:	a94e77fc 	ldp	x28, x29, [sp, #224]
   852fc:	910403ff 	add	sp, sp, #0x100
   85300:	d69f03e0 	eret

0000000000085304 <err_hang>:
   85304:	14000000 	b	85304 <err_hang>

0000000000085308 <ret_from_fork>:
   85308:	97fff29a 	bl	81d70 <schedule_tail>
   8530c:	b4000073 	cbz	x19, 85318 <ret_to_user>
   85310:	aa1403e0 	mov	x0, x20
   85314:	d63f0260 	blr	x19

0000000000085318 <ret_to_user>:
   85318:	97ffee26 	bl	80bb0 <disable_irq>
   8531c:	910003e0 	mov	x0, sp
   85320:	97fff2a0 	bl	81da0 <show_addr>
   85324:	a9505ff6 	ldp	x22, x23, [sp, #256]
   85328:	a94f57fe 	ldp	x30, x21, [sp, #240]
   8532c:	d5184115 	msr	sp_el0, x21
   85330:	d5184036 	msr	elr_el1, x22
   85334:	d5184017 	msr	spsr_el1, x23
   85338:	a94007e0 	ldp	x0, x1, [sp]
   8533c:	a9410fe2 	ldp	x2, x3, [sp, #16]
   85340:	a94217e4 	ldp	x4, x5, [sp, #32]
   85344:	a9431fe6 	ldp	x6, x7, [sp, #48]
   85348:	a94427e8 	ldp	x8, x9, [sp, #64]
   8534c:	a9452fea 	ldp	x10, x11, [sp, #80]
   85350:	a94637ec 	ldp	x12, x13, [sp, #96]
   85354:	a9473fee 	ldp	x14, x15, [sp, #112]
   85358:	a94847f0 	ldp	x16, x17, [sp, #128]
   8535c:	a9494ff2 	ldp	x18, x19, [sp, #144]
   85360:	a94a57f4 	ldp	x20, x21, [sp, #160]
   85364:	a94b5ff6 	ldp	x22, x23, [sp, #176]
   85368:	a94c67f8 	ldp	x24, x25, [sp, #192]
   8536c:	a94d6ffa 	ldp	x26, x27, [sp, #208]
   85370:	a94e77fc 	ldp	x28, x29, [sp, #224]
   85374:	910403ff 	add	sp, sp, #0x100
   85378:	d69f03e0 	eret

000000000008537c <memzero>:
   8537c:	eb01001f 	cmp	x0, x1
   85380:	f800841f 	str	xzr, [x0], #8
   85384:	54ffffc1 	b.ne	8537c <memzero>  // b.any
   85388:	d65f03c0 	ret

000000000008538c <switch_to>:
   8538c:	a9005013 	stp	x19, x20, [x0]
   85390:	a9015815 	stp	x21, x22, [x0, #16]
   85394:	a9026017 	stp	x23, x24, [x0, #32]
   85398:	a9036819 	stp	x25, x26, [x0, #48]
   8539c:	a904701b 	stp	x27, x28, [x0, #64]
   853a0:	a905781d 	stp	x29, x30, [x0, #80]
   853a4:	910003e9 	mov	x9, sp
   853a8:	f9003009 	str	x9, [x0, #96]
   853ac:	a9405033 	ldp	x19, x20, [x1]
   853b0:	a9415835 	ldp	x21, x22, [x1, #16]
   853b4:	a9426037 	ldp	x23, x24, [x1, #32]
   853b8:	a9436839 	ldp	x25, x26, [x1, #48]
   853bc:	a944703b 	ldp	x27, x28, [x1, #64]
   853c0:	a945783d 	ldp	x29, x30, [x1, #80]
   853c4:	f9403029 	ldr	x9, [x1, #96]
   853c8:	9100013f 	mov	sp, x9
   853cc:	d65f03c0 	ret

00000000000853d0 <get_current>:
   853d0:	d538d080 	mrs	x0, tpidr_el1

00000000000853d4 <call_sys_read>:
   853d4:	52800008 	mov	w8, #0x0                   	// #0
   853d8:	d4000001 	svc	#0x0
   853dc:	d65f03c0 	ret

00000000000853e0 <call_sys_write>:
   853e0:	52800028 	mov	w8, #0x1                   	// #1
   853e4:	d4000001 	svc	#0x0
   853e8:	d65f03c0 	ret

00000000000853ec <call_sys_exec>:
   853ec:	52800048 	mov	w8, #0x2                   	// #2
   853f0:	d4000001 	svc	#0x0
   853f4:	d65f03c0 	ret

00000000000853f8 <call_sys_exit>:
   853f8:	52800088 	mov	w8, #0x4                   	// #4
   853fc:	d4000001 	svc	#0x0
   85400:	d65f03c0 	ret

0000000000085404 <call_sys_fork>:
   85404:	aa0003ea 	mov	x10, x0
   85408:	aa0103eb 	mov	x11, x1
   8540c:	aa0203ec 	mov	x12, x2
   85410:	aa0203e0 	mov	x0, x2
   85414:	d2800068 	mov	x8, #0x3                   	// #3
   85418:	d4000001 	svc	#0x0
   8541c:	f100001f 	cmp	x0, #0x0
   85420:	54000040 	b.eq	85428 <thread_start>  // b.none
   85424:	d65f03c0 	ret

0000000000085428 <thread_start>:
   85428:	d280001d 	mov	x29, #0x0                   	// #0
   8542c:	aa0b03e0 	mov	x0, x11
   85430:	d63f0140 	blr	x10
   85434:	d2800088 	mov	x8, #0x4                   	// #4
   85438:	d4000001 	svc	#0x0
   8543c:	00000000 	.inst	0x00000000 ; undefined

0000000000085440 <sys_core_timer_enable>:
   85440:	d2800020 	mov	x0, #0x1                   	// #1
   85444:	d51be220 	msr	cntp_ctl_el0, x0
   85448:	d53be000 	mrs	x0, cntfrq_el0
   8544c:	d51be200 	msr	cntp_tval_el0, x0
   85450:	d2800040 	mov	x0, #0x2                   	// #2
   85454:	58000061 	ldr	x1, 85460 <sys_core_timer_enable+0x20>
   85458:	f9000020 	str	x0, [x1]
   8545c:	d65f03c0 	ret
   85460:	40000040 	.word	0x40000040
   85464:	00000000 	.word	0x00000000

0000000000085468 <put32>:
   85468:	b9000001 	str	w1, [x0]
   8546c:	d65f03c0 	ret

0000000000085470 <get32>:
   85470:	b9400000 	ldr	w0, [x0]
   85474:	d65f03c0 	ret

0000000000085478 <delay>:
   85478:	f1000400 	subs	x0, x0, #0x1
   8547c:	54ffffe1 	b.ne	85478 <delay>  // b.any
   85480:	d65f03c0 	ret

Disassembly of section .bootloader:

000000000010d5e8 <copy_and_load>:
  10d5e8:	a9be7bfd 	stp	x29, x30, [sp, #-32]!
  10d5ec:	910003fd 	mov	x29, sp
  10d5f0:	90fffbc0 	adrp	x0, 85000 <error_invalid_el0_64+0x94>
  10d5f4:	91280000 	add	x0, x0, #0xa00
  10d5f8:	97fdd0bb 	bl	818e4 <uart_puts>
  10d5fc:	90fffbc0 	adrp	x0, 85000 <error_invalid_el0_64+0x94>
  10d600:	91282000 	add	x0, x0, #0xa08
  10d604:	97fdd0b8 	bl	818e4 <uart_puts>
  10d608:	b0fffbc0 	adrp	x0, 86000 <delay+0xb88>
  10d60c:	f9429000 	ldr	x0, [x0, #1312]
  10d610:	f9400000 	ldr	x0, [x0]
  10d614:	f9000fe0 	str	x0, [sp, #24]
  10d618:	b0fffbc0 	adrp	x0, 86000 <delay+0xb88>
  10d61c:	f9429000 	ldr	x0, [x0, #1312]
  10d620:	f9400000 	ldr	x0, [x0]
  10d624:	aa0003e1 	mov	x1, x0
  10d628:	90fffbc0 	adrp	x0, 85000 <error_invalid_el0_64+0x94>
  10d62c:	91284000 	add	x0, x0, #0xa10
  10d630:	97fdd680 	bl	83030 <printf>
  10d634:	b0fffbc0 	adrp	x0, 86000 <delay+0xb88>
  10d638:	f942d800 	ldr	x0, [x0, #1456]
  10d63c:	f9400000 	ldr	x0, [x0]
  10d640:	f9400fe1 	ldr	x1, [sp, #24]
  10d644:	aa0103e2 	mov	x2, x1
  10d648:	aa0003e1 	mov	x1, x0
  10d64c:	90fffbc0 	adrp	x0, 85000 <error_invalid_el0_64+0x94>
  10d650:	91288000 	add	x0, x0, #0xa20
  10d654:	97fdd677 	bl	83030 <printf>
  10d658:	90fffbc0 	adrp	x0, 85000 <error_invalid_el0_64+0x94>
  10d65c:	9128e000 	add	x0, x0, #0xa38
  10d660:	97fdd0a1 	bl	818e4 <uart_puts>
  10d664:	14000008 	b	10d684 <copy_and_load+0x9c>
  10d668:	97fdd085 	bl	8187c <uart_recv>
  10d66c:	39005fe0 	strb	w0, [sp, #23]
  10d670:	f9400fe0 	ldr	x0, [sp, #24]
  10d674:	91000401 	add	x1, x0, #0x1
  10d678:	f9000fe1 	str	x1, [sp, #24]
  10d67c:	39405fe1 	ldrb	w1, [sp, #23]
  10d680:	39000001 	strb	w1, [x0]
  10d684:	b0fffbc0 	adrp	x0, 86000 <delay+0xb88>
  10d688:	f942d800 	ldr	x0, [x0, #1456]
  10d68c:	f9400000 	ldr	x0, [x0]
  10d690:	d1000402 	sub	x2, x0, #0x1
  10d694:	b0fffbc1 	adrp	x1, 86000 <delay+0xb88>
  10d698:	f942d821 	ldr	x1, [x1, #1456]
  10d69c:	f9000022 	str	x2, [x1]
  10d6a0:	f100001f 	cmp	x0, #0x0
  10d6a4:	54fffe21 	b.ne	10d668 <copy_and_load+0x80>  // b.any
  10d6a8:	90fffbc0 	adrp	x0, 85000 <error_invalid_el0_64+0x94>
  10d6ac:	91280000 	add	x0, x0, #0xa00
  10d6b0:	97fdd08d 	bl	818e4 <uart_puts>
  10d6b4:	90fffbc0 	adrp	x0, 85000 <error_invalid_el0_64+0x94>
  10d6b8:	91282000 	add	x0, x0, #0xa08
  10d6bc:	97fdd08a 	bl	818e4 <uart_puts>
  10d6c0:	b0fffbc0 	adrp	x0, 86000 <delay+0xb88>
  10d6c4:	f9429000 	ldr	x0, [x0, #1312]
  10d6c8:	f9400000 	ldr	x0, [x0]
  10d6cc:	aa0003e1 	mov	x1, x0
  10d6d0:	90fffbc0 	adrp	x0, 85000 <error_invalid_el0_64+0x94>
  10d6d4:	91296000 	add	x0, x0, #0xa58
  10d6d8:	97fdd656 	bl	83030 <printf>
  10d6dc:	b0fffbc0 	adrp	x0, 86000 <delay+0xb88>
  10d6e0:	f9429000 	ldr	x0, [x0, #1312]
  10d6e4:	f9400000 	ldr	x0, [x0]
  10d6e8:	d61f0000 	br	x0
  10d6ec:	90fffbc0 	adrp	x0, 85000 <error_invalid_el0_64+0x94>
  10d6f0:	9129a000 	add	x0, x0, #0xa68
  10d6f4:	97fdd07c 	bl	818e4 <uart_puts>
  10d6f8:	90fffbc0 	adrp	x0, 85000 <error_invalid_el0_64+0x94>
  10d6fc:	91282000 	add	x0, x0, #0xa08
  10d700:	97fdd079 	bl	818e4 <uart_puts>
  10d704:	d503201f 	nop
  10d708:	a8c27bfd 	ldp	x29, x30, [sp], #32
  10d70c:	d65f03c0 	ret
