
kernel8.elf:     file format elf64-littleaarch64


Disassembly of section .text:

ffff000000080000 <_kernel_start>:
ffff000000080000:	d53800a1 	mrs	x1, mpidr_el1
ffff000000080004:	92400421 	and	x1, x1, #0x3
ffff000000080008:	b4000061 	cbz	x1, ffff000000080014 <boot>

ffff00000008000c <busy_loop>:
ffff00000008000c:	d503205f 	wfe
ffff000000080010:	17ffffff 	b	ffff00000008000c <busy_loop>

ffff000000080014 <boot>:
ffff000000080014:	580003a0 	ldr	x0, ffff000000080088 <c_entry+0x8>
ffff000000080018:	d5181000 	msr	sctlr_el1, x0
ffff00000008001c:	580003a0 	ldr	x0, ffff000000080090 <c_entry+0x10>
ffff000000080020:	d51c1100 	msr	hcr_el2, x0
ffff000000080024:	580003a0 	ldr	x0, ffff000000080098 <c_entry+0x18>
ffff000000080028:	d51c4000 	msr	spsr_el2, x0
ffff00000008002c:	100000a0 	adr	x0, ffff000000080040 <EL2_to_El1>
ffff000000080030:	d51c4020 	msr	elr_el2, x0
ffff000000080034:	10fffe60 	adr	x0, ffff000000080000 <_kernel_start>
ffff000000080038:	d51c4100 	msr	sp_el1, x0
ffff00000008003c:	d69f03e0 	eret

ffff000000080040 <EL2_to_El1>:
ffff000000080040:	58000300 	ldr	x0, ffff0000000800a0 <c_entry+0x20>
ffff000000080044:	d5184000 	msr	spsr_el1, x0
ffff000000080048:	100200c1 	adr	x1, ffff000000084060 <task_allocate_status>
ffff00000008004c:	10431422 	adr	x2, ffff0000001062d0 <__bss_end>
ffff000000080050:	cb010042 	sub	x2, x2, x1

ffff000000080054 <clear_bss>:
ffff000000080054:	b4000162 	cbz	x2, ffff000000080080 <c_entry>
ffff000000080058:	f800843f 	str	xzr, [x1], #8
ffff00000008005c:	d1000442 	sub	x2, x2, #0x1
ffff000000080060:	b5ffffa2 	cbnz	x2, ffff000000080054 <clear_bss>
ffff000000080064:	94000749 	bl	ffff000000081d88 <mmu_init>
ffff000000080068:	58000200 	ldr	x0, ffff0000000800a8 <c_entry+0x28>
ffff00000008006c:	9100001f 	mov	sp, x0
ffff000000080070:	58000201 	ldr	x1, ffff0000000800b0 <c_entry+0x30>
ffff000000080074:	58000220 	ldr	x0, ffff0000000800b8 <c_entry+0x38>
ffff000000080078:	d5181000 	msr	sctlr_el1, x0
ffff00000008007c:	d61f0020 	br	x1

ffff000000080080 <c_entry>:
ffff000000080080:	94000a48 	bl	ffff0000000829a0 <main>
ffff000000080084:	17ffffe2 	b	ffff00000008000c <busy_loop>
	...
ffff000000080090:	80000000 	.word	0x80000000
ffff000000080094:	00000000 	.word	0x00000000
ffff000000080098:	000003c5 	.word	0x000003c5
ffff00000008009c:	00000000 	.word	0x00000000
ffff0000000800a0:	000003c0 	.word	0x000003c0
ffff0000000800a4:	00000000 	.word	0x00000000
ffff0000000800a8:	00080000 	.word	0x00080000
ffff0000000800ac:	ffff0000 	.word	0xffff0000
ffff0000000800b0:	000829a0 	.word	0x000829a0
ffff0000000800b4:	ffff0000 	.word	0xffff0000
ffff0000000800b8:	00000001 	.word	0x00000001
	...

ffff000000080800 <__vectors1>:
ffff000000080800:	14000161 	b	ffff000000080d84 <sync_currentEL_spelx_EL1>
ffff000000080804:	d503201f 	nop
ffff000000080808:	d503201f 	nop
ffff00000008080c:	d503201f 	nop
ffff000000080810:	d503201f 	nop
ffff000000080814:	d503201f 	nop
ffff000000080818:	d503201f 	nop
ffff00000008081c:	d503201f 	nop
ffff000000080820:	d503201f 	nop
ffff000000080824:	d503201f 	nop
ffff000000080828:	d503201f 	nop
ffff00000008082c:	d503201f 	nop
ffff000000080830:	d503201f 	nop
ffff000000080834:	d503201f 	nop
ffff000000080838:	d503201f 	nop
ffff00000008083c:	d503201f 	nop
ffff000000080840:	d503201f 	nop
ffff000000080844:	d503201f 	nop
ffff000000080848:	d503201f 	nop
ffff00000008084c:	d503201f 	nop
ffff000000080850:	d503201f 	nop
ffff000000080854:	d503201f 	nop
ffff000000080858:	d503201f 	nop
ffff00000008085c:	d503201f 	nop
ffff000000080860:	d503201f 	nop
ffff000000080864:	d503201f 	nop
ffff000000080868:	d503201f 	nop
ffff00000008086c:	d503201f 	nop
ffff000000080870:	d503201f 	nop
ffff000000080874:	d503201f 	nop
ffff000000080878:	d503201f 	nop
ffff00000008087c:	d503201f 	nop
ffff000000080880:	14000141 	b	ffff000000080d84 <sync_currentEL_spelx_EL1>
ffff000000080884:	d503201f 	nop
ffff000000080888:	d503201f 	nop
ffff00000008088c:	d503201f 	nop
ffff000000080890:	d503201f 	nop
ffff000000080894:	d503201f 	nop
ffff000000080898:	d503201f 	nop
ffff00000008089c:	d503201f 	nop
ffff0000000808a0:	d503201f 	nop
ffff0000000808a4:	d503201f 	nop
ffff0000000808a8:	d503201f 	nop
ffff0000000808ac:	d503201f 	nop
ffff0000000808b0:	d503201f 	nop
ffff0000000808b4:	d503201f 	nop
ffff0000000808b8:	d503201f 	nop
ffff0000000808bc:	d503201f 	nop
ffff0000000808c0:	d503201f 	nop
ffff0000000808c4:	d503201f 	nop
ffff0000000808c8:	d503201f 	nop
ffff0000000808cc:	d503201f 	nop
ffff0000000808d0:	d503201f 	nop
ffff0000000808d4:	d503201f 	nop
ffff0000000808d8:	d503201f 	nop
ffff0000000808dc:	d503201f 	nop
ffff0000000808e0:	d503201f 	nop
ffff0000000808e4:	d503201f 	nop
ffff0000000808e8:	d503201f 	nop
ffff0000000808ec:	d503201f 	nop
ffff0000000808f0:	d503201f 	nop
ffff0000000808f4:	d503201f 	nop
ffff0000000808f8:	d503201f 	nop
ffff0000000808fc:	d503201f 	nop
ffff000000080900:	14000121 	b	ffff000000080d84 <sync_currentEL_spelx_EL1>
ffff000000080904:	d503201f 	nop
ffff000000080908:	d503201f 	nop
ffff00000008090c:	d503201f 	nop
ffff000000080910:	d503201f 	nop
ffff000000080914:	d503201f 	nop
ffff000000080918:	d503201f 	nop
ffff00000008091c:	d503201f 	nop
ffff000000080920:	d503201f 	nop
ffff000000080924:	d503201f 	nop
ffff000000080928:	d503201f 	nop
ffff00000008092c:	d503201f 	nop
ffff000000080930:	d503201f 	nop
ffff000000080934:	d503201f 	nop
ffff000000080938:	d503201f 	nop
ffff00000008093c:	d503201f 	nop
ffff000000080940:	d503201f 	nop
ffff000000080944:	d503201f 	nop
ffff000000080948:	d503201f 	nop
ffff00000008094c:	d503201f 	nop
ffff000000080950:	d503201f 	nop
ffff000000080954:	d503201f 	nop
ffff000000080958:	d503201f 	nop
ffff00000008095c:	d503201f 	nop
ffff000000080960:	d503201f 	nop
ffff000000080964:	d503201f 	nop
ffff000000080968:	d503201f 	nop
ffff00000008096c:	d503201f 	nop
ffff000000080970:	d503201f 	nop
ffff000000080974:	d503201f 	nop
ffff000000080978:	d503201f 	nop
ffff00000008097c:	d503201f 	nop
ffff000000080980:	14000101 	b	ffff000000080d84 <sync_currentEL_spelx_EL1>
ffff000000080984:	d503201f 	nop
ffff000000080988:	d503201f 	nop
ffff00000008098c:	d503201f 	nop
ffff000000080990:	d503201f 	nop
ffff000000080994:	d503201f 	nop
ffff000000080998:	d503201f 	nop
ffff00000008099c:	d503201f 	nop
ffff0000000809a0:	d503201f 	nop
ffff0000000809a4:	d503201f 	nop
ffff0000000809a8:	d503201f 	nop
ffff0000000809ac:	d503201f 	nop
ffff0000000809b0:	d503201f 	nop
ffff0000000809b4:	d503201f 	nop
ffff0000000809b8:	d503201f 	nop
ffff0000000809bc:	d503201f 	nop
ffff0000000809c0:	d503201f 	nop
ffff0000000809c4:	d503201f 	nop
ffff0000000809c8:	d503201f 	nop
ffff0000000809cc:	d503201f 	nop
ffff0000000809d0:	d503201f 	nop
ffff0000000809d4:	d503201f 	nop
ffff0000000809d8:	d503201f 	nop
ffff0000000809dc:	d503201f 	nop
ffff0000000809e0:	d503201f 	nop
ffff0000000809e4:	d503201f 	nop
ffff0000000809e8:	d503201f 	nop
ffff0000000809ec:	d503201f 	nop
ffff0000000809f0:	d503201f 	nop
ffff0000000809f4:	d503201f 	nop
ffff0000000809f8:	d503201f 	nop
ffff0000000809fc:	d503201f 	nop
ffff000000080a00:	140000e1 	b	ffff000000080d84 <sync_currentEL_spelx_EL1>
ffff000000080a04:	d503201f 	nop
ffff000000080a08:	d503201f 	nop
ffff000000080a0c:	d503201f 	nop
ffff000000080a10:	d503201f 	nop
ffff000000080a14:	d503201f 	nop
ffff000000080a18:	d503201f 	nop
ffff000000080a1c:	d503201f 	nop
ffff000000080a20:	d503201f 	nop
ffff000000080a24:	d503201f 	nop
ffff000000080a28:	d503201f 	nop
ffff000000080a2c:	d503201f 	nop
ffff000000080a30:	d503201f 	nop
ffff000000080a34:	d503201f 	nop
ffff000000080a38:	d503201f 	nop
ffff000000080a3c:	d503201f 	nop
ffff000000080a40:	d503201f 	nop
ffff000000080a44:	d503201f 	nop
ffff000000080a48:	d503201f 	nop
ffff000000080a4c:	d503201f 	nop
ffff000000080a50:	d503201f 	nop
ffff000000080a54:	d503201f 	nop
ffff000000080a58:	d503201f 	nop
ffff000000080a5c:	d503201f 	nop
ffff000000080a60:	d503201f 	nop
ffff000000080a64:	d503201f 	nop
ffff000000080a68:	d503201f 	nop
ffff000000080a6c:	d503201f 	nop
ffff000000080a70:	d503201f 	nop
ffff000000080a74:	d503201f 	nop
ffff000000080a78:	d503201f 	nop
ffff000000080a7c:	d503201f 	nop
ffff000000080a80:	140000ec 	b	ffff000000080e30 <irq_currentEL_spelx_EL1>
ffff000000080a84:	d503201f 	nop
ffff000000080a88:	d503201f 	nop
ffff000000080a8c:	d503201f 	nop
ffff000000080a90:	d503201f 	nop
ffff000000080a94:	d503201f 	nop
ffff000000080a98:	d503201f 	nop
ffff000000080a9c:	d503201f 	nop
ffff000000080aa0:	d503201f 	nop
ffff000000080aa4:	d503201f 	nop
ffff000000080aa8:	d503201f 	nop
ffff000000080aac:	d503201f 	nop
ffff000000080ab0:	d503201f 	nop
ffff000000080ab4:	d503201f 	nop
ffff000000080ab8:	d503201f 	nop
ffff000000080abc:	d503201f 	nop
ffff000000080ac0:	d503201f 	nop
ffff000000080ac4:	d503201f 	nop
ffff000000080ac8:	d503201f 	nop
ffff000000080acc:	d503201f 	nop
ffff000000080ad0:	d503201f 	nop
ffff000000080ad4:	d503201f 	nop
ffff000000080ad8:	d503201f 	nop
ffff000000080adc:	d503201f 	nop
ffff000000080ae0:	d503201f 	nop
ffff000000080ae4:	d503201f 	nop
ffff000000080ae8:	d503201f 	nop
ffff000000080aec:	d503201f 	nop
ffff000000080af0:	d503201f 	nop
ffff000000080af4:	d503201f 	nop
ffff000000080af8:	d503201f 	nop
ffff000000080afc:	d503201f 	nop
ffff000000080b00:	140000a1 	b	ffff000000080d84 <sync_currentEL_spelx_EL1>
ffff000000080b04:	d503201f 	nop
ffff000000080b08:	d503201f 	nop
ffff000000080b0c:	d503201f 	nop
ffff000000080b10:	d503201f 	nop
ffff000000080b14:	d503201f 	nop
ffff000000080b18:	d503201f 	nop
ffff000000080b1c:	d503201f 	nop
ffff000000080b20:	d503201f 	nop
ffff000000080b24:	d503201f 	nop
ffff000000080b28:	d503201f 	nop
ffff000000080b2c:	d503201f 	nop
ffff000000080b30:	d503201f 	nop
ffff000000080b34:	d503201f 	nop
ffff000000080b38:	d503201f 	nop
ffff000000080b3c:	d503201f 	nop
ffff000000080b40:	d503201f 	nop
ffff000000080b44:	d503201f 	nop
ffff000000080b48:	d503201f 	nop
ffff000000080b4c:	d503201f 	nop
ffff000000080b50:	d503201f 	nop
ffff000000080b54:	d503201f 	nop
ffff000000080b58:	d503201f 	nop
ffff000000080b5c:	d503201f 	nop
ffff000000080b60:	d503201f 	nop
ffff000000080b64:	d503201f 	nop
ffff000000080b68:	d503201f 	nop
ffff000000080b6c:	d503201f 	nop
ffff000000080b70:	d503201f 	nop
ffff000000080b74:	d503201f 	nop
ffff000000080b78:	d503201f 	nop
ffff000000080b7c:	d503201f 	nop
ffff000000080b80:	140000d7 	b	ffff000000080edc <sError_currentEL_spelx_EL1>
ffff000000080b84:	d503201f 	nop
ffff000000080b88:	d503201f 	nop
ffff000000080b8c:	d503201f 	nop
ffff000000080b90:	d503201f 	nop
ffff000000080b94:	d503201f 	nop
ffff000000080b98:	d503201f 	nop
ffff000000080b9c:	d503201f 	nop
ffff000000080ba0:	d503201f 	nop
ffff000000080ba4:	d503201f 	nop
ffff000000080ba8:	d503201f 	nop
ffff000000080bac:	d503201f 	nop
ffff000000080bb0:	d503201f 	nop
ffff000000080bb4:	d503201f 	nop
ffff000000080bb8:	d503201f 	nop
ffff000000080bbc:	d503201f 	nop
ffff000000080bc0:	d503201f 	nop
ffff000000080bc4:	d503201f 	nop
ffff000000080bc8:	d503201f 	nop
ffff000000080bcc:	d503201f 	nop
ffff000000080bd0:	d503201f 	nop
ffff000000080bd4:	d503201f 	nop
ffff000000080bd8:	d503201f 	nop
ffff000000080bdc:	d503201f 	nop
ffff000000080be0:	d503201f 	nop
ffff000000080be4:	d503201f 	nop
ffff000000080be8:	d503201f 	nop
ffff000000080bec:	d503201f 	nop
ffff000000080bf0:	d503201f 	nop
ffff000000080bf4:	d503201f 	nop
ffff000000080bf8:	d503201f 	nop
ffff000000080bfc:	d503201f 	nop
ffff000000080c00:	140000e2 	b	ffff000000080f88 <sync_arch64_EL0>
ffff000000080c04:	d503201f 	nop
ffff000000080c08:	d503201f 	nop
ffff000000080c0c:	d503201f 	nop
ffff000000080c10:	d503201f 	nop
ffff000000080c14:	d503201f 	nop
ffff000000080c18:	d503201f 	nop
ffff000000080c1c:	d503201f 	nop
ffff000000080c20:	d503201f 	nop
ffff000000080c24:	d503201f 	nop
ffff000000080c28:	d503201f 	nop
ffff000000080c2c:	d503201f 	nop
ffff000000080c30:	d503201f 	nop
ffff000000080c34:	d503201f 	nop
ffff000000080c38:	d503201f 	nop
ffff000000080c3c:	d503201f 	nop
ffff000000080c40:	d503201f 	nop
ffff000000080c44:	d503201f 	nop
ffff000000080c48:	d503201f 	nop
ffff000000080c4c:	d503201f 	nop
ffff000000080c50:	d503201f 	nop
ffff000000080c54:	d503201f 	nop
ffff000000080c58:	d503201f 	nop
ffff000000080c5c:	d503201f 	nop
ffff000000080c60:	d503201f 	nop
ffff000000080c64:	d503201f 	nop
ffff000000080c68:	d503201f 	nop
ffff000000080c6c:	d503201f 	nop
ffff000000080c70:	d503201f 	nop
ffff000000080c74:	d503201f 	nop
ffff000000080c78:	d503201f 	nop
ffff000000080c7c:	d503201f 	nop
ffff000000080c80:	1400006c 	b	ffff000000080e30 <irq_currentEL_spelx_EL1>
ffff000000080c84:	d503201f 	nop
ffff000000080c88:	d503201f 	nop
ffff000000080c8c:	d503201f 	nop
ffff000000080c90:	d503201f 	nop
ffff000000080c94:	d503201f 	nop
ffff000000080c98:	d503201f 	nop
ffff000000080c9c:	d503201f 	nop
ffff000000080ca0:	d503201f 	nop
ffff000000080ca4:	d503201f 	nop
ffff000000080ca8:	d503201f 	nop
ffff000000080cac:	d503201f 	nop
ffff000000080cb0:	d503201f 	nop
ffff000000080cb4:	d503201f 	nop
ffff000000080cb8:	d503201f 	nop
ffff000000080cbc:	d503201f 	nop
ffff000000080cc0:	d503201f 	nop
ffff000000080cc4:	d503201f 	nop
ffff000000080cc8:	d503201f 	nop
ffff000000080ccc:	d503201f 	nop
ffff000000080cd0:	d503201f 	nop
ffff000000080cd4:	d503201f 	nop
ffff000000080cd8:	d503201f 	nop
ffff000000080cdc:	d503201f 	nop
ffff000000080ce0:	d503201f 	nop
ffff000000080ce4:	d503201f 	nop
ffff000000080ce8:	d503201f 	nop
ffff000000080cec:	d503201f 	nop
ffff000000080cf0:	d503201f 	nop
ffff000000080cf4:	d503201f 	nop
ffff000000080cf8:	d503201f 	nop
ffff000000080cfc:	d503201f 	nop
ffff000000080d00:	140000a2 	b	ffff000000080f88 <sync_arch64_EL0>
ffff000000080d04:	d503201f 	nop
ffff000000080d08:	d503201f 	nop
ffff000000080d0c:	d503201f 	nop
ffff000000080d10:	d503201f 	nop
ffff000000080d14:	d503201f 	nop
ffff000000080d18:	d503201f 	nop
ffff000000080d1c:	d503201f 	nop
ffff000000080d20:	d503201f 	nop
ffff000000080d24:	d503201f 	nop
ffff000000080d28:	d503201f 	nop
ffff000000080d2c:	d503201f 	nop
ffff000000080d30:	d503201f 	nop
ffff000000080d34:	d503201f 	nop
ffff000000080d38:	d503201f 	nop
ffff000000080d3c:	d503201f 	nop
ffff000000080d40:	d503201f 	nop
ffff000000080d44:	d503201f 	nop
ffff000000080d48:	d503201f 	nop
ffff000000080d4c:	d503201f 	nop
ffff000000080d50:	d503201f 	nop
ffff000000080d54:	d503201f 	nop
ffff000000080d58:	d503201f 	nop
ffff000000080d5c:	d503201f 	nop
ffff000000080d60:	d503201f 	nop
ffff000000080d64:	d503201f 	nop
ffff000000080d68:	d503201f 	nop
ffff000000080d6c:	d503201f 	nop
ffff000000080d70:	d503201f 	nop
ffff000000080d74:	d503201f 	nop
ffff000000080d78:	d503201f 	nop
ffff000000080d7c:	d503201f 	nop
ffff000000080d80:	14000082 	b	ffff000000080f88 <sync_arch64_EL0>

ffff000000080d84 <sync_currentEL_spelx_EL1>:
ffff000000080d84:	a94007e0 	ldp	x0, x1, [sp]
ffff000000080d88:	d538d080 	mrs	x0, tpidr_el1
ffff000000080d8c:	91018000 	add	x0, x0, #0x60
ffff000000080d90:	f9400000 	ldr	x0, [x0]
ffff000000080d94:	910003e1 	mov	x1, sp
ffff000000080d98:	9100001f 	mov	sp, x0
ffff000000080d9c:	a9000420 	stp	x0, x1, [x1]
ffff000000080da0:	d10403ff 	sub	sp, sp, #0x100
ffff000000080da4:	a90007e0 	stp	x0, x1, [sp]
ffff000000080da8:	a9010fe2 	stp	x2, x3, [sp, #16]
ffff000000080dac:	a90217e4 	stp	x4, x5, [sp, #32]
ffff000000080db0:	a9031fe6 	stp	x6, x7, [sp, #48]
ffff000000080db4:	a90427e8 	stp	x8, x9, [sp, #64]
ffff000000080db8:	a9052fea 	stp	x10, x11, [sp, #80]
ffff000000080dbc:	a90637ec 	stp	x12, x13, [sp, #96]
ffff000000080dc0:	a9073fee 	stp	x14, x15, [sp, #112]
ffff000000080dc4:	a90847f0 	stp	x16, x17, [sp, #128]
ffff000000080dc8:	a9094ff2 	stp	x18, x19, [sp, #144]
ffff000000080dcc:	a90a57f4 	stp	x20, x21, [sp, #160]
ffff000000080dd0:	a90b5ff6 	stp	x22, x23, [sp, #176]
ffff000000080dd4:	a90c67f8 	stp	x24, x25, [sp, #192]
ffff000000080dd8:	a90d6ffa 	stp	x26, x27, [sp, #208]
ffff000000080ddc:	a90e77fc 	stp	x28, x29, [sp, #224]
ffff000000080de0:	f9007bfe 	str	x30, [sp, #240]
ffff000000080de4:	940007a5 	bl	ffff000000082c78 <sync_exc1_handler>
ffff000000080de8:	a94007e0 	ldp	x0, x1, [sp]
ffff000000080dec:	a9410fe2 	ldp	x2, x3, [sp, #16]
ffff000000080df0:	a94217e4 	ldp	x4, x5, [sp, #32]
ffff000000080df4:	a9431fe6 	ldp	x6, x7, [sp, #48]
ffff000000080df8:	a94427e8 	ldp	x8, x9, [sp, #64]
ffff000000080dfc:	a9452fea 	ldp	x10, x11, [sp, #80]
ffff000000080e00:	a94637ec 	ldp	x12, x13, [sp, #96]
ffff000000080e04:	a9473fee 	ldp	x14, x15, [sp, #112]
ffff000000080e08:	a94847f0 	ldp	x16, x17, [sp, #128]
ffff000000080e0c:	a9494ff2 	ldp	x18, x19, [sp, #144]
ffff000000080e10:	a94a57f4 	ldp	x20, x21, [sp, #160]
ffff000000080e14:	a94b5ff6 	ldp	x22, x23, [sp, #176]
ffff000000080e18:	a94c67f8 	ldp	x24, x25, [sp, #192]
ffff000000080e1c:	a94d6ffa 	ldp	x26, x27, [sp, #208]
ffff000000080e20:	a94e77fc 	ldp	x28, x29, [sp, #224]
ffff000000080e24:	f9407bfe 	ldr	x30, [sp, #240]
ffff000000080e28:	910403ff 	add	sp, sp, #0x100
ffff000000080e2c:	d69f03e0 	eret

ffff000000080e30 <irq_currentEL_spelx_EL1>:
ffff000000080e30:	a94007e0 	ldp	x0, x1, [sp]
ffff000000080e34:	d538d080 	mrs	x0, tpidr_el1
ffff000000080e38:	91018000 	add	x0, x0, #0x60
ffff000000080e3c:	f9400000 	ldr	x0, [x0]
ffff000000080e40:	910003e1 	mov	x1, sp
ffff000000080e44:	9100001f 	mov	sp, x0
ffff000000080e48:	a9000420 	stp	x0, x1, [x1]
ffff000000080e4c:	d10403ff 	sub	sp, sp, #0x100
ffff000000080e50:	a90007e0 	stp	x0, x1, [sp]
ffff000000080e54:	a9010fe2 	stp	x2, x3, [sp, #16]
ffff000000080e58:	a90217e4 	stp	x4, x5, [sp, #32]
ffff000000080e5c:	a9031fe6 	stp	x6, x7, [sp, #48]
ffff000000080e60:	a90427e8 	stp	x8, x9, [sp, #64]
ffff000000080e64:	a9052fea 	stp	x10, x11, [sp, #80]
ffff000000080e68:	a90637ec 	stp	x12, x13, [sp, #96]
ffff000000080e6c:	a9073fee 	stp	x14, x15, [sp, #112]
ffff000000080e70:	a90847f0 	stp	x16, x17, [sp, #128]
ffff000000080e74:	a9094ff2 	stp	x18, x19, [sp, #144]
ffff000000080e78:	a90a57f4 	stp	x20, x21, [sp, #160]
ffff000000080e7c:	a90b5ff6 	stp	x22, x23, [sp, #176]
ffff000000080e80:	a90c67f8 	stp	x24, x25, [sp, #192]
ffff000000080e84:	a90d6ffa 	stp	x26, x27, [sp, #208]
ffff000000080e88:	a90e77fc 	stp	x28, x29, [sp, #224]
ffff000000080e8c:	f9007bfe 	str	x30, [sp, #240]
ffff000000080e90:	94000792 	bl	ffff000000082cd8 <irq_exc_handler>
ffff000000080e94:	a94007e0 	ldp	x0, x1, [sp]
ffff000000080e98:	a9410fe2 	ldp	x2, x3, [sp, #16]
ffff000000080e9c:	a94217e4 	ldp	x4, x5, [sp, #32]
ffff000000080ea0:	a9431fe6 	ldp	x6, x7, [sp, #48]
ffff000000080ea4:	a94427e8 	ldp	x8, x9, [sp, #64]
ffff000000080ea8:	a9452fea 	ldp	x10, x11, [sp, #80]
ffff000000080eac:	a94637ec 	ldp	x12, x13, [sp, #96]
ffff000000080eb0:	a9473fee 	ldp	x14, x15, [sp, #112]
ffff000000080eb4:	a94847f0 	ldp	x16, x17, [sp, #128]
ffff000000080eb8:	a9494ff2 	ldp	x18, x19, [sp, #144]
ffff000000080ebc:	a94a57f4 	ldp	x20, x21, [sp, #160]
ffff000000080ec0:	a94b5ff6 	ldp	x22, x23, [sp, #176]
ffff000000080ec4:	a94c67f8 	ldp	x24, x25, [sp, #192]
ffff000000080ec8:	a94d6ffa 	ldp	x26, x27, [sp, #208]
ffff000000080ecc:	a94e77fc 	ldp	x28, x29, [sp, #224]
ffff000000080ed0:	f9407bfe 	ldr	x30, [sp, #240]
ffff000000080ed4:	910403ff 	add	sp, sp, #0x100
ffff000000080ed8:	d69f03e0 	eret

ffff000000080edc <sError_currentEL_spelx_EL1>:
ffff000000080edc:	a94007e0 	ldp	x0, x1, [sp]
ffff000000080ee0:	d538d080 	mrs	x0, tpidr_el1
ffff000000080ee4:	91018000 	add	x0, x0, #0x60
ffff000000080ee8:	f9400000 	ldr	x0, [x0]
ffff000000080eec:	910003e1 	mov	x1, sp
ffff000000080ef0:	9100001f 	mov	sp, x0
ffff000000080ef4:	a9000420 	stp	x0, x1, [x1]
ffff000000080ef8:	d10403ff 	sub	sp, sp, #0x100
ffff000000080efc:	a90007e0 	stp	x0, x1, [sp]
ffff000000080f00:	a9010fe2 	stp	x2, x3, [sp, #16]
ffff000000080f04:	a90217e4 	stp	x4, x5, [sp, #32]
ffff000000080f08:	a9031fe6 	stp	x6, x7, [sp, #48]
ffff000000080f0c:	a90427e8 	stp	x8, x9, [sp, #64]
ffff000000080f10:	a9052fea 	stp	x10, x11, [sp, #80]
ffff000000080f14:	a90637ec 	stp	x12, x13, [sp, #96]
ffff000000080f18:	a9073fee 	stp	x14, x15, [sp, #112]
ffff000000080f1c:	a90847f0 	stp	x16, x17, [sp, #128]
ffff000000080f20:	a9094ff2 	stp	x18, x19, [sp, #144]
ffff000000080f24:	a90a57f4 	stp	x20, x21, [sp, #160]
ffff000000080f28:	a90b5ff6 	stp	x22, x23, [sp, #176]
ffff000000080f2c:	a90c67f8 	stp	x24, x25, [sp, #192]
ffff000000080f30:	a90d6ffa 	stp	x26, x27, [sp, #208]
ffff000000080f34:	a90e77fc 	stp	x28, x29, [sp, #224]
ffff000000080f38:	f9007bfe 	str	x30, [sp, #240]
ffff000000080f3c:	94000777 	bl	ffff000000082d18 <SError_handler>
ffff000000080f40:	a94007e0 	ldp	x0, x1, [sp]
ffff000000080f44:	a9410fe2 	ldp	x2, x3, [sp, #16]
ffff000000080f48:	a94217e4 	ldp	x4, x5, [sp, #32]
ffff000000080f4c:	a9431fe6 	ldp	x6, x7, [sp, #48]
ffff000000080f50:	a94427e8 	ldp	x8, x9, [sp, #64]
ffff000000080f54:	a9452fea 	ldp	x10, x11, [sp, #80]
ffff000000080f58:	a94637ec 	ldp	x12, x13, [sp, #96]
ffff000000080f5c:	a9473fee 	ldp	x14, x15, [sp, #112]
ffff000000080f60:	a94847f0 	ldp	x16, x17, [sp, #128]
ffff000000080f64:	a9494ff2 	ldp	x18, x19, [sp, #144]
ffff000000080f68:	a94a57f4 	ldp	x20, x21, [sp, #160]
ffff000000080f6c:	a94b5ff6 	ldp	x22, x23, [sp, #176]
ffff000000080f70:	a94c67f8 	ldp	x24, x25, [sp, #192]
ffff000000080f74:	a94d6ffa 	ldp	x26, x27, [sp, #208]
ffff000000080f78:	a94e77fc 	ldp	x28, x29, [sp, #224]
ffff000000080f7c:	f9407bfe 	ldr	x30, [sp, #240]
ffff000000080f80:	910403ff 	add	sp, sp, #0x100
ffff000000080f84:	d69f03e0 	eret

ffff000000080f88 <sync_arch64_EL0>:
ffff000000080f88:	a94007e0 	ldp	x0, x1, [sp]
ffff000000080f8c:	d538d080 	mrs	x0, tpidr_el1
ffff000000080f90:	91018000 	add	x0, x0, #0x60
ffff000000080f94:	f9400000 	ldr	x0, [x0]
ffff000000080f98:	910003e1 	mov	x1, sp
ffff000000080f9c:	9100001f 	mov	sp, x0
ffff000000080fa0:	a9000420 	stp	x0, x1, [x1]
ffff000000080fa4:	d10403ff 	sub	sp, sp, #0x100
ffff000000080fa8:	a90007e0 	stp	x0, x1, [sp]
ffff000000080fac:	a9010fe2 	stp	x2, x3, [sp, #16]
ffff000000080fb0:	a90217e4 	stp	x4, x5, [sp, #32]
ffff000000080fb4:	a9031fe6 	stp	x6, x7, [sp, #48]
ffff000000080fb8:	a90427e8 	stp	x8, x9, [sp, #64]
ffff000000080fbc:	a9052fea 	stp	x10, x11, [sp, #80]
ffff000000080fc0:	a90637ec 	stp	x12, x13, [sp, #96]
ffff000000080fc4:	a9073fee 	stp	x14, x15, [sp, #112]
ffff000000080fc8:	a90847f0 	stp	x16, x17, [sp, #128]
ffff000000080fcc:	a9094ff2 	stp	x18, x19, [sp, #144]
ffff000000080fd0:	a90a57f4 	stp	x20, x21, [sp, #160]
ffff000000080fd4:	a90b5ff6 	stp	x22, x23, [sp, #176]
ffff000000080fd8:	a90c67f8 	stp	x24, x25, [sp, #192]
ffff000000080fdc:	a90d6ffa 	stp	x26, x27, [sp, #208]
ffff000000080fe0:	a90e77fc 	stp	x28, x29, [sp, #224]
ffff000000080fe4:	f9007bfe 	str	x30, [sp, #240]
ffff000000080fe8:	9400070c 	bl	ffff000000082c18 <sync_exc0_handler>
ffff000000080fec:	a94007e0 	ldp	x0, x1, [sp]
ffff000000080ff0:	a9410fe2 	ldp	x2, x3, [sp, #16]
ffff000000080ff4:	a94217e4 	ldp	x4, x5, [sp, #32]
ffff000000080ff8:	a9431fe6 	ldp	x6, x7, [sp, #48]
ffff000000080ffc:	a94427e8 	ldp	x8, x9, [sp, #64]
ffff000000081000:	a9452fea 	ldp	x10, x11, [sp, #80]
ffff000000081004:	a94637ec 	ldp	x12, x13, [sp, #96]
ffff000000081008:	a9473fee 	ldp	x14, x15, [sp, #112]
ffff00000008100c:	a94847f0 	ldp	x16, x17, [sp, #128]
ffff000000081010:	a9494ff2 	ldp	x18, x19, [sp, #144]
ffff000000081014:	a94a57f4 	ldp	x20, x21, [sp, #160]
ffff000000081018:	a94b5ff6 	ldp	x22, x23, [sp, #176]
ffff00000008101c:	a94c67f8 	ldp	x24, x25, [sp, #192]
ffff000000081020:	a94d6ffa 	ldp	x26, x27, [sp, #208]
ffff000000081024:	a94e77fc 	ldp	x28, x29, [sp, #224]
ffff000000081028:	f9407bfe 	ldr	x30, [sp, #240]
ffff00000008102c:	910403ff 	add	sp, sp, #0x100
ffff000000081030:	d69f03e0 	eret
ffff000000081034:	d503201f 	nop
ffff000000081038:	d503201f 	nop
ffff00000008103c:	d503201f 	nop
ffff000000081040:	d503201f 	nop
ffff000000081044:	d503201f 	nop
ffff000000081048:	d503201f 	nop
ffff00000008104c:	d503201f 	nop
ffff000000081050:	d503201f 	nop
ffff000000081054:	d503201f 	nop
ffff000000081058:	d503201f 	nop
ffff00000008105c:	d503201f 	nop
ffff000000081060:	d503201f 	nop
ffff000000081064:	d503201f 	nop
ffff000000081068:	d503201f 	nop
ffff00000008106c:	d503201f 	nop
ffff000000081070:	d503201f 	nop
ffff000000081074:	d503201f 	nop
ffff000000081078:	d503201f 	nop
ffff00000008107c:	d503201f 	nop
ffff000000081080:	d503201f 	nop
ffff000000081084:	d503201f 	nop
ffff000000081088:	d503201f 	nop
ffff00000008108c:	d503201f 	nop
ffff000000081090:	d503201f 	nop
ffff000000081094:	d503201f 	nop
ffff000000081098:	d503201f 	nop
ffff00000008109c:	d503201f 	nop
ffff0000000810a0:	d503201f 	nop
ffff0000000810a4:	d503201f 	nop
ffff0000000810a8:	d503201f 	nop
ffff0000000810ac:	d503201f 	nop
ffff0000000810b0:	d503201f 	nop
ffff0000000810b4:	d503201f 	nop
ffff0000000810b8:	d503201f 	nop
ffff0000000810bc:	d503201f 	nop
ffff0000000810c0:	d503201f 	nop
ffff0000000810c4:	d503201f 	nop
ffff0000000810c8:	d503201f 	nop
ffff0000000810cc:	d503201f 	nop
ffff0000000810d0:	d503201f 	nop
ffff0000000810d4:	d503201f 	nop
ffff0000000810d8:	d503201f 	nop
ffff0000000810dc:	d503201f 	nop
ffff0000000810e0:	d503201f 	nop
ffff0000000810e4:	d503201f 	nop
ffff0000000810e8:	d503201f 	nop
ffff0000000810ec:	d503201f 	nop
ffff0000000810f0:	d503201f 	nop
ffff0000000810f4:	d503201f 	nop
ffff0000000810f8:	d503201f 	nop
ffff0000000810fc:	d503201f 	nop
ffff000000081100:	d503201f 	nop
ffff000000081104:	d503201f 	nop
ffff000000081108:	d503201f 	nop
ffff00000008110c:	d503201f 	nop
ffff000000081110:	d503201f 	nop
ffff000000081114:	d503201f 	nop
ffff000000081118:	d503201f 	nop
ffff00000008111c:	d503201f 	nop
ffff000000081120:	d503201f 	nop
ffff000000081124:	d503201f 	nop
ffff000000081128:	d503201f 	nop
ffff00000008112c:	d503201f 	nop
ffff000000081130:	d503201f 	nop
ffff000000081134:	d503201f 	nop
ffff000000081138:	d503201f 	nop
ffff00000008113c:	d503201f 	nop
ffff000000081140:	d503201f 	nop
ffff000000081144:	d503201f 	nop
ffff000000081148:	d503201f 	nop
ffff00000008114c:	d503201f 	nop
ffff000000081150:	d503201f 	nop
ffff000000081154:	d503201f 	nop
ffff000000081158:	d503201f 	nop
ffff00000008115c:	d503201f 	nop
ffff000000081160:	d503201f 	nop
ffff000000081164:	d503201f 	nop
ffff000000081168:	d503201f 	nop
ffff00000008116c:	d503201f 	nop
ffff000000081170:	d503201f 	nop
ffff000000081174:	d503201f 	nop
ffff000000081178:	d503201f 	nop
ffff00000008117c:	d503201f 	nop
ffff000000081180:	d503201f 	nop
ffff000000081184:	d503201f 	nop
ffff000000081188:	d503201f 	nop
ffff00000008118c:	d503201f 	nop
ffff000000081190:	d503201f 	nop
ffff000000081194:	d503201f 	nop
ffff000000081198:	d503201f 	nop
ffff00000008119c:	d503201f 	nop
ffff0000000811a0:	d503201f 	nop
ffff0000000811a4:	d503201f 	nop
ffff0000000811a8:	d503201f 	nop
ffff0000000811ac:	d503201f 	nop
ffff0000000811b0:	d503201f 	nop
ffff0000000811b4:	d503201f 	nop
ffff0000000811b8:	d503201f 	nop
ffff0000000811bc:	d503201f 	nop
ffff0000000811c0:	d503201f 	nop
ffff0000000811c4:	d503201f 	nop
ffff0000000811c8:	d503201f 	nop
ffff0000000811cc:	d503201f 	nop
ffff0000000811d0:	d503201f 	nop
ffff0000000811d4:	d503201f 	nop
ffff0000000811d8:	d503201f 	nop
ffff0000000811dc:	d503201f 	nop
ffff0000000811e0:	d503201f 	nop
ffff0000000811e4:	d503201f 	nop
ffff0000000811e8:	d503201f 	nop
ffff0000000811ec:	d503201f 	nop
ffff0000000811f0:	d503201f 	nop
ffff0000000811f4:	d503201f 	nop
ffff0000000811f8:	d503201f 	nop
ffff0000000811fc:	d503201f 	nop
ffff000000081200:	d503201f 	nop
ffff000000081204:	d503201f 	nop
ffff000000081208:	d503201f 	nop
ffff00000008120c:	d503201f 	nop
ffff000000081210:	d503201f 	nop
ffff000000081214:	d503201f 	nop
ffff000000081218:	d503201f 	nop
ffff00000008121c:	d503201f 	nop
ffff000000081220:	d503201f 	nop
ffff000000081224:	d503201f 	nop
ffff000000081228:	d503201f 	nop
ffff00000008122c:	d503201f 	nop
ffff000000081230:	d503201f 	nop
ffff000000081234:	d503201f 	nop
ffff000000081238:	d503201f 	nop
ffff00000008123c:	d503201f 	nop
ffff000000081240:	d503201f 	nop
ffff000000081244:	d503201f 	nop
ffff000000081248:	d503201f 	nop
ffff00000008124c:	d503201f 	nop
ffff000000081250:	d503201f 	nop
ffff000000081254:	d503201f 	nop
ffff000000081258:	d503201f 	nop
ffff00000008125c:	d503201f 	nop
ffff000000081260:	d503201f 	nop
ffff000000081264:	d503201f 	nop
ffff000000081268:	d503201f 	nop
ffff00000008126c:	d503201f 	nop
ffff000000081270:	d503201f 	nop
ffff000000081274:	d503201f 	nop
ffff000000081278:	d503201f 	nop
ffff00000008127c:	d503201f 	nop
ffff000000081280:	d503201f 	nop
ffff000000081284:	d503201f 	nop
ffff000000081288:	d503201f 	nop
ffff00000008128c:	d503201f 	nop
ffff000000081290:	d503201f 	nop
ffff000000081294:	d503201f 	nop
ffff000000081298:	d503201f 	nop
ffff00000008129c:	d503201f 	nop
ffff0000000812a0:	d503201f 	nop
ffff0000000812a4:	d503201f 	nop
ffff0000000812a8:	d503201f 	nop
ffff0000000812ac:	d503201f 	nop
ffff0000000812b0:	d503201f 	nop
ffff0000000812b4:	d503201f 	nop
ffff0000000812b8:	d503201f 	nop
ffff0000000812bc:	d503201f 	nop
ffff0000000812c0:	d503201f 	nop
ffff0000000812c4:	d503201f 	nop
ffff0000000812c8:	d503201f 	nop
ffff0000000812cc:	d503201f 	nop
ffff0000000812d0:	d503201f 	nop
ffff0000000812d4:	d503201f 	nop
ffff0000000812d8:	d503201f 	nop
ffff0000000812dc:	d503201f 	nop
ffff0000000812e0:	d503201f 	nop
ffff0000000812e4:	d503201f 	nop
ffff0000000812e8:	d503201f 	nop
ffff0000000812ec:	d503201f 	nop
ffff0000000812f0:	d503201f 	nop
ffff0000000812f4:	d503201f 	nop
ffff0000000812f8:	d503201f 	nop
ffff0000000812fc:	d503201f 	nop
ffff000000081300:	d503201f 	nop
ffff000000081304:	d503201f 	nop
ffff000000081308:	d503201f 	nop
ffff00000008130c:	d503201f 	nop
ffff000000081310:	d503201f 	nop
ffff000000081314:	d503201f 	nop
ffff000000081318:	d503201f 	nop
ffff00000008131c:	d503201f 	nop
ffff000000081320:	d503201f 	nop
ffff000000081324:	d503201f 	nop
ffff000000081328:	d503201f 	nop
ffff00000008132c:	d503201f 	nop
ffff000000081330:	d503201f 	nop
ffff000000081334:	d503201f 	nop
ffff000000081338:	d503201f 	nop
ffff00000008133c:	d503201f 	nop
ffff000000081340:	d503201f 	nop
ffff000000081344:	d503201f 	nop
ffff000000081348:	d503201f 	nop
ffff00000008134c:	d503201f 	nop
ffff000000081350:	d503201f 	nop
ffff000000081354:	d503201f 	nop
ffff000000081358:	d503201f 	nop
ffff00000008135c:	d503201f 	nop
ffff000000081360:	d503201f 	nop
ffff000000081364:	d503201f 	nop
ffff000000081368:	d503201f 	nop
ffff00000008136c:	d503201f 	nop
ffff000000081370:	d503201f 	nop
ffff000000081374:	d503201f 	nop
ffff000000081378:	d503201f 	nop
ffff00000008137c:	d503201f 	nop
ffff000000081380:	d503201f 	nop
ffff000000081384:	d503201f 	nop
ffff000000081388:	d503201f 	nop
ffff00000008138c:	d503201f 	nop
ffff000000081390:	d503201f 	nop
ffff000000081394:	d503201f 	nop
ffff000000081398:	d503201f 	nop
ffff00000008139c:	d503201f 	nop
ffff0000000813a0:	d503201f 	nop
ffff0000000813a4:	d503201f 	nop
ffff0000000813a8:	d503201f 	nop
ffff0000000813ac:	d503201f 	nop
ffff0000000813b0:	d503201f 	nop
ffff0000000813b4:	d503201f 	nop
ffff0000000813b8:	d503201f 	nop
ffff0000000813bc:	d503201f 	nop
ffff0000000813c0:	d503201f 	nop
ffff0000000813c4:	d503201f 	nop
ffff0000000813c8:	d503201f 	nop
ffff0000000813cc:	d503201f 	nop
ffff0000000813d0:	d503201f 	nop
ffff0000000813d4:	d503201f 	nop
ffff0000000813d8:	d503201f 	nop
ffff0000000813dc:	d503201f 	nop
ffff0000000813e0:	d503201f 	nop
ffff0000000813e4:	d503201f 	nop
ffff0000000813e8:	d503201f 	nop
ffff0000000813ec:	d503201f 	nop
ffff0000000813f0:	d503201f 	nop
ffff0000000813f4:	d503201f 	nop
ffff0000000813f8:	d503201f 	nop
ffff0000000813fc:	d503201f 	nop
ffff000000081400:	d503201f 	nop
ffff000000081404:	d503201f 	nop
ffff000000081408:	d503201f 	nop
ffff00000008140c:	d503201f 	nop
ffff000000081410:	d503201f 	nop
ffff000000081414:	d503201f 	nop
ffff000000081418:	d503201f 	nop
ffff00000008141c:	d503201f 	nop
ffff000000081420:	d503201f 	nop
ffff000000081424:	d503201f 	nop
ffff000000081428:	d503201f 	nop
ffff00000008142c:	d503201f 	nop
ffff000000081430:	d503201f 	nop
ffff000000081434:	d503201f 	nop
ffff000000081438:	d503201f 	nop
ffff00000008143c:	d503201f 	nop
ffff000000081440:	d503201f 	nop
ffff000000081444:	d503201f 	nop
ffff000000081448:	d503201f 	nop
ffff00000008144c:	d503201f 	nop
ffff000000081450:	d503201f 	nop
ffff000000081454:	d503201f 	nop
ffff000000081458:	d503201f 	nop
ffff00000008145c:	d503201f 	nop
ffff000000081460:	d503201f 	nop
ffff000000081464:	d503201f 	nop
ffff000000081468:	d503201f 	nop
ffff00000008146c:	d503201f 	nop
ffff000000081470:	d503201f 	nop
ffff000000081474:	d503201f 	nop
ffff000000081478:	d503201f 	nop
ffff00000008147c:	d503201f 	nop
ffff000000081480:	d503201f 	nop
ffff000000081484:	d503201f 	nop
ffff000000081488:	d503201f 	nop
ffff00000008148c:	d503201f 	nop
ffff000000081490:	d503201f 	nop
ffff000000081494:	d503201f 	nop
ffff000000081498:	d503201f 	nop
ffff00000008149c:	d503201f 	nop
ffff0000000814a0:	d503201f 	nop
ffff0000000814a4:	d503201f 	nop
ffff0000000814a8:	d503201f 	nop
ffff0000000814ac:	d503201f 	nop
ffff0000000814b0:	d503201f 	nop
ffff0000000814b4:	d503201f 	nop
ffff0000000814b8:	d503201f 	nop
ffff0000000814bc:	d503201f 	nop
ffff0000000814c0:	d503201f 	nop
ffff0000000814c4:	d503201f 	nop
ffff0000000814c8:	d503201f 	nop
ffff0000000814cc:	d503201f 	nop
ffff0000000814d0:	d503201f 	nop
ffff0000000814d4:	d503201f 	nop
ffff0000000814d8:	d503201f 	nop
ffff0000000814dc:	d503201f 	nop
ffff0000000814e0:	d503201f 	nop
ffff0000000814e4:	d503201f 	nop
ffff0000000814e8:	d503201f 	nop
ffff0000000814ec:	d503201f 	nop
ffff0000000814f0:	d503201f 	nop
ffff0000000814f4:	d503201f 	nop
ffff0000000814f8:	d503201f 	nop
ffff0000000814fc:	d503201f 	nop
ffff000000081500:	d503201f 	nop
ffff000000081504:	d503201f 	nop
ffff000000081508:	d503201f 	nop
ffff00000008150c:	d503201f 	nop
ffff000000081510:	d503201f 	nop
ffff000000081514:	d503201f 	nop
ffff000000081518:	d503201f 	nop
ffff00000008151c:	d503201f 	nop
ffff000000081520:	d503201f 	nop
ffff000000081524:	d503201f 	nop
ffff000000081528:	d503201f 	nop
ffff00000008152c:	d503201f 	nop
ffff000000081530:	d503201f 	nop
ffff000000081534:	d503201f 	nop
ffff000000081538:	d503201f 	nop
ffff00000008153c:	d503201f 	nop
ffff000000081540:	d503201f 	nop
ffff000000081544:	d503201f 	nop
ffff000000081548:	d503201f 	nop
ffff00000008154c:	d503201f 	nop
ffff000000081550:	d503201f 	nop
ffff000000081554:	d503201f 	nop
ffff000000081558:	d503201f 	nop
ffff00000008155c:	d503201f 	nop
ffff000000081560:	d503201f 	nop
ffff000000081564:	d503201f 	nop
ffff000000081568:	d503201f 	nop
ffff00000008156c:	d503201f 	nop
ffff000000081570:	d503201f 	nop
ffff000000081574:	d503201f 	nop
ffff000000081578:	d503201f 	nop
ffff00000008157c:	d503201f 	nop
ffff000000081580:	d503201f 	nop
ffff000000081584:	d503201f 	nop
ffff000000081588:	d503201f 	nop
ffff00000008158c:	d503201f 	nop
ffff000000081590:	d503201f 	nop
ffff000000081594:	d503201f 	nop
ffff000000081598:	d503201f 	nop
ffff00000008159c:	d503201f 	nop
ffff0000000815a0:	d503201f 	nop
ffff0000000815a4:	d503201f 	nop
ffff0000000815a8:	d503201f 	nop
ffff0000000815ac:	d503201f 	nop
ffff0000000815b0:	d503201f 	nop
ffff0000000815b4:	d503201f 	nop
ffff0000000815b8:	d503201f 	nop
ffff0000000815bc:	d503201f 	nop
ffff0000000815c0:	d503201f 	nop
ffff0000000815c4:	d503201f 	nop
ffff0000000815c8:	d503201f 	nop
ffff0000000815cc:	d503201f 	nop
ffff0000000815d0:	d503201f 	nop
ffff0000000815d4:	d503201f 	nop
ffff0000000815d8:	d503201f 	nop
ffff0000000815dc:	d503201f 	nop
ffff0000000815e0:	d503201f 	nop
ffff0000000815e4:	d503201f 	nop
ffff0000000815e8:	d503201f 	nop
ffff0000000815ec:	d503201f 	nop
ffff0000000815f0:	d503201f 	nop
ffff0000000815f4:	d503201f 	nop
ffff0000000815f8:	d503201f 	nop
ffff0000000815fc:	d503201f 	nop
ffff000000081600:	d503201f 	nop
ffff000000081604:	d503201f 	nop
ffff000000081608:	d503201f 	nop
ffff00000008160c:	d503201f 	nop
ffff000000081610:	d503201f 	nop
ffff000000081614:	d503201f 	nop
ffff000000081618:	d503201f 	nop
ffff00000008161c:	d503201f 	nop
ffff000000081620:	d503201f 	nop
ffff000000081624:	d503201f 	nop
ffff000000081628:	d503201f 	nop
ffff00000008162c:	d503201f 	nop
ffff000000081630:	d503201f 	nop
ffff000000081634:	d503201f 	nop
ffff000000081638:	d503201f 	nop
ffff00000008163c:	d503201f 	nop
ffff000000081640:	d503201f 	nop
ffff000000081644:	d503201f 	nop
ffff000000081648:	d503201f 	nop
ffff00000008164c:	d503201f 	nop
ffff000000081650:	d503201f 	nop
ffff000000081654:	d503201f 	nop
ffff000000081658:	d503201f 	nop
ffff00000008165c:	d503201f 	nop
ffff000000081660:	d503201f 	nop
ffff000000081664:	d503201f 	nop
ffff000000081668:	d503201f 	nop
ffff00000008166c:	d503201f 	nop
ffff000000081670:	d503201f 	nop
ffff000000081674:	d503201f 	nop
ffff000000081678:	d503201f 	nop
ffff00000008167c:	d503201f 	nop
ffff000000081680:	d503201f 	nop
ffff000000081684:	d503201f 	nop
ffff000000081688:	d503201f 	nop
ffff00000008168c:	d503201f 	nop
ffff000000081690:	d503201f 	nop
ffff000000081694:	d503201f 	nop
ffff000000081698:	d503201f 	nop
ffff00000008169c:	d503201f 	nop
ffff0000000816a0:	d503201f 	nop
ffff0000000816a4:	d503201f 	nop
ffff0000000816a8:	d503201f 	nop
ffff0000000816ac:	d503201f 	nop
ffff0000000816b0:	d503201f 	nop
ffff0000000816b4:	d503201f 	nop
ffff0000000816b8:	d503201f 	nop
ffff0000000816bc:	d503201f 	nop
ffff0000000816c0:	d503201f 	nop
ffff0000000816c4:	d503201f 	nop
ffff0000000816c8:	d503201f 	nop
ffff0000000816cc:	d503201f 	nop
ffff0000000816d0:	d503201f 	nop
ffff0000000816d4:	d503201f 	nop
ffff0000000816d8:	d503201f 	nop
ffff0000000816dc:	d503201f 	nop
ffff0000000816e0:	d503201f 	nop
ffff0000000816e4:	d503201f 	nop
ffff0000000816e8:	d503201f 	nop
ffff0000000816ec:	d503201f 	nop
ffff0000000816f0:	d503201f 	nop
ffff0000000816f4:	d503201f 	nop
ffff0000000816f8:	d503201f 	nop
ffff0000000816fc:	d503201f 	nop
ffff000000081700:	d503201f 	nop
ffff000000081704:	d503201f 	nop
ffff000000081708:	d503201f 	nop
ffff00000008170c:	d503201f 	nop
ffff000000081710:	d503201f 	nop
ffff000000081714:	d503201f 	nop
ffff000000081718:	d503201f 	nop
ffff00000008171c:	d503201f 	nop
ffff000000081720:	d503201f 	nop
ffff000000081724:	d503201f 	nop
ffff000000081728:	d503201f 	nop
ffff00000008172c:	d503201f 	nop
ffff000000081730:	d503201f 	nop
ffff000000081734:	d503201f 	nop
ffff000000081738:	d503201f 	nop
ffff00000008173c:	d503201f 	nop
ffff000000081740:	d503201f 	nop
ffff000000081744:	d503201f 	nop
ffff000000081748:	d503201f 	nop
ffff00000008174c:	d503201f 	nop
ffff000000081750:	d503201f 	nop
ffff000000081754:	d503201f 	nop
ffff000000081758:	d503201f 	nop
ffff00000008175c:	d503201f 	nop
ffff000000081760:	d503201f 	nop
ffff000000081764:	d503201f 	nop
ffff000000081768:	d503201f 	nop
ffff00000008176c:	d503201f 	nop
ffff000000081770:	d503201f 	nop
ffff000000081774:	d503201f 	nop
ffff000000081778:	d503201f 	nop
ffff00000008177c:	d503201f 	nop
ffff000000081780:	d503201f 	nop
ffff000000081784:	d503201f 	nop
ffff000000081788:	d503201f 	nop
ffff00000008178c:	d503201f 	nop
ffff000000081790:	d503201f 	nop
ffff000000081794:	d503201f 	nop
ffff000000081798:	d503201f 	nop
ffff00000008179c:	d503201f 	nop
ffff0000000817a0:	d503201f 	nop
ffff0000000817a4:	d503201f 	nop
ffff0000000817a8:	d503201f 	nop
ffff0000000817ac:	d503201f 	nop
ffff0000000817b0:	d503201f 	nop
ffff0000000817b4:	d503201f 	nop
ffff0000000817b8:	d503201f 	nop
ffff0000000817bc:	d503201f 	nop
ffff0000000817c0:	d503201f 	nop
ffff0000000817c4:	d503201f 	nop
ffff0000000817c8:	d503201f 	nop
ffff0000000817cc:	d503201f 	nop
ffff0000000817d0:	d503201f 	nop
ffff0000000817d4:	d503201f 	nop
ffff0000000817d8:	d503201f 	nop
ffff0000000817dc:	d503201f 	nop
ffff0000000817e0:	d503201f 	nop
ffff0000000817e4:	d503201f 	nop
ffff0000000817e8:	d503201f 	nop
ffff0000000817ec:	d503201f 	nop
ffff0000000817f0:	d503201f 	nop
ffff0000000817f4:	d503201f 	nop
ffff0000000817f8:	d503201f 	nop
ffff0000000817fc:	d503201f 	nop

ffff000000081800 <__vectors2>:
ffff000000081800:	140000e1 	b	ffff000000081b84 <sync_currentEL_spelx_EL2>
ffff000000081804:	d503201f 	nop
ffff000000081808:	d503201f 	nop
ffff00000008180c:	d503201f 	nop
ffff000000081810:	d503201f 	nop
ffff000000081814:	d503201f 	nop
ffff000000081818:	d503201f 	nop
ffff00000008181c:	d503201f 	nop
ffff000000081820:	d503201f 	nop
ffff000000081824:	d503201f 	nop
ffff000000081828:	d503201f 	nop
ffff00000008182c:	d503201f 	nop
ffff000000081830:	d503201f 	nop
ffff000000081834:	d503201f 	nop
ffff000000081838:	d503201f 	nop
ffff00000008183c:	d503201f 	nop
ffff000000081840:	d503201f 	nop
ffff000000081844:	d503201f 	nop
ffff000000081848:	d503201f 	nop
ffff00000008184c:	d503201f 	nop
ffff000000081850:	d503201f 	nop
ffff000000081854:	d503201f 	nop
ffff000000081858:	d503201f 	nop
ffff00000008185c:	d503201f 	nop
ffff000000081860:	d503201f 	nop
ffff000000081864:	d503201f 	nop
ffff000000081868:	d503201f 	nop
ffff00000008186c:	d503201f 	nop
ffff000000081870:	d503201f 	nop
ffff000000081874:	d503201f 	nop
ffff000000081878:	d503201f 	nop
ffff00000008187c:	d503201f 	nop
ffff000000081880:	140000c1 	b	ffff000000081b84 <sync_currentEL_spelx_EL2>
ffff000000081884:	d503201f 	nop
ffff000000081888:	d503201f 	nop
ffff00000008188c:	d503201f 	nop
ffff000000081890:	d503201f 	nop
ffff000000081894:	d503201f 	nop
ffff000000081898:	d503201f 	nop
ffff00000008189c:	d503201f 	nop
ffff0000000818a0:	d503201f 	nop
ffff0000000818a4:	d503201f 	nop
ffff0000000818a8:	d503201f 	nop
ffff0000000818ac:	d503201f 	nop
ffff0000000818b0:	d503201f 	nop
ffff0000000818b4:	d503201f 	nop
ffff0000000818b8:	d503201f 	nop
ffff0000000818bc:	d503201f 	nop
ffff0000000818c0:	d503201f 	nop
ffff0000000818c4:	d503201f 	nop
ffff0000000818c8:	d503201f 	nop
ffff0000000818cc:	d503201f 	nop
ffff0000000818d0:	d503201f 	nop
ffff0000000818d4:	d503201f 	nop
ffff0000000818d8:	d503201f 	nop
ffff0000000818dc:	d503201f 	nop
ffff0000000818e0:	d503201f 	nop
ffff0000000818e4:	d503201f 	nop
ffff0000000818e8:	d503201f 	nop
ffff0000000818ec:	d503201f 	nop
ffff0000000818f0:	d503201f 	nop
ffff0000000818f4:	d503201f 	nop
ffff0000000818f8:	d503201f 	nop
ffff0000000818fc:	d503201f 	nop
ffff000000081900:	140000a1 	b	ffff000000081b84 <sync_currentEL_spelx_EL2>
ffff000000081904:	d503201f 	nop
ffff000000081908:	d503201f 	nop
ffff00000008190c:	d503201f 	nop
ffff000000081910:	d503201f 	nop
ffff000000081914:	d503201f 	nop
ffff000000081918:	d503201f 	nop
ffff00000008191c:	d503201f 	nop
ffff000000081920:	d503201f 	nop
ffff000000081924:	d503201f 	nop
ffff000000081928:	d503201f 	nop
ffff00000008192c:	d503201f 	nop
ffff000000081930:	d503201f 	nop
ffff000000081934:	d503201f 	nop
ffff000000081938:	d503201f 	nop
ffff00000008193c:	d503201f 	nop
ffff000000081940:	d503201f 	nop
ffff000000081944:	d503201f 	nop
ffff000000081948:	d503201f 	nop
ffff00000008194c:	d503201f 	nop
ffff000000081950:	d503201f 	nop
ffff000000081954:	d503201f 	nop
ffff000000081958:	d503201f 	nop
ffff00000008195c:	d503201f 	nop
ffff000000081960:	d503201f 	nop
ffff000000081964:	d503201f 	nop
ffff000000081968:	d503201f 	nop
ffff00000008196c:	d503201f 	nop
ffff000000081970:	d503201f 	nop
ffff000000081974:	d503201f 	nop
ffff000000081978:	d503201f 	nop
ffff00000008197c:	d503201f 	nop
ffff000000081980:	14000081 	b	ffff000000081b84 <sync_currentEL_spelx_EL2>
ffff000000081984:	d503201f 	nop
ffff000000081988:	d503201f 	nop
ffff00000008198c:	d503201f 	nop
ffff000000081990:	d503201f 	nop
ffff000000081994:	d503201f 	nop
ffff000000081998:	d503201f 	nop
ffff00000008199c:	d503201f 	nop
ffff0000000819a0:	d503201f 	nop
ffff0000000819a4:	d503201f 	nop
ffff0000000819a8:	d503201f 	nop
ffff0000000819ac:	d503201f 	nop
ffff0000000819b0:	d503201f 	nop
ffff0000000819b4:	d503201f 	nop
ffff0000000819b8:	d503201f 	nop
ffff0000000819bc:	d503201f 	nop
ffff0000000819c0:	d503201f 	nop
ffff0000000819c4:	d503201f 	nop
ffff0000000819c8:	d503201f 	nop
ffff0000000819cc:	d503201f 	nop
ffff0000000819d0:	d503201f 	nop
ffff0000000819d4:	d503201f 	nop
ffff0000000819d8:	d503201f 	nop
ffff0000000819dc:	d503201f 	nop
ffff0000000819e0:	d503201f 	nop
ffff0000000819e4:	d503201f 	nop
ffff0000000819e8:	d503201f 	nop
ffff0000000819ec:	d503201f 	nop
ffff0000000819f0:	d503201f 	nop
ffff0000000819f4:	d503201f 	nop
ffff0000000819f8:	d503201f 	nop
ffff0000000819fc:	d503201f 	nop
ffff000000081a00:	14000061 	b	ffff000000081b84 <sync_currentEL_spelx_EL2>
ffff000000081a04:	d503201f 	nop
ffff000000081a08:	d503201f 	nop
ffff000000081a0c:	d503201f 	nop
ffff000000081a10:	d503201f 	nop
ffff000000081a14:	d503201f 	nop
ffff000000081a18:	d503201f 	nop
ffff000000081a1c:	d503201f 	nop
ffff000000081a20:	d503201f 	nop
ffff000000081a24:	d503201f 	nop
ffff000000081a28:	d503201f 	nop
ffff000000081a2c:	d503201f 	nop
ffff000000081a30:	d503201f 	nop
ffff000000081a34:	d503201f 	nop
ffff000000081a38:	d503201f 	nop
ffff000000081a3c:	d503201f 	nop
ffff000000081a40:	d503201f 	nop
ffff000000081a44:	d503201f 	nop
ffff000000081a48:	d503201f 	nop
ffff000000081a4c:	d503201f 	nop
ffff000000081a50:	d503201f 	nop
ffff000000081a54:	d503201f 	nop
ffff000000081a58:	d503201f 	nop
ffff000000081a5c:	d503201f 	nop
ffff000000081a60:	d503201f 	nop
ffff000000081a64:	d503201f 	nop
ffff000000081a68:	d503201f 	nop
ffff000000081a6c:	d503201f 	nop
ffff000000081a70:	d503201f 	nop
ffff000000081a74:	d503201f 	nop
ffff000000081a78:	d503201f 	nop
ffff000000081a7c:	d503201f 	nop
ffff000000081a80:	1400006c 	b	ffff000000081c30 <irq_currentEL_spelx_EL2>
ffff000000081a84:	d503201f 	nop
ffff000000081a88:	d503201f 	nop
ffff000000081a8c:	d503201f 	nop
ffff000000081a90:	d503201f 	nop
ffff000000081a94:	d503201f 	nop
ffff000000081a98:	d503201f 	nop
ffff000000081a9c:	d503201f 	nop
ffff000000081aa0:	d503201f 	nop
ffff000000081aa4:	d503201f 	nop
ffff000000081aa8:	d503201f 	nop
ffff000000081aac:	d503201f 	nop
ffff000000081ab0:	d503201f 	nop
ffff000000081ab4:	d503201f 	nop
ffff000000081ab8:	d503201f 	nop
ffff000000081abc:	d503201f 	nop
ffff000000081ac0:	d503201f 	nop
ffff000000081ac4:	d503201f 	nop
ffff000000081ac8:	d503201f 	nop
ffff000000081acc:	d503201f 	nop
ffff000000081ad0:	d503201f 	nop
ffff000000081ad4:	d503201f 	nop
ffff000000081ad8:	d503201f 	nop
ffff000000081adc:	d503201f 	nop
ffff000000081ae0:	d503201f 	nop
ffff000000081ae4:	d503201f 	nop
ffff000000081ae8:	d503201f 	nop
ffff000000081aec:	d503201f 	nop
ffff000000081af0:	d503201f 	nop
ffff000000081af4:	d503201f 	nop
ffff000000081af8:	d503201f 	nop
ffff000000081afc:	d503201f 	nop
ffff000000081b00:	14000021 	b	ffff000000081b84 <sync_currentEL_spelx_EL2>
ffff000000081b04:	d503201f 	nop
ffff000000081b08:	d503201f 	nop
ffff000000081b0c:	d503201f 	nop
ffff000000081b10:	d503201f 	nop
ffff000000081b14:	d503201f 	nop
ffff000000081b18:	d503201f 	nop
ffff000000081b1c:	d503201f 	nop
ffff000000081b20:	d503201f 	nop
ffff000000081b24:	d503201f 	nop
ffff000000081b28:	d503201f 	nop
ffff000000081b2c:	d503201f 	nop
ffff000000081b30:	d503201f 	nop
ffff000000081b34:	d503201f 	nop
ffff000000081b38:	d503201f 	nop
ffff000000081b3c:	d503201f 	nop
ffff000000081b40:	d503201f 	nop
ffff000000081b44:	d503201f 	nop
ffff000000081b48:	d503201f 	nop
ffff000000081b4c:	d503201f 	nop
ffff000000081b50:	d503201f 	nop
ffff000000081b54:	d503201f 	nop
ffff000000081b58:	d503201f 	nop
ffff000000081b5c:	d503201f 	nop
ffff000000081b60:	d503201f 	nop
ffff000000081b64:	d503201f 	nop
ffff000000081b68:	d503201f 	nop
ffff000000081b6c:	d503201f 	nop
ffff000000081b70:	d503201f 	nop
ffff000000081b74:	d503201f 	nop
ffff000000081b78:	d503201f 	nop
ffff000000081b7c:	d503201f 	nop
ffff000000081b80:	14000057 	b	ffff000000081cdc <sError_currentEL_spelx_EL2>

ffff000000081b84 <sync_currentEL_spelx_EL2>:
ffff000000081b84:	a94007e0 	ldp	x0, x1, [sp]
ffff000000081b88:	d538d080 	mrs	x0, tpidr_el1
ffff000000081b8c:	91018000 	add	x0, x0, #0x60
ffff000000081b90:	f9400000 	ldr	x0, [x0]
ffff000000081b94:	910003e1 	mov	x1, sp
ffff000000081b98:	9100001f 	mov	sp, x0
ffff000000081b9c:	a9000420 	stp	x0, x1, [x1]
ffff000000081ba0:	d10403ff 	sub	sp, sp, #0x100
ffff000000081ba4:	a90007e0 	stp	x0, x1, [sp]
ffff000000081ba8:	a9010fe2 	stp	x2, x3, [sp, #16]
ffff000000081bac:	a90217e4 	stp	x4, x5, [sp, #32]
ffff000000081bb0:	a9031fe6 	stp	x6, x7, [sp, #48]
ffff000000081bb4:	a90427e8 	stp	x8, x9, [sp, #64]
ffff000000081bb8:	a9052fea 	stp	x10, x11, [sp, #80]
ffff000000081bbc:	a90637ec 	stp	x12, x13, [sp, #96]
ffff000000081bc0:	a9073fee 	stp	x14, x15, [sp, #112]
ffff000000081bc4:	a90847f0 	stp	x16, x17, [sp, #128]
ffff000000081bc8:	a9094ff2 	stp	x18, x19, [sp, #144]
ffff000000081bcc:	a90a57f4 	stp	x20, x21, [sp, #160]
ffff000000081bd0:	a90b5ff6 	stp	x22, x23, [sp, #176]
ffff000000081bd4:	a90c67f8 	stp	x24, x25, [sp, #192]
ffff000000081bd8:	a90d6ffa 	stp	x26, x27, [sp, #208]
ffff000000081bdc:	a90e77fc 	stp	x28, x29, [sp, #224]
ffff000000081be0:	f9007bfe 	str	x30, [sp, #240]
ffff000000081be4:	94000433 	bl	ffff000000082cb0 <sync_exc2_handler>
ffff000000081be8:	a94007e0 	ldp	x0, x1, [sp]
ffff000000081bec:	a9410fe2 	ldp	x2, x3, [sp, #16]
ffff000000081bf0:	a94217e4 	ldp	x4, x5, [sp, #32]
ffff000000081bf4:	a9431fe6 	ldp	x6, x7, [sp, #48]
ffff000000081bf8:	a94427e8 	ldp	x8, x9, [sp, #64]
ffff000000081bfc:	a9452fea 	ldp	x10, x11, [sp, #80]
ffff000000081c00:	a94637ec 	ldp	x12, x13, [sp, #96]
ffff000000081c04:	a9473fee 	ldp	x14, x15, [sp, #112]
ffff000000081c08:	a94847f0 	ldp	x16, x17, [sp, #128]
ffff000000081c0c:	a9494ff2 	ldp	x18, x19, [sp, #144]
ffff000000081c10:	a94a57f4 	ldp	x20, x21, [sp, #160]
ffff000000081c14:	a94b5ff6 	ldp	x22, x23, [sp, #176]
ffff000000081c18:	a94c67f8 	ldp	x24, x25, [sp, #192]
ffff000000081c1c:	a94d6ffa 	ldp	x26, x27, [sp, #208]
ffff000000081c20:	a94e77fc 	ldp	x28, x29, [sp, #224]
ffff000000081c24:	f9407bfe 	ldr	x30, [sp, #240]
ffff000000081c28:	910403ff 	add	sp, sp, #0x100
ffff000000081c2c:	d69f03e0 	eret

ffff000000081c30 <irq_currentEL_spelx_EL2>:
ffff000000081c30:	a94007e0 	ldp	x0, x1, [sp]
ffff000000081c34:	d538d080 	mrs	x0, tpidr_el1
ffff000000081c38:	91018000 	add	x0, x0, #0x60
ffff000000081c3c:	f9400000 	ldr	x0, [x0]
ffff000000081c40:	910003e1 	mov	x1, sp
ffff000000081c44:	9100001f 	mov	sp, x0
ffff000000081c48:	a9000420 	stp	x0, x1, [x1]
ffff000000081c4c:	d10403ff 	sub	sp, sp, #0x100
ffff000000081c50:	a90007e0 	stp	x0, x1, [sp]
ffff000000081c54:	a9010fe2 	stp	x2, x3, [sp, #16]
ffff000000081c58:	a90217e4 	stp	x4, x5, [sp, #32]
ffff000000081c5c:	a9031fe6 	stp	x6, x7, [sp, #48]
ffff000000081c60:	a90427e8 	stp	x8, x9, [sp, #64]
ffff000000081c64:	a9052fea 	stp	x10, x11, [sp, #80]
ffff000000081c68:	a90637ec 	stp	x12, x13, [sp, #96]
ffff000000081c6c:	a9073fee 	stp	x14, x15, [sp, #112]
ffff000000081c70:	a90847f0 	stp	x16, x17, [sp, #128]
ffff000000081c74:	a9094ff2 	stp	x18, x19, [sp, #144]
ffff000000081c78:	a90a57f4 	stp	x20, x21, [sp, #160]
ffff000000081c7c:	a90b5ff6 	stp	x22, x23, [sp, #176]
ffff000000081c80:	a90c67f8 	stp	x24, x25, [sp, #192]
ffff000000081c84:	a90d6ffa 	stp	x26, x27, [sp, #208]
ffff000000081c88:	a90e77fc 	stp	x28, x29, [sp, #224]
ffff000000081c8c:	f9007bfe 	str	x30, [sp, #240]
ffff000000081c90:	94000412 	bl	ffff000000082cd8 <irq_exc_handler>
ffff000000081c94:	a94007e0 	ldp	x0, x1, [sp]
ffff000000081c98:	a9410fe2 	ldp	x2, x3, [sp, #16]
ffff000000081c9c:	a94217e4 	ldp	x4, x5, [sp, #32]
ffff000000081ca0:	a9431fe6 	ldp	x6, x7, [sp, #48]
ffff000000081ca4:	a94427e8 	ldp	x8, x9, [sp, #64]
ffff000000081ca8:	a9452fea 	ldp	x10, x11, [sp, #80]
ffff000000081cac:	a94637ec 	ldp	x12, x13, [sp, #96]
ffff000000081cb0:	a9473fee 	ldp	x14, x15, [sp, #112]
ffff000000081cb4:	a94847f0 	ldp	x16, x17, [sp, #128]
ffff000000081cb8:	a9494ff2 	ldp	x18, x19, [sp, #144]
ffff000000081cbc:	a94a57f4 	ldp	x20, x21, [sp, #160]
ffff000000081cc0:	a94b5ff6 	ldp	x22, x23, [sp, #176]
ffff000000081cc4:	a94c67f8 	ldp	x24, x25, [sp, #192]
ffff000000081cc8:	a94d6ffa 	ldp	x26, x27, [sp, #208]
ffff000000081ccc:	a94e77fc 	ldp	x28, x29, [sp, #224]
ffff000000081cd0:	f9407bfe 	ldr	x30, [sp, #240]
ffff000000081cd4:	910403ff 	add	sp, sp, #0x100
ffff000000081cd8:	d69f03e0 	eret

ffff000000081cdc <sError_currentEL_spelx_EL2>:
ffff000000081cdc:	a94007e0 	ldp	x0, x1, [sp]
ffff000000081ce0:	d538d080 	mrs	x0, tpidr_el1
ffff000000081ce4:	91018000 	add	x0, x0, #0x60
ffff000000081ce8:	f9400000 	ldr	x0, [x0]
ffff000000081cec:	910003e1 	mov	x1, sp
ffff000000081cf0:	9100001f 	mov	sp, x0
ffff000000081cf4:	a9000420 	stp	x0, x1, [x1]
ffff000000081cf8:	d10403ff 	sub	sp, sp, #0x100
ffff000000081cfc:	a90007e0 	stp	x0, x1, [sp]
ffff000000081d00:	a9010fe2 	stp	x2, x3, [sp, #16]
ffff000000081d04:	a90217e4 	stp	x4, x5, [sp, #32]
ffff000000081d08:	a9031fe6 	stp	x6, x7, [sp, #48]
ffff000000081d0c:	a90427e8 	stp	x8, x9, [sp, #64]
ffff000000081d10:	a9052fea 	stp	x10, x11, [sp, #80]
ffff000000081d14:	a90637ec 	stp	x12, x13, [sp, #96]
ffff000000081d18:	a9073fee 	stp	x14, x15, [sp, #112]
ffff000000081d1c:	a90847f0 	stp	x16, x17, [sp, #128]
ffff000000081d20:	a9094ff2 	stp	x18, x19, [sp, #144]
ffff000000081d24:	a90a57f4 	stp	x20, x21, [sp, #160]
ffff000000081d28:	a90b5ff6 	stp	x22, x23, [sp, #176]
ffff000000081d2c:	a90c67f8 	stp	x24, x25, [sp, #192]
ffff000000081d30:	a90d6ffa 	stp	x26, x27, [sp, #208]
ffff000000081d34:	a90e77fc 	stp	x28, x29, [sp, #224]
ffff000000081d38:	f9007bfe 	str	x30, [sp, #240]
ffff000000081d3c:	940003f7 	bl	ffff000000082d18 <SError_handler>
ffff000000081d40:	a94007e0 	ldp	x0, x1, [sp]
ffff000000081d44:	a9410fe2 	ldp	x2, x3, [sp, #16]
ffff000000081d48:	a94217e4 	ldp	x4, x5, [sp, #32]
ffff000000081d4c:	a9431fe6 	ldp	x6, x7, [sp, #48]
ffff000000081d50:	a94427e8 	ldp	x8, x9, [sp, #64]
ffff000000081d54:	a9452fea 	ldp	x10, x11, [sp, #80]
ffff000000081d58:	a94637ec 	ldp	x12, x13, [sp, #96]
ffff000000081d5c:	a9473fee 	ldp	x14, x15, [sp, #112]
ffff000000081d60:	a94847f0 	ldp	x16, x17, [sp, #128]
ffff000000081d64:	a9494ff2 	ldp	x18, x19, [sp, #144]
ffff000000081d68:	a94a57f4 	ldp	x20, x21, [sp, #160]
ffff000000081d6c:	a94b5ff6 	ldp	x22, x23, [sp, #176]
ffff000000081d70:	a94c67f8 	ldp	x24, x25, [sp, #192]
ffff000000081d74:	a94d6ffa 	ldp	x26, x27, [sp, #208]
ffff000000081d78:	a94e77fc 	ldp	x28, x29, [sp, #224]
ffff000000081d7c:	f9407bfe 	ldr	x30, [sp, #240]
ffff000000081d80:	910403ff 	add	sp, sp, #0x100
ffff000000081d84:	d69f03e0 	eret

ffff000000081d88 <mmu_init>:
ffff000000081d88:	58000280 	ldr	x0, ffff000000081dd8 <mmu_init+0x50>
ffff000000081d8c:	d5182040 	msr	tcr_el1, x0
ffff000000081d90:	58000280 	ldr	x0, ffff000000081de0 <mmu_init+0x58>
ffff000000081d94:	d518a200 	msr	mair_el1, x0
ffff000000081d98:	58429340 	ldr	x0, ffff000000107000 <_kernel_end>
ffff000000081d9c:	91400401 	add	x1, x0, #0x1, lsl #12
ffff000000081da0:	58000242 	ldr	x2, ffff000000081de8 <mmu_init+0x60>
ffff000000081da4:	aa020022 	orr	x2, x1, x2
ffff000000081da8:	f9000002 	str	x2, [x0]
ffff000000081dac:	58000222 	ldr	x2, ffff000000081df0 <mmu_init+0x68>
ffff000000081db0:	d2800003 	mov	x3, #0x0                   	// #0
ffff000000081db4:	aa030043 	orr	x3, x2, x3
ffff000000081db8:	f9000023 	str	x3, [x1]
ffff000000081dbc:	d2a80003 	mov	x3, #0x40000000            	// #1073741824
ffff000000081dc0:	aa030043 	orr	x3, x2, x3
ffff000000081dc4:	f9000423 	str	x3, [x1, #8]
ffff000000081dc8:	d5182000 	msr	ttbr0_el1, x0
ffff000000081dcc:	d5182020 	msr	ttbr1_el1, x0
ffff000000081dd0:	d65f03c0 	ret
ffff000000081dd4:	00000000 	.inst	0x00000000 ; undefined
ffff000000081dd8:	80100010 	.word	0x80100010
ffff000000081ddc:	00000000 	.word	0x00000000
ffff000000081de0:	00004400 	.word	0x00004400
ffff000000081de4:	00000000 	.word	0x00000000
ffff000000081de8:	00000003 	.word	0x00000003
ffff000000081dec:	00000000 	.word	0x00000000
ffff000000081df0:	00000401 	.word	0x00000401
ffff000000081df4:	00000000 	.word	0x00000000

ffff000000081df8 <enable_interrupt>:
ffff000000081df8:	d5034fff 	msr	daifclr, #0xf
ffff000000081dfc:	d65f03c0 	ret

ffff000000081e00 <disable_interrupt>:
ffff000000081e00:	d5034fdf 	msr	daifset, #0xf
ffff000000081e04:	d65f03c0 	ret

ffff000000081e08 <enable_EL0_interrupt>:
ffff000000081e08:	d5384000 	mrs	x0, spsr_el1
ffff000000081e0c:	58000661 	ldr	x1, ffff000000081ed8 <exit+0x10>
ffff000000081e10:	8a010000 	and	x0, x0, x1
ffff000000081e14:	d5184000 	msr	spsr_el1, x0
ffff000000081e18:	d65f03c0 	ret

ffff000000081e1c <disable_EL0_interrupt>:
ffff000000081e1c:	d5384000 	mrs	x0, spsr_el1
ffff000000081e20:	58000601 	ldr	x1, ffff000000081ee0 <exit+0x18>
ffff000000081e24:	aa010000 	orr	x0, x0, x1
ffff000000081e28:	d5184000 	msr	spsr_el1, x0
ffff000000081e2c:	d65f03c0 	ret

ffff000000081e30 <brk_instr>:
ffff000000081e30:	d4200020 	brk	#0x1
ffff000000081e34:	d65f03c0 	ret

ffff000000081e38 <get_sync_exc_param_el1>:
ffff000000081e38:	d5385209 	mrs	x9, esr_el1
ffff000000081e3c:	d538402a 	mrs	x10, elr_el1
ffff000000081e40:	f9000009 	str	x9, [x0]
ffff000000081e44:	f900002a 	str	x10, [x1]
ffff000000081e48:	d65f03c0 	ret

ffff000000081e4c <get_sync_exc_param_el2>:
ffff000000081e4c:	d53c5209 	mrs	x9, esr_el2
ffff000000081e50:	d53c402a 	mrs	x10, elr_el2
ffff000000081e54:	f9000009 	str	x9, [x0]
ffff000000081e58:	f900002a 	str	x10, [x1]
ffff000000081e5c:	d65f03c0 	ret

ffff000000081e60 <sleep>:
ffff000000081e60:	58000440 	ldr	x0, ffff000000081ee8 <exit+0x20>

ffff000000081e64 <loop>:
ffff000000081e64:	d1000400 	sub	x0, x0, #0x1
ffff000000081e68:	b5ffffe0 	cbnz	x0, ffff000000081e64 <loop>
ffff000000081e6c:	d65f03c0 	ret

ffff000000081e70 <get_taskId>:
ffff000000081e70:	d2800008 	mov	x8, #0x0                   	// #0
ffff000000081e74:	d4000001 	svc	#0x0
ffff000000081e78:	d65f03c0 	ret

ffff000000081e7c <sched_yield>:
ffff000000081e7c:	d2800028 	mov	x8, #0x1                   	// #1
ffff000000081e80:	d4000001 	svc	#0x0
ffff000000081e84:	d65f03c0 	ret

ffff000000081e88 <uart_write>:
ffff000000081e88:	d2800048 	mov	x8, #0x2                   	// #2
ffff000000081e8c:	aa0003e9 	mov	x9, x0
ffff000000081e90:	d4000001 	svc	#0x0
ffff000000081e94:	d65f03c0 	ret

ffff000000081e98 <uart_read>:
ffff000000081e98:	d2800068 	mov	x8, #0x3                   	// #3
ffff000000081e9c:	aa0003e9 	mov	x9, x0
ffff000000081ea0:	aa0103ea 	mov	x10, x1
ffff000000081ea4:	d4000001 	svc	#0x0
ffff000000081ea8:	d65f03c0 	ret

ffff000000081eac <exec>:
ffff000000081eac:	d2800088 	mov	x8, #0x4                   	// #4
ffff000000081eb0:	aa0003e9 	mov	x9, x0
ffff000000081eb4:	d4000001 	svc	#0x0
ffff000000081eb8:	d65f03c0 	ret

ffff000000081ebc <fork>:
ffff000000081ebc:	d28000a8 	mov	x8, #0x5                   	// #5
ffff000000081ec0:	d4000001 	svc	#0x0
ffff000000081ec4:	d65f03c0 	ret

ffff000000081ec8 <exit>:
ffff000000081ec8:	d28000c8 	mov	x8, #0x6                   	// #6
ffff000000081ecc:	aa0003e9 	mov	x9, x0
ffff000000081ed0:	d4000001 	svc	#0x0
ffff000000081ed4:	d65f03c0 	ret
ffff000000081ed8:	0000fc3f 	.word	0x0000fc3f
ffff000000081edc:	00000000 	.word	0x00000000
ffff000000081ee0:	000003c0 	.word	0x000003c0
ffff000000081ee4:	00000000 	.word	0x00000000
ffff000000081ee8:	01ffffff 	.word	0x01ffffff
ffff000000081eec:	00000000 	.word	0x00000000

ffff000000081ef0 <switch_to>:
ffff000000081ef0:	a9005013 	stp	x19, x20, [x0]
ffff000000081ef4:	a9015815 	stp	x21, x22, [x0, #16]
ffff000000081ef8:	a9026017 	stp	x23, x24, [x0, #32]
ffff000000081efc:	a9036819 	stp	x25, x26, [x0, #48]
ffff000000081f00:	a904701b 	stp	x27, x28, [x0, #64]
ffff000000081f04:	a905781d 	stp	x29, x30, [x0, #80]
ffff000000081f08:	910003e9 	mov	x9, sp
ffff000000081f0c:	f9003009 	str	x9, [x0, #96]
ffff000000081f10:	a9405033 	ldp	x19, x20, [x1]
ffff000000081f14:	a9415835 	ldp	x21, x22, [x1, #16]
ffff000000081f18:	a9426037 	ldp	x23, x24, [x1, #32]
ffff000000081f1c:	a9436839 	ldp	x25, x26, [x1, #48]
ffff000000081f20:	a944703b 	ldp	x27, x28, [x1, #64]
ffff000000081f24:	a945783d 	ldp	x29, x30, [x1, #80]
ffff000000081f28:	f9403029 	ldr	x9, [x1, #96]
ffff000000081f2c:	9100013f 	mov	sp, x9
ffff000000081f30:	d65f03c0 	ret

ffff000000081f34 <get_cur_task>:
ffff000000081f34:	d538d080 	mrs	x0, tpidr_el1
ffff000000081f38:	d65f03c0 	ret

ffff000000081f3c <set_cur_task>:
ffff000000081f3c:	d518d080 	msr	tpidr_el1, x0
ffff000000081f40:	d65f03c0 	ret

ffff000000081f44 <go_to>:
ffff000000081f44:	d518d080 	msr	tpidr_el1, x0
ffff000000081f48:	a945781d 	ldp	x29, x30, [x0, #80]
ffff000000081f4c:	f9403009 	ldr	x9, [x0, #96]
ffff000000081f50:	9100013f 	mov	sp, x9
ffff000000081f54:	d65f03c0 	ret

ffff000000081f58 <store_umode_lr_sp>:
ffff000000081f58:	d5384029 	mrs	x9, elr_el1
ffff000000081f5c:	d538410a 	mrs	x10, sp_el0
ffff000000081f60:	f9000009 	str	x9, [x0]
ffff000000081f64:	f900002a 	str	x10, [x1]
ffff000000081f68:	d65f03c0 	ret

ffff000000081f6c <restore_umode_lr_sp>:
ffff000000081f6c:	d5184020 	msr	elr_el1, x0
ffff000000081f70:	d5184101 	msr	sp_el0, x1
ffff000000081f74:	d65f03c0 	ret

ffff000000081f78 <restore_all_reg>:
ffff000000081f78:	a94007e0 	ldp	x0, x1, [sp]
ffff000000081f7c:	a9410fe2 	ldp	x2, x3, [sp, #16]
ffff000000081f80:	a94217e4 	ldp	x4, x5, [sp, #32]
ffff000000081f84:	a9431fe6 	ldp	x6, x7, [sp, #48]
ffff000000081f88:	a94427e8 	ldp	x8, x9, [sp, #64]
ffff000000081f8c:	a9452fea 	ldp	x10, x11, [sp, #80]
ffff000000081f90:	a94637ec 	ldp	x12, x13, [sp, #96]
ffff000000081f94:	a9473fee 	ldp	x14, x15, [sp, #112]
ffff000000081f98:	a94847f0 	ldp	x16, x17, [sp, #128]
ffff000000081f9c:	a9494ff2 	ldp	x18, x19, [sp, #144]
ffff000000081fa0:	a94a57f4 	ldp	x20, x21, [sp, #160]
ffff000000081fa4:	a94b5ff6 	ldp	x22, x23, [sp, #176]
ffff000000081fa8:	a94c67f8 	ldp	x24, x25, [sp, #192]
ffff000000081fac:	a94d6ffa 	ldp	x26, x27, [sp, #208]
ffff000000081fb0:	a94e77fc 	ldp	x28, x29, [sp, #224]
ffff000000081fb4:	f9407bfe 	ldr	x30, [sp, #240]
ffff000000081fb8:	910403ff 	add	sp, sp, #0x100
ffff000000081fbc:	d69f03e0 	eret

ffff000000081fc0 <uart_init>:
ffff000000081fc0:	d28a0081 	mov	x1, #0x5004                	// #20484
ffff000000081fc4:	d28a0c04 	mov	x4, #0x5060                	// #20576
ffff000000081fc8:	f2a7e421 	movk	x1, #0x3f21, lsl #16
ffff000000081fcc:	f2a7e424 	movk	x4, #0x3f21, lsl #16
ffff000000081fd0:	f2ffffe1 	movk	x1, #0xffff, lsl #48
ffff000000081fd4:	d28a0986 	mov	x6, #0x504c                	// #20556
ffff000000081fd8:	f2ffffe4 	movk	x4, #0xffff, lsl #48
ffff000000081fdc:	f2a7e426 	movk	x6, #0x3f21, lsl #16
ffff000000081fe0:	b9400020 	ldr	w0, [x1]
ffff000000081fe4:	d28a0a05 	mov	x5, #0x5050                	// #20560
ffff000000081fe8:	f2ffffe6 	movk	x6, #0xffff, lsl #48
ffff000000081fec:	f2a7e425 	movk	x5, #0x3f21, lsl #16
ffff000000081ff0:	32000000 	orr	w0, w0, #0x1
ffff000000081ff4:	d28a0882 	mov	x2, #0x5044                	// #20548
ffff000000081ff8:	b9000020 	str	w0, [x1]
ffff000000081ffc:	f2ffffe5 	movk	x5, #0xffff, lsl #48
ffff000000082000:	b900009f 	str	wzr, [x4]
ffff000000082004:	f2a7e422 	movk	x2, #0x3f21, lsl #16
ffff000000082008:	d28a0903 	mov	x3, #0x5048                	// #20552
ffff00000008200c:	f2ffffe2 	movk	x2, #0xffff, lsl #48
ffff000000082010:	52800067 	mov	w7, #0x3                   	// #3
ffff000000082014:	f2a7e423 	movk	x3, #0x3f21, lsl #16
ffff000000082018:	b90000c7 	str	w7, [x6]
ffff00000008201c:	d28a0d00 	mov	x0, #0x5068                	// #20584
ffff000000082020:	b90000bf 	str	wzr, [x5]
ffff000000082024:	f2ffffe3 	movk	x3, #0xffff, lsl #48
ffff000000082028:	f2a7e420 	movk	x0, #0x3f21, lsl #16
ffff00000008202c:	52801fe4 	mov	w4, #0xff                  	// #255
ffff000000082030:	f2ffffe0 	movk	x0, #0xffff, lsl #48
ffff000000082034:	b9000044 	str	w4, [x2]
ffff000000082038:	d2800082 	mov	x2, #0x4                   	// #4
ffff00000008203c:	528018c1 	mov	w1, #0xc6                  	// #198
ffff000000082040:	f2a7e402 	movk	x2, #0x3f20, lsl #16
ffff000000082044:	b9000061 	str	w1, [x3]
ffff000000082048:	f2ffffe2 	movk	x2, #0xffff, lsl #48
ffff00000008204c:	528021c1 	mov	w1, #0x10e                 	// #270
ffff000000082050:	b9000001 	str	w1, [x0]
ffff000000082054:	d2801283 	mov	x3, #0x94                  	// #148
ffff000000082058:	f2a7e403 	movk	x3, #0x3f20, lsl #16
ffff00000008205c:	52840004 	mov	w4, #0x2000                	// #8192
ffff000000082060:	b9400041 	ldr	w1, [x2]
ffff000000082064:	f2ffffe3 	movk	x3, #0xffff, lsl #48
ffff000000082068:	72a00024 	movk	w4, #0x1, lsl #16
ffff00000008206c:	528012c0 	mov	w0, #0x96                  	// #150
ffff000000082070:	120e6421 	and	w1, w1, #0xfffc0fff
ffff000000082074:	2a040021 	orr	w1, w1, w4
ffff000000082078:	b9000041 	str	w1, [x2]
ffff00000008207c:	b900007f 	str	wzr, [x3]
ffff000000082080:	d503201f 	nop
ffff000000082084:	71000400 	subs	w0, w0, #0x1
ffff000000082088:	54ffffc1 	b.ne	ffff000000082080 <uart_init+0xc0>  // b.any
ffff00000008208c:	d2801301 	mov	x1, #0x98                  	// #152
ffff000000082090:	52980002 	mov	w2, #0xc000                	// #49152
ffff000000082094:	f2a7e401 	movk	x1, #0x3f20, lsl #16
ffff000000082098:	528012c0 	mov	w0, #0x96                  	// #150
ffff00000008209c:	f2ffffe1 	movk	x1, #0xffff, lsl #48
ffff0000000820a0:	b9000022 	str	w2, [x1]
ffff0000000820a4:	d503201f 	nop
ffff0000000820a8:	d503201f 	nop
ffff0000000820ac:	71000400 	subs	w0, w0, #0x1
ffff0000000820b0:	54ffffc1 	b.ne	ffff0000000820a8 <uart_init+0xe8>  // b.any
ffff0000000820b4:	d2801302 	mov	x2, #0x98                  	// #152
ffff0000000820b8:	d28a0c00 	mov	x0, #0x5060                	// #20576
ffff0000000820bc:	f2a7e402 	movk	x2, #0x3f20, lsl #16
ffff0000000820c0:	f2a7e420 	movk	x0, #0x3f21, lsl #16
ffff0000000820c4:	f2ffffe2 	movk	x2, #0xffff, lsl #48
ffff0000000820c8:	f2ffffe0 	movk	x0, #0xffff, lsl #48
ffff0000000820cc:	52800061 	mov	w1, #0x3                   	// #3
ffff0000000820d0:	b900005f 	str	wzr, [x2]
ffff0000000820d4:	b9000001 	str	w1, [x0]
ffff0000000820d8:	d65f03c0 	ret
ffff0000000820dc:	d503201f 	nop

ffff0000000820e0 <uart_send>:
ffff0000000820e0:	d28a0a82 	mov	x2, #0x5054                	// #20564
ffff0000000820e4:	f2a7e422 	movk	x2, #0x3f21, lsl #16
ffff0000000820e8:	f2ffffe2 	movk	x2, #0xffff, lsl #48
ffff0000000820ec:	d503201f 	nop
ffff0000000820f0:	d503201f 	nop
ffff0000000820f4:	b9400041 	ldr	w1, [x2]
ffff0000000820f8:	362fffc1 	tbz	w1, #5, ffff0000000820f0 <uart_send+0x10>
ffff0000000820fc:	d28a0801 	mov	x1, #0x5040                	// #20544
ffff000000082100:	f2a7e421 	movk	x1, #0x3f21, lsl #16
ffff000000082104:	f2ffffe1 	movk	x1, #0xffff, lsl #48
ffff000000082108:	b9000020 	str	w0, [x1]
ffff00000008210c:	d65f03c0 	ret

ffff000000082110 <uart_getc>:
ffff000000082110:	d28a0a81 	mov	x1, #0x5054                	// #20564
ffff000000082114:	f2a7e421 	movk	x1, #0x3f21, lsl #16
ffff000000082118:	f2ffffe1 	movk	x1, #0xffff, lsl #48
ffff00000008211c:	d503201f 	nop
ffff000000082120:	d503201f 	nop
ffff000000082124:	b9400020 	ldr	w0, [x1]
ffff000000082128:	3607ffc0 	tbz	w0, #0, ffff000000082120 <uart_getc+0x10>
ffff00000008212c:	d28a0800 	mov	x0, #0x5040                	// #20544
ffff000000082130:	52800141 	mov	w1, #0xa                   	// #10
ffff000000082134:	f2a7e420 	movk	x0, #0x3f21, lsl #16
ffff000000082138:	f2ffffe0 	movk	x0, #0xffff, lsl #48
ffff00000008213c:	b9400000 	ldr	w0, [x0]
ffff000000082140:	12001c00 	and	w0, w0, #0xff
ffff000000082144:	7100341f 	cmp	w0, #0xd
ffff000000082148:	1a811000 	csel	w0, w0, w1, ne  // ne = any
ffff00000008214c:	d65f03c0 	ret

ffff000000082150 <uart_puts>:
ffff000000082150:	39400001 	ldrb	w1, [x0]
ffff000000082154:	34000261 	cbz	w1, ffff0000000821a0 <uart_puts+0x50>
ffff000000082158:	d28a0a82 	mov	x2, #0x5054                	// #20564
ffff00000008215c:	d28a0804 	mov	x4, #0x5040                	// #20544
ffff000000082160:	f2a7e422 	movk	x2, #0x3f21, lsl #16
ffff000000082164:	f2a7e424 	movk	x4, #0x3f21, lsl #16
ffff000000082168:	f2ffffe2 	movk	x2, #0xffff, lsl #48
ffff00000008216c:	f2ffffe4 	movk	x4, #0xffff, lsl #48
ffff000000082170:	528001a5 	mov	w5, #0xd                   	// #13
ffff000000082174:	d503201f 	nop
ffff000000082178:	7100283f 	cmp	w1, #0xa
ffff00000008217c:	54000140 	b.eq	ffff0000000821a4 <uart_puts+0x54>  // b.none
ffff000000082180:	38401403 	ldrb	w3, [x0], #1
ffff000000082184:	d503201f 	nop
ffff000000082188:	d503201f 	nop
ffff00000008218c:	b9400041 	ldr	w1, [x2]
ffff000000082190:	362fffc1 	tbz	w1, #5, ffff000000082188 <uart_puts+0x38>
ffff000000082194:	b9000083 	str	w3, [x4]
ffff000000082198:	39400001 	ldrb	w1, [x0]
ffff00000008219c:	35fffee1 	cbnz	w1, ffff000000082178 <uart_puts+0x28>
ffff0000000821a0:	d65f03c0 	ret
ffff0000000821a4:	d503201f 	nop
ffff0000000821a8:	b9400041 	ldr	w1, [x2]
ffff0000000821ac:	362fffc1 	tbz	w1, #5, ffff0000000821a4 <uart_puts+0x54>
ffff0000000821b0:	b9000085 	str	w5, [x4]
ffff0000000821b4:	17fffff3 	b	ffff000000082180 <uart_puts+0x30>

ffff0000000821b8 <uart_hex>:
ffff0000000821b8:	d28a0a82 	mov	x2, #0x5054                	// #20564
ffff0000000821bc:	d28a0805 	mov	x5, #0x5040                	// #20544
ffff0000000821c0:	f2a7e422 	movk	x2, #0x3f21, lsl #16
ffff0000000821c4:	f2a7e425 	movk	x5, #0x3f21, lsl #16
ffff0000000821c8:	52800383 	mov	w3, #0x1c                  	// #28
ffff0000000821cc:	528006e7 	mov	w7, #0x37                  	// #55
ffff0000000821d0:	52800606 	mov	w6, #0x30                  	// #48
ffff0000000821d4:	f2ffffe2 	movk	x2, #0xffff, lsl #48
ffff0000000821d8:	f2ffffe5 	movk	x5, #0xffff, lsl #48
ffff0000000821dc:	d503201f 	nop
ffff0000000821e0:	1ac32401 	lsr	w1, w0, w3
ffff0000000821e4:	12000c21 	and	w1, w1, #0xf
ffff0000000821e8:	7100243f 	cmp	w1, #0x9
ffff0000000821ec:	1a8680e4 	csel	w4, w7, w6, hi  // hi = pmore
ffff0000000821f0:	0b010084 	add	w4, w4, w1
ffff0000000821f4:	d503201f 	nop
ffff0000000821f8:	d503201f 	nop
ffff0000000821fc:	b9400041 	ldr	w1, [x2]
ffff000000082200:	362fffc1 	tbz	w1, #5, ffff0000000821f8 <uart_hex+0x40>
ffff000000082204:	b90000a4 	str	w4, [x5]
ffff000000082208:	51001063 	sub	w3, w3, #0x4
ffff00000008220c:	3100107f 	cmn	w3, #0x4
ffff000000082210:	54fffe81 	b.ne	ffff0000000821e0 <uart_hex+0x28>  // b.any
ffff000000082214:	d65f03c0 	ret

ffff000000082218 <enable_miniUART_interrupt>:
ffff000000082218:	d2964201 	mov	x1, #0xb210                	// #45584
ffff00000008221c:	f2a7e001 	movk	x1, #0x3f00, lsl #16
ffff000000082220:	f2ffffe1 	movk	x1, #0xffff, lsl #48
ffff000000082224:	b9400020 	ldr	w0, [x1]
ffff000000082228:	32030000 	orr	w0, w0, #0x20000000
ffff00000008222c:	b9000020 	str	w0, [x1]
ffff000000082230:	d65f03c0 	ret
ffff000000082234:	d503201f 	nop

ffff000000082238 <disable_miniUART_interrupt>:
ffff000000082238:	d2964381 	mov	x1, #0xb21c                	// #45596
ffff00000008223c:	f2a7e001 	movk	x1, #0x3f00, lsl #16
ffff000000082240:	f2ffffe1 	movk	x1, #0xffff, lsl #48
ffff000000082244:	b9400020 	ldr	w0, [x1]
ffff000000082248:	32030000 	orr	w0, w0, #0x20000000
ffff00000008224c:	b9000020 	str	w0, [x1]
ffff000000082250:	d65f03c0 	ret
ffff000000082254:	d503201f 	nop

ffff000000082258 <show_interrupt_status>:
ffff000000082258:	d28a0900 	mov	x0, #0x5048                	// #20552
ffff00000008225c:	f2a7e420 	movk	x0, #0x3f21, lsl #16
ffff000000082260:	f2ffffe0 	movk	x0, #0xffff, lsl #48
ffff000000082264:	b9400006 	ldr	w6, [x0]
ffff000000082268:	36000046 	tbz	w6, #0, ffff000000082270 <show_interrupt_status+0x18>
ffff00000008226c:	d65f03c0 	ret
ffff000000082270:	a9bf7bfd 	stp	x29, x30, [sp, #-16]!
ffff000000082274:	b0000000 	adrp	x0, ffff000000083000 <ullToStr_hex+0x30>
ffff000000082278:	9108c000 	add	x0, x0, #0x230
ffff00000008227c:	910003fd 	mov	x29, sp
ffff000000082280:	97ffffb4 	bl	ffff000000082150 <uart_puts>
ffff000000082284:	710308df 	cmp	w6, #0xc2
ffff000000082288:	54000160 	b.eq	ffff0000000822b4 <show_interrupt_status+0x5c>  // b.none
ffff00000008228c:	710310df 	cmp	w6, #0xc4
ffff000000082290:	540001a0 	b.eq	ffff0000000822c4 <show_interrupt_status+0x6c>  // b.none
ffff000000082294:	d2964381 	mov	x1, #0xb21c                	// #45596
ffff000000082298:	f2a7e001 	movk	x1, #0x3f00, lsl #16
ffff00000008229c:	f2ffffe1 	movk	x1, #0xffff, lsl #48
ffff0000000822a0:	b9400020 	ldr	w0, [x1]
ffff0000000822a4:	32030000 	orr	w0, w0, #0x20000000
ffff0000000822a8:	b9000020 	str	w0, [x1]
ffff0000000822ac:	a8c17bfd 	ldp	x29, x30, [sp], #16
ffff0000000822b0:	d65f03c0 	ret
ffff0000000822b4:	b0000000 	adrp	x0, ffff000000083000 <ullToStr_hex+0x30>
ffff0000000822b8:	91092000 	add	x0, x0, #0x248
ffff0000000822bc:	97ffffa5 	bl	ffff000000082150 <uart_puts>
ffff0000000822c0:	17fffff5 	b	ffff000000082294 <show_interrupt_status+0x3c>
ffff0000000822c4:	b0000000 	adrp	x0, ffff000000083000 <ullToStr_hex+0x30>
ffff0000000822c8:	9109c000 	add	x0, x0, #0x270
ffff0000000822cc:	97ffffa1 	bl	ffff000000082150 <uart_puts>
ffff0000000822d0:	17fffff1 	b	ffff000000082294 <show_interrupt_status+0x3c>
ffff0000000822d4:	00000000 	.inst	0x00000000 ; undefined

ffff0000000822d8 <init_Queue>:
ffff0000000822d8:	f900201f 	str	xzr, [x0, #64]
ffff0000000822dc:	b900481f 	str	wzr, [x0, #72]
ffff0000000822e0:	d65f03c0 	ret
ffff0000000822e4:	d503201f 	nop

ffff0000000822e8 <isEmpty>:
ffff0000000822e8:	29480402 	ldp	w2, w1, [x0, #64]
ffff0000000822ec:	6b01005f 	cmp	w2, w1
ffff0000000822f0:	54000060 	b.eq	ffff0000000822fc <isEmpty+0x14>  // b.none
ffff0000000822f4:	52800000 	mov	w0, #0x0                   	// #0
ffff0000000822f8:	d65f03c0 	ret
ffff0000000822fc:	b9404800 	ldr	w0, [x0, #72]
ffff000000082300:	7100001f 	cmp	w0, #0x0
ffff000000082304:	1a9f17e0 	cset	w0, eq  // eq = none
ffff000000082308:	d65f03c0 	ret
ffff00000008230c:	d503201f 	nop

ffff000000082310 <enQueue>:
ffff000000082310:	b9404802 	ldr	w2, [x0, #72]
ffff000000082314:	350001e2 	cbnz	w2, ffff000000082350 <enQueue+0x40>
ffff000000082318:	29480c04 	ldp	w4, w3, [x0, #64]
ffff00000008231c:	11000463 	add	w3, w3, #0x1
ffff000000082320:	6b0303e2 	negs	w2, w3
ffff000000082324:	12000c63 	and	w3, w3, #0xf
ffff000000082328:	12000c42 	and	w2, w2, #0xf
ffff00000008232c:	5a824462 	csneg	w2, w3, w2, mi  // mi = first
ffff000000082330:	b9004402 	str	w2, [x0, #68]
ffff000000082334:	6b04005f 	cmp	w2, w4
ffff000000082338:	b822d801 	str	w1, [x0, w2, sxtw #2]
ffff00000008233c:	54000040 	b.eq	ffff000000082344 <enQueue+0x34>  // b.none
ffff000000082340:	d65f03c0 	ret
ffff000000082344:	52800021 	mov	w1, #0x1                   	// #1
ffff000000082348:	b9004801 	str	w1, [x0, #72]
ffff00000008234c:	d65f03c0 	ret
ffff000000082350:	b0000000 	adrp	x0, ffff000000083000 <ullToStr_hex+0x30>
ffff000000082354:	910a4000 	add	x0, x0, #0x290
ffff000000082358:	17ffff7e 	b	ffff000000082150 <uart_puts>
ffff00000008235c:	d503201f 	nop

ffff000000082360 <deQueue>:
ffff000000082360:	29480801 	ldp	w1, w2, [x0, #64]
ffff000000082364:	6b02003f 	cmp	w1, w2
ffff000000082368:	54000140 	b.eq	ffff000000082390 <deQueue+0x30>  // b.none
ffff00000008236c:	11000421 	add	w1, w1, #0x1
ffff000000082370:	b900481f 	str	wzr, [x0, #72]
ffff000000082374:	6b0103e2 	negs	w2, w1
ffff000000082378:	12000c21 	and	w1, w1, #0xf
ffff00000008237c:	12000c42 	and	w2, w2, #0xf
ffff000000082380:	5a824421 	csneg	w1, w1, w2, mi  // mi = first
ffff000000082384:	b9004001 	str	w1, [x0, #64]
ffff000000082388:	b861d800 	ldr	w0, [x0, w1, sxtw #2]
ffff00000008238c:	d65f03c0 	ret
ffff000000082390:	b9404802 	ldr	w2, [x0, #72]
ffff000000082394:	35fffec2 	cbnz	w2, ffff00000008236c <deQueue+0xc>
ffff000000082398:	a9bf7bfd 	stp	x29, x30, [sp, #-16]!
ffff00000008239c:	b0000000 	adrp	x0, ffff000000083000 <ullToStr_hex+0x30>
ffff0000000823a0:	910aa000 	add	x0, x0, #0x2a8
ffff0000000823a4:	910003fd 	mov	x29, sp
ffff0000000823a8:	97ffff6a 	bl	ffff000000082150 <uart_puts>
ffff0000000823ac:	12800000 	mov	w0, #0xffffffff            	// #-1
ffff0000000823b0:	a8c17bfd 	ldp	x29, x30, [sp], #16
ffff0000000823b4:	d65f03c0 	ret

ffff0000000823b8 <SET>:
ffff0000000823b8:	d2800022 	mov	x2, #0x1                   	// #1
ffff0000000823bc:	9ac12042 	lsl	x2, x2, x1
ffff0000000823c0:	f9400001 	ldr	x1, [x0]
ffff0000000823c4:	aa020021 	orr	x1, x1, x2
ffff0000000823c8:	f9000001 	str	x1, [x0]
ffff0000000823cc:	d65f03c0 	ret

ffff0000000823d0 <CLR>:
ffff0000000823d0:	d2800022 	mov	x2, #0x1                   	// #1
ffff0000000823d4:	9ac12041 	lsl	x1, x2, x1
ffff0000000823d8:	f9400002 	ldr	x2, [x0]
ffff0000000823dc:	8a210041 	bic	x1, x2, x1
ffff0000000823e0:	f9000001 	str	x1, [x0]
ffff0000000823e4:	d65f03c0 	ret

ffff0000000823e8 <isSET>:
ffff0000000823e8:	d2800022 	mov	x2, #0x1                   	// #1
ffff0000000823ec:	9ac12041 	lsl	x1, x2, x1
ffff0000000823f0:	ea00003f 	tst	x1, x0
ffff0000000823f4:	1a9f07e0 	cset	w0, ne  // ne = any
ffff0000000823f8:	d65f03c0 	ret
ffff0000000823fc:	d503201f 	nop

ffff000000082400 <ALLOCATABLE>:
ffff000000082400:	aa0003e3 	mov	x3, x0
ffff000000082404:	d2800022 	mov	x2, #0x1                   	// #1
ffff000000082408:	52800000 	mov	w0, #0x0                   	// #0
ffff00000008240c:	14000004 	b	ffff00000008241c <ALLOCATABLE+0x1c>
ffff000000082410:	11000400 	add	w0, w0, #0x1
ffff000000082414:	7101001f 	cmp	w0, #0x40
ffff000000082418:	540000a0 	b.eq	ffff00000008242c <ALLOCATABLE+0x2c>  // b.none
ffff00000008241c:	9ac02041 	lsl	x1, x2, x0
ffff000000082420:	ea03003f 	tst	x1, x3
ffff000000082424:	54ffff61 	b.ne	ffff000000082410 <ALLOCATABLE+0x10>  // b.any
ffff000000082428:	d65f03c0 	ret
ffff00000008242c:	12800000 	mov	w0, #0xffffffff            	// #-1
ffff000000082430:	d65f03c0 	ret
ffff000000082434:	d503201f 	nop

ffff000000082438 <BITFULL>:
ffff000000082438:	b100041f 	cmn	x0, #0x1
ffff00000008243c:	1a9f17e0 	cset	w0, eq  // eq = none
ffff000000082440:	d65f03c0 	ret
ffff000000082444:	d503201f 	nop

ffff000000082448 <privilege_task_create>:
ffff000000082448:	a9be7bfd 	stp	x29, x30, [sp, #-32]!
ffff00000008244c:	d0000004 	adrp	x4, ffff000000084000 <zombieReaper_pcb>
ffff000000082450:	910003fd 	mov	x29, sp
ffff000000082454:	f9000bf3 	str	x19, [sp, #16]
ffff000000082458:	f9403083 	ldr	x3, [x4, #96]
ffff00000008245c:	b100047f 	cmn	x3, #0x1
ffff000000082460:	54000aa0 	b.eq	ffff0000000825b4 <privilege_task_create+0x16c>  // b.none
ffff000000082464:	91018081 	add	x1, x4, #0x60
ffff000000082468:	f9400426 	ldr	x6, [x1, #8]
ffff00000008246c:	b10004df 	cmn	x6, #0x1
ffff000000082470:	54000a60 	b.eq	ffff0000000825bc <privilege_task_create+0x174>  // b.none
ffff000000082474:	52800013 	mov	w19, #0x0                   	// #0
ffff000000082478:	d2800022 	mov	x2, #0x1                   	// #1
ffff00000008247c:	14000004 	b	ffff00000008248c <privilege_task_create+0x44>
ffff000000082480:	11000673 	add	w19, w19, #0x1
ffff000000082484:	7101027f 	cmp	w19, #0x40
ffff000000082488:	54000820 	b.eq	ffff00000008258c <privilege_task_create+0x144>  // b.none
ffff00000008248c:	9ad32041 	lsl	x1, x2, x19
ffff000000082490:	ea01007f 	tst	x3, x1
ffff000000082494:	54ffff61 	b.ne	ffff000000082480 <privilege_task_create+0x38>  // b.any
ffff000000082498:	d0000002 	adrp	x2, ffff000000084000 <zombieReaper_pcb>
ffff00000008249c:	93407e67 	sxtw	x7, w19
ffff0000000824a0:	aa010063 	orr	x3, x3, x1
ffff0000000824a4:	910004ed 	add	x13, x7, #0x1
ffff0000000824a8:	f9401c41 	ldr	x1, [x2, #56]
ffff0000000824ac:	8b0d302d 	add	x13, x1, x13, lsl #12
ffff0000000824b0:	f9003083 	str	x3, [x4, #96]
ffff0000000824b4:	52800005 	mov	w5, #0x0                   	// #0
ffff0000000824b8:	d2800021 	mov	x1, #0x1                   	// #1
ffff0000000824bc:	14000004 	b	ffff0000000824cc <privilege_task_create+0x84>
ffff0000000824c0:	110004a5 	add	w5, w5, #0x1
ffff0000000824c4:	710100bf 	cmp	w5, #0x40
ffff0000000824c8:	540006c0 	b.eq	ffff0000000825a0 <privilege_task_create+0x158>  // b.none
ffff0000000824cc:	9ac52023 	lsl	x3, x1, x5
ffff0000000824d0:	ea0300df 	tst	x6, x3
ffff0000000824d4:	54ffff61 	b.ne	ffff0000000824c0 <privilege_task_create+0x78>  // b.any
ffff0000000824d8:	d0000001 	adrp	x1, ffff000000084000 <zombieReaper_pcb>
ffff0000000824dc:	93407caa 	sxtw	x10, w5
ffff0000000824e0:	aa0300c6 	orr	x6, x6, x3
ffff0000000824e4:	9100054c 	add	x12, x10, #0x1
ffff0000000824e8:	f9400c23 	ldr	x3, [x1, #24]
ffff0000000824ec:	8b0c306c 	add	x12, x3, x12, lsl #12
ffff0000000824f0:	d000000b 	adrp	x11, ffff000000084000 <zombieReaper_pcb>
ffff0000000824f4:	f9401c42 	ldr	x2, [x2, #56]
ffff0000000824f8:	8b0710e8 	add	x8, x7, x7, lsl #4
ffff0000000824fc:	91018089 	add	x9, x4, #0x60
ffff000000082500:	f940156e 	ldr	x14, [x11, #40]
ffff000000082504:	91400444 	add	x4, x2, #0x1, lsl #12
ffff000000082508:	d374cce3 	lsl	x3, x7, #12
ffff00000008250c:	8b020062 	add	x2, x3, x2
ffff000000082510:	8b030083 	add	x3, x4, x3
ffff000000082514:	8b080dc4 	add	x4, x14, x8, lsl #3
ffff000000082518:	f9000526 	str	x6, [x9, #8]
ffff00000008251c:	a905b480 	stp	x0, x13, [x4, #88]
ffff000000082520:	f900348c 	str	x12, [x4, #104]
ffff000000082524:	290f1493 	stp	w19, w5, [x4, #120]
ffff000000082528:	3800145f 	strb	wzr, [x2], #1
ffff00000008252c:	eb02007f 	cmp	x3, x2
ffff000000082530:	54ffffc1 	b.ne	ffff000000082528 <privilege_task_create+0xe0>  // b.any
ffff000000082534:	f9400c20 	ldr	x0, [x1, #24]
ffff000000082538:	d374cd42 	lsl	x2, x10, #12
ffff00000008253c:	91400401 	add	x1, x0, #0x1, lsl #12
ffff000000082540:	8b000040 	add	x0, x2, x0
ffff000000082544:	8b020021 	add	x1, x1, x2
ffff000000082548:	3800141f 	strb	wzr, [x0], #1
ffff00000008254c:	eb01001f 	cmp	x0, x1
ffff000000082550:	54ffffc1 	b.ne	ffff000000082548 <privilege_task_create+0x100>  // b.any
ffff000000082554:	f9401562 	ldr	x2, [x11, #40]
ffff000000082558:	8b0710e7 	add	x7, x7, x7, lsl #4
ffff00000008255c:	d0000000 	adrp	x0, ffff000000084000 <zombieReaper_pcb>
ffff000000082560:	12800004 	mov	w4, #0xffffffff            	// #-1
ffff000000082564:	52800023 	mov	w3, #0x1                   	// #1
ffff000000082568:	2a1303e1 	mov	w1, w19
ffff00000008256c:	8b070c42 	add	x2, x2, x7, lsl #3
ffff000000082570:	f9401000 	ldr	x0, [x0, #32]
ffff000000082574:	29100c44 	stp	w4, w3, [x2, #128]
ffff000000082578:	97ffff66 	bl	ffff000000082310 <enQueue>
ffff00000008257c:	2a1303e0 	mov	w0, w19
ffff000000082580:	f9400bf3 	ldr	x19, [sp, #16]
ffff000000082584:	a8c27bfd 	ldp	x29, x30, [sp], #32
ffff000000082588:	d65f03c0 	ret
ffff00000008258c:	d0000002 	adrp	x2, ffff000000084000 <zombieReaper_pcb>
ffff000000082590:	12800013 	mov	w19, #0xffffffff            	// #-1
ffff000000082594:	92800007 	mov	x7, #0xffffffffffffffff    	// #-1
ffff000000082598:	f9401c4d 	ldr	x13, [x2, #56]
ffff00000008259c:	17ffffc5 	b	ffff0000000824b0 <privilege_task_create+0x68>
ffff0000000825a0:	d0000001 	adrp	x1, ffff000000084000 <zombieReaper_pcb>
ffff0000000825a4:	12800005 	mov	w5, #0xffffffff            	// #-1
ffff0000000825a8:	9280000a 	mov	x10, #0xffffffffffffffff    	// #-1
ffff0000000825ac:	f9400c2c 	ldr	x12, [x1, #24]
ffff0000000825b0:	17ffffd0 	b	ffff0000000824f0 <privilege_task_create+0xa8>
ffff0000000825b4:	2a0303f3 	mov	w19, w3
ffff0000000825b8:	17fffff1 	b	ffff00000008257c <privilege_task_create+0x134>
ffff0000000825bc:	2a0603f3 	mov	w19, w6
ffff0000000825c0:	17ffffef 	b	ffff00000008257c <privilege_task_create+0x134>
ffff0000000825c4:	d503201f 	nop

ffff0000000825c8 <do_exec>:
ffff0000000825c8:	a9be7bfd 	stp	x29, x30, [sp, #-32]!
ffff0000000825cc:	910003fd 	mov	x29, sp
ffff0000000825d0:	f9000bf3 	str	x19, [sp, #16]
ffff0000000825d4:	aa0003f3 	mov	x19, x0
ffff0000000825d8:	97fffe57 	bl	ffff000000081f34 <get_cur_task>
ffff0000000825dc:	d0000004 	adrp	x4, ffff000000084000 <zombieReaper_pcb>
ffff0000000825e0:	d0000003 	adrp	x3, ffff000000084000 <zombieReaper_pcb>
ffff0000000825e4:	694f0402 	ldpsw	x2, x1, [x0, #120]
ffff0000000825e8:	f9401c84 	ldr	x4, [x4, #56]
ffff0000000825ec:	f9400c63 	ldr	x3, [x3, #24]
ffff0000000825f0:	91000442 	add	x2, x2, #0x1
ffff0000000825f4:	91000421 	add	x1, x1, #0x1
ffff0000000825f8:	8b023082 	add	x2, x4, x2, lsl #12
ffff0000000825fc:	a9058813 	stp	x19, x2, [x0, #88]
ffff000000082600:	8b013061 	add	x1, x3, x1, lsl #12
ffff000000082604:	a906cc01 	stp	x1, x19, [x0, #104]
ffff000000082608:	d5184033 	msr	elr_el1, x19
ffff00000008260c:	d5184101 	msr	sp_el0, x1
ffff000000082610:	d69f03e0 	eret
ffff000000082614:	f9400bf3 	ldr	x19, [sp, #16]
ffff000000082618:	a8c27bfd 	ldp	x29, x30, [sp], #32
ffff00000008261c:	d65f03c0 	ret

ffff000000082620 <context_switch>:
ffff000000082620:	a9be7bfd 	stp	x29, x30, [sp, #-32]!
ffff000000082624:	910003fd 	mov	x29, sp
ffff000000082628:	a90153f3 	stp	x19, x20, [sp, #16]
ffff00000008262c:	2a0003f3 	mov	w19, w0
ffff000000082630:	97fffe41 	bl	ffff000000081f34 <get_cur_task>
ffff000000082634:	aa0003f4 	mov	x20, x0
ffff000000082638:	b9408400 	ldr	w0, [x0, #132]
ffff00000008263c:	7100041f 	cmp	w0, #0x1
ffff000000082640:	54000180 	b.eq	ffff000000082670 <context_switch+0x50>  // b.none
ffff000000082644:	d0000001 	adrp	x1, ffff000000084000 <zombieReaper_pcb>
ffff000000082648:	52801100 	mov	w0, #0x88                  	// #136
ffff00000008264c:	f9401421 	ldr	x1, [x1, #40]
ffff000000082650:	9b200673 	smaddl	x19, w19, w0, x1
ffff000000082654:	aa1303e0 	mov	x0, x19
ffff000000082658:	97fffe39 	bl	ffff000000081f3c <set_cur_task>
ffff00000008265c:	aa1303e1 	mov	x1, x19
ffff000000082660:	aa1403e0 	mov	x0, x20
ffff000000082664:	a94153f3 	ldp	x19, x20, [sp, #16]
ffff000000082668:	a8c27bfd 	ldp	x29, x30, [sp], #32
ffff00000008266c:	17fffe21 	b	ffff000000081ef0 <switch_to>
ffff000000082670:	d0000000 	adrp	x0, ffff000000084000 <zombieReaper_pcb>
ffff000000082674:	b9407a81 	ldr	w1, [x20, #120]
ffff000000082678:	f9401000 	ldr	x0, [x0, #32]
ffff00000008267c:	97ffff25 	bl	ffff000000082310 <enQueue>
ffff000000082680:	17fffff1 	b	ffff000000082644 <context_switch+0x24>
ffff000000082684:	d503201f 	nop

ffff000000082688 <schedule.part.0>:
ffff000000082688:	a9bf7bfd 	stp	x29, x30, [sp, #-16]!
ffff00000008268c:	d0000000 	adrp	x0, ffff000000084000 <zombieReaper_pcb>
ffff000000082690:	d0000001 	adrp	x1, ffff000000084000 <zombieReaper_pcb>
ffff000000082694:	910003fd 	mov	x29, sp
ffff000000082698:	f9401000 	ldr	x0, [x0, #32]
ffff00000008269c:	b900703f 	str	wzr, [x1, #112]
ffff0000000826a0:	97ffff30 	bl	ffff000000082360 <deQueue>
ffff0000000826a4:	a8c17bfd 	ldp	x29, x30, [sp], #16
ffff0000000826a8:	17ffffde 	b	ffff000000082620 <context_switch>
ffff0000000826ac:	d503201f 	nop

ffff0000000826b0 <schedule>:
ffff0000000826b0:	d0000000 	adrp	x0, ffff000000084000 <zombieReaper_pcb>
ffff0000000826b4:	b9407000 	ldr	w0, [x0, #112]
ffff0000000826b8:	35000040 	cbnz	w0, ffff0000000826c0 <schedule+0x10>
ffff0000000826bc:	d65f03c0 	ret
ffff0000000826c0:	17fffff2 	b	ffff000000082688 <schedule.part.0>
ffff0000000826c4:	d503201f 	nop

ffff0000000826c8 <idle>:
ffff0000000826c8:	a9be7bfd 	stp	x29, x30, [sp, #-32]!
ffff0000000826cc:	910003fd 	mov	x29, sp
ffff0000000826d0:	a90153f3 	stp	x19, x20, [sp, #16]
ffff0000000826d4:	d0000013 	adrp	x19, ffff000000084000 <zombieReaper_pcb>
ffff0000000826d8:	b0000014 	adrp	x20, ffff000000083000 <ullToStr_hex+0x30>
ffff0000000826dc:	910b0294 	add	x20, x20, #0x2c0
ffff0000000826e0:	f9401273 	ldr	x19, [x19, #32]
ffff0000000826e4:	d503201f 	nop
ffff0000000826e8:	aa1303e0 	mov	x0, x19
ffff0000000826ec:	97ffff1d 	bl	ffff000000082360 <deQueue>
ffff0000000826f0:	11000401 	add	w1, w0, #0x1
ffff0000000826f4:	7100043f 	cmp	w1, #0x1
ffff0000000826f8:	540000e9 	b.ls	ffff000000082714 <idle+0x4c>  // b.plast
ffff0000000826fc:	97ffffc9 	bl	ffff000000082620 <context_switch>
ffff000000082700:	aa1303e0 	mov	x0, x19
ffff000000082704:	97ffff17 	bl	ffff000000082360 <deQueue>
ffff000000082708:	11000401 	add	w1, w0, #0x1
ffff00000008270c:	7100043f 	cmp	w1, #0x1
ffff000000082710:	54ffff68 	b.hi	ffff0000000826fc <idle+0x34>  // b.pmore
ffff000000082714:	aa1403e0 	mov	x0, x20
ffff000000082718:	97fffe8e 	bl	ffff000000082150 <uart_puts>
ffff00000008271c:	97fffdd1 	bl	ffff000000081e60 <sleep>
ffff000000082720:	17fffff2 	b	ffff0000000826e8 <idle+0x20>
ffff000000082724:	d503201f 	nop

ffff000000082728 <kernel_routine_entry>:
ffff000000082728:	a9bf7bfd 	stp	x29, x30, [sp, #-16]!
ffff00000008272c:	910003fd 	mov	x29, sp
ffff000000082730:	97fffe01 	bl	ffff000000081f34 <get_cur_task>
ffff000000082734:	9101a001 	add	x1, x0, #0x68
ffff000000082738:	a8c17bfd 	ldp	x29, x30, [sp], #16
ffff00000008273c:	9101c000 	add	x0, x0, #0x70
ffff000000082740:	17fffe06 	b	ffff000000081f58 <store_umode_lr_sp>
ffff000000082744:	d503201f 	nop

ffff000000082748 <kernel_routine_exit>:
ffff000000082748:	a9bf7bfd 	stp	x29, x30, [sp, #-16]!
ffff00000008274c:	910003fd 	mov	x29, sp
ffff000000082750:	97fffdf9 	bl	ffff000000081f34 <get_cur_task>
ffff000000082754:	a8c17bfd 	ldp	x29, x30, [sp], #16
ffff000000082758:	a9468001 	ldp	x1, x0, [x0, #104]
ffff00000008275c:	17fffe04 	b	ffff000000081f6c <restore_umode_lr_sp>

ffff000000082760 <leave_fork>:
ffff000000082760:	a9bf7bfd 	stp	x29, x30, [sp, #-16]!
ffff000000082764:	910003fd 	mov	x29, sp
ffff000000082768:	97fffff8 	bl	ffff000000082748 <kernel_routine_exit>
ffff00000008276c:	a8c17bfd 	ldp	x29, x30, [sp], #16
ffff000000082770:	17fffe02 	b	ffff000000081f78 <restore_all_reg>
ffff000000082774:	d503201f 	nop

ffff000000082778 <do_fork>:
ffff000000082778:	a9be7bfd 	stp	x29, x30, [sp, #-32]!
ffff00000008277c:	910003fd 	mov	x29, sp
ffff000000082780:	f9000bf3 	str	x19, [sp, #16]
ffff000000082784:	97fffdec 	bl	ffff000000081f34 <get_cur_task>
ffff000000082788:	aa0003f3 	mov	x19, x0
ffff00000008278c:	90000000 	adrp	x0, ffff000000082000 <uart_init+0x40>
ffff000000082790:	911d8000 	add	x0, x0, #0x760
ffff000000082794:	97ffff2d 	bl	ffff000000082448 <privilege_task_create>
ffff000000082798:	d000000e 	adrp	x14, ffff000000084000 <zombieReaper_pcb>
ffff00000008279c:	93407c00 	sxtw	x0, w0
ffff0000000827a0:	b9807e67 	ldrsw	x7, [x19, #124]
ffff0000000827a4:	d0000009 	adrp	x9, ffff000000084000 <zombieReaper_pcb>
ffff0000000827a8:	f94015c1 	ldr	x1, [x14, #40]
ffff0000000827ac:	8b001002 	add	x2, x0, x0, lsl #4
ffff0000000827b0:	b9407a64 	ldr	w4, [x19, #120]
ffff0000000827b4:	d000000c 	adrp	x12, ffff000000084000 <zombieReaper_pcb>
ffff0000000827b8:	f940326d 	ldr	x13, [x19, #96]
ffff0000000827bc:	d374ccf0 	lsl	x16, x7, #12
ffff0000000827c0:	8b020c22 	add	x2, x1, x2, lsl #3
ffff0000000827c4:	f9400d23 	ldr	x3, [x9, #24]
ffff0000000827c8:	93407c84 	sxtw	x4, w4
ffff0000000827cc:	f9401d81 	ldr	x1, [x12, #56]
ffff0000000827d0:	f85e81af 	ldur	x15, [x13, #-24]
ffff0000000827d4:	8b03020b 	add	x11, x16, x3
ffff0000000827d8:	b9807c46 	ldrsw	x6, [x2, #124]
ffff0000000827dc:	d374cc88 	lsl	x8, x4, #12
ffff0000000827e0:	4b0b01e2 	sub	w2, w15, w11
ffff0000000827e4:	91400425 	add	x5, x1, #0x1, lsl #12
ffff0000000827e8:	8b01010a 	add	x10, x8, x1
ffff0000000827ec:	8b0800a5 	add	x5, x5, x8
ffff0000000827f0:	d374ccc6 	lsl	x6, x6, #12
ffff0000000827f4:	aa0a03e1 	mov	x1, x10
ffff0000000827f8:	8b22c0c2 	add	x2, x6, w2, sxtw
ffff0000000827fc:	cb0433e4 	neg	x4, x4, lsl #12
ffff000000082800:	d374cc08 	lsl	x8, x0, #12
ffff000000082804:	8b030042 	add	x2, x2, x3
ffff000000082808:	f81001bf 	stur	xzr, [x13, #-256]
ffff00000008280c:	f81e81a2 	stur	x2, [x13, #-24]
ffff000000082810:	8b040022 	add	x2, x1, x4
ffff000000082814:	39400023 	ldrb	w3, [x1]
ffff000000082818:	91000421 	add	x1, x1, #0x1
ffff00000008281c:	eb05003f 	cmp	x1, x5
ffff000000082820:	38286843 	strb	w3, [x2, x8]
ffff000000082824:	54ffff61 	b.ne	ffff000000082810 <do_fork+0x98>  // b.any
ffff000000082828:	f9400d24 	ldr	x4, [x9, #24]
ffff00000008282c:	aa0b03e1 	mov	x1, x11
ffff000000082830:	cb0733e5 	neg	x5, x7, lsl #12
ffff000000082834:	91400484 	add	x4, x4, #0x1, lsl #12
ffff000000082838:	8b100084 	add	x4, x4, x16
ffff00000008283c:	d503201f 	nop
ffff000000082840:	8b050022 	add	x2, x1, x5
ffff000000082844:	39400023 	ldrb	w3, [x1]
ffff000000082848:	91000421 	add	x1, x1, #0x1
ffff00000008284c:	eb04003f 	cmp	x1, x4
ffff000000082850:	38266843 	strb	w3, [x2, x6]
ffff000000082854:	54ffff61 	b.ne	ffff000000082840 <do_fork+0xc8>  // b.any
ffff000000082858:	f81001a0 	stur	x0, [x13, #-256]
ffff00000008285c:	8b001000 	add	x0, x0, x0, lsl #4
ffff000000082860:	f81e81af 	stur	x15, [x13, #-24]
ffff000000082864:	f94015ce 	ldr	x14, [x14, #40]
ffff000000082868:	a9460a61 	ldp	x1, x2, [x19, #96]
ffff00000008286c:	8b000dc0 	add	x0, x14, x0, lsl #3
ffff000000082870:	f9400d29 	ldr	x9, [x9, #24]
ffff000000082874:	51040021 	sub	w1, w1, #0x100
ffff000000082878:	4b0b0042 	sub	w2, w2, w11
ffff00000008287c:	4b0a0021 	sub	w1, w1, w10
ffff000000082880:	f9401d8c 	ldr	x12, [x12, #56]
ffff000000082884:	f9403a63 	ldr	x3, [x19, #112]
ffff000000082888:	8b22c0c2 	add	x2, x6, w2, sxtw
ffff00000008288c:	8b21c101 	add	x1, x8, w1, sxtw
ffff000000082890:	f9400bf3 	ldr	x19, [sp, #16]
ffff000000082894:	8b090042 	add	x2, x2, x9
ffff000000082898:	8b0c0021 	add	x1, x1, x12
ffff00000008289c:	a9060801 	stp	x1, x2, [x0, #96]
ffff0000000828a0:	f9003803 	str	x3, [x0, #112]
ffff0000000828a4:	a8c27bfd 	ldp	x29, x30, [sp], #32
ffff0000000828a8:	d65f03c0 	ret
ffff0000000828ac:	d503201f 	nop

ffff0000000828b0 <do_exit>:
ffff0000000828b0:	a9be7bfd 	stp	x29, x30, [sp, #-32]!
ffff0000000828b4:	910003fd 	mov	x29, sp
ffff0000000828b8:	f9000bf3 	str	x19, [sp, #16]
ffff0000000828bc:	2a0003f3 	mov	w19, w0
ffff0000000828c0:	97fffd9d 	bl	ffff000000081f34 <get_cur_task>
ffff0000000828c4:	d0000002 	adrp	x2, ffff000000084000 <zombieReaper_pcb>
ffff0000000828c8:	d0000001 	adrp	x1, ffff000000084000 <zombieReaper_pcb>
ffff0000000828cc:	91018021 	add	x1, x1, #0x60
ffff0000000828d0:	52800063 	mov	w3, #0x3                   	// #3
ffff0000000828d4:	f9400045 	ldr	x5, [x2]
ffff0000000828d8:	b9407c02 	ldr	w2, [x0, #124]
ffff0000000828dc:	f9400424 	ldr	x4, [x1, #8]
ffff0000000828e0:	29100c13 	stp	w19, w3, [x0, #128]
ffff0000000828e4:	d2800023 	mov	x3, #0x1                   	// #1
ffff0000000828e8:	f9400bf3 	ldr	x19, [sp, #16]
ffff0000000828ec:	9ac22060 	lsl	x0, x3, x2
ffff0000000828f0:	b9001023 	str	w3, [x1, #16]
ffff0000000828f4:	8a200080 	bic	x0, x4, x0
ffff0000000828f8:	b90084a3 	str	w3, [x5, #132]
ffff0000000828fc:	f9000420 	str	x0, [x1, #8]
ffff000000082900:	a8c27bfd 	ldp	x29, x30, [sp], #32
ffff000000082904:	17ffff61 	b	ffff000000082688 <schedule.part.0>

ffff000000082908 <zombieReaper>:
ffff000000082908:	a9bc7bfd 	stp	x29, x30, [sp, #-64]!
ffff00000008290c:	910003fd 	mov	x29, sp
ffff000000082910:	a90153f3 	stp	x19, x20, [sp, #16]
ffff000000082914:	d0000014 	adrp	x20, ffff000000084000 <zombieReaper_pcb>
ffff000000082918:	a9025bf5 	stp	x21, x22, [sp, #32]
ffff00000008291c:	d2800033 	mov	x19, #0x1                   	// #1
ffff000000082920:	f9401694 	ldr	x20, [x20, #40]
ffff000000082924:	2a1303f6 	mov	w22, w19
ffff000000082928:	a90363f7 	stp	x23, x24, [sp, #48]
ffff00000008292c:	52800055 	mov	w21, #0x2                   	// #2
ffff000000082930:	d0000017 	adrp	x23, ffff000000084000 <zombieReaper_pcb>
ffff000000082934:	d0000018 	adrp	x24, ffff000000084000 <zombieReaper_pcb>
ffff000000082938:	f94032e3 	ldr	x3, [x23, #96]
ffff00000008293c:	91021281 	add	x1, x20, #0x84
ffff000000082940:	52800005 	mov	w5, #0x0                   	// #0
ffff000000082944:	52800000 	mov	w0, #0x0                   	// #0
ffff000000082948:	9ac02262 	lsl	x2, x19, x0
ffff00000008294c:	11000400 	add	w0, w0, #0x1
ffff000000082950:	ea03005f 	tst	x2, x3
ffff000000082954:	540000e0 	b.eq	ffff000000082970 <zombieReaper+0x68>  // b.none
ffff000000082958:	b9400024 	ldr	w4, [x1]
ffff00000008295c:	71000c9f 	cmp	w4, #0x3
ffff000000082960:	54000081 	b.ne	ffff000000082970 <zombieReaper+0x68>  // b.any
ffff000000082964:	8a220063 	bic	x3, x3, x2
ffff000000082968:	52800025 	mov	w5, #0x1                   	// #1
ffff00000008296c:	d503201f 	nop
ffff000000082970:	91022021 	add	x1, x1, #0x88
ffff000000082974:	7101001f 	cmp	w0, #0x40
ffff000000082978:	54fffe81 	b.ne	ffff000000082948 <zombieReaper+0x40>  // b.any
ffff00000008297c:	350000e5 	cbnz	w5, ffff000000082998 <zombieReaper+0x90>
ffff000000082980:	f9400301 	ldr	x1, [x24]
ffff000000082984:	910182e0 	add	x0, x23, #0x60
ffff000000082988:	b9008435 	str	w21, [x1, #132]
ffff00000008298c:	b9001016 	str	w22, [x0, #16]
ffff000000082990:	97ffff3e 	bl	ffff000000082688 <schedule.part.0>
ffff000000082994:	17ffffe9 	b	ffff000000082938 <zombieReaper+0x30>
ffff000000082998:	f90032e3 	str	x3, [x23, #96]
ffff00000008299c:	17fffff9 	b	ffff000000082980 <zombieReaper+0x78>

ffff0000000829a0 <main>:
ffff0000000829a0:	a9bf7bfd 	stp	x29, x30, [sp, #-16]!
ffff0000000829a4:	910003fd 	mov	x29, sp
ffff0000000829a8:	97fffd86 	bl	ffff000000081fc0 <uart_init>
ffff0000000829ac:	a8c17bfd 	ldp	x29, x30, [sp], #16
ffff0000000829b0:	b0000000 	adrp	x0, ffff000000083000 <ullToStr_hex+0x30>
ffff0000000829b4:	910b4000 	add	x0, x0, #0x2d0
ffff0000000829b8:	17fffde6 	b	ffff000000082150 <uart_puts>
ffff0000000829bc:	00000000 	.inst	0x00000000 ; undefined

ffff0000000829c0 <get_currentEL>:
ffff0000000829c0:	d5384240 	mrs	x0, currentel
ffff0000000829c4:	927e0400 	and	x0, x0, #0xc
ffff0000000829c8:	13027c00 	asr	w0, w0, #2
ffff0000000829cc:	d65f03c0 	ret

ffff0000000829d0 <show_currentEL>:
ffff0000000829d0:	a9be7bfd 	stp	x29, x30, [sp, #-32]!
ffff0000000829d4:	910003fd 	mov	x29, sp
ffff0000000829d8:	f9000bf3 	str	x19, [sp, #16]
ffff0000000829dc:	d5384253 	mrs	x19, currentel
ffff0000000829e0:	927e0673 	and	x19, x19, #0xc
ffff0000000829e4:	b0000000 	adrp	x0, ffff000000083000 <ullToStr_hex+0x30>
ffff0000000829e8:	910b8000 	add	x0, x0, #0x2e0
ffff0000000829ec:	97fffdd9 	bl	ffff000000082150 <uart_puts>
ffff0000000829f0:	13027e60 	asr	w0, w19, #2
ffff0000000829f4:	97fffdf1 	bl	ffff0000000821b8 <uart_hex>
ffff0000000829f8:	f9400bf3 	ldr	x19, [sp, #16]
ffff0000000829fc:	b0000000 	adrp	x0, ffff000000083000 <ullToStr_hex+0x30>
ffff000000082a00:	a8c27bfd 	ldp	x29, x30, [sp], #32
ffff000000082a04:	910ae000 	add	x0, x0, #0x2b8
ffff000000082a08:	17fffdd2 	b	ffff000000082150 <uart_puts>
ffff000000082a0c:	d503201f 	nop

ffff000000082a10 <show_esr_elr>:
ffff000000082a10:	a9be7bfd 	stp	x29, x30, [sp, #-32]!
ffff000000082a14:	910003fd 	mov	x29, sp
ffff000000082a18:	a90153f3 	stp	x19, x20, [sp, #16]
ffff000000082a1c:	aa0103f3 	mov	x19, x1
ffff000000082a20:	aa0003f4 	mov	x20, x0
ffff000000082a24:	b0000000 	adrp	x0, ffff000000083000 <ullToStr_hex+0x30>
ffff000000082a28:	910bc000 	add	x0, x0, #0x2f0
ffff000000082a2c:	97fffdc9 	bl	ffff000000082150 <uart_puts>
ffff000000082a30:	b0000000 	adrp	x0, ffff000000083000 <ullToStr_hex+0x30>
ffff000000082a34:	910c6000 	add	x0, x0, #0x318
ffff000000082a38:	97fffdc6 	bl	ffff000000082150 <uart_puts>
ffff000000082a3c:	2a1303e0 	mov	w0, w19
ffff000000082a40:	b0000013 	adrp	x19, ffff000000083000 <ullToStr_hex+0x30>
ffff000000082a44:	97fffddd 	bl	ffff0000000821b8 <uart_hex>
ffff000000082a48:	910ae273 	add	x19, x19, #0x2b8
ffff000000082a4c:	aa1303e0 	mov	x0, x19
ffff000000082a50:	97fffdc0 	bl	ffff000000082150 <uart_puts>
ffff000000082a54:	b0000000 	adrp	x0, ffff000000083000 <ullToStr_hex+0x30>
ffff000000082a58:	910ce000 	add	x0, x0, #0x338
ffff000000082a5c:	97fffdbd 	bl	ffff000000082150 <uart_puts>
ffff000000082a60:	d35ae680 	ubfx	x0, x20, #26, #32
ffff000000082a64:	97fffdd5 	bl	ffff0000000821b8 <uart_hex>
ffff000000082a68:	aa1303e0 	mov	x0, x19
ffff000000082a6c:	97fffdb9 	bl	ffff000000082150 <uart_puts>
ffff000000082a70:	b0000000 	adrp	x0, ffff000000083000 <ullToStr_hex+0x30>
ffff000000082a74:	910d4000 	add	x0, x0, #0x350
ffff000000082a78:	97fffdb6 	bl	ffff000000082150 <uart_puts>
ffff000000082a7c:	12006280 	and	w0, w20, #0x1ffffff
ffff000000082a80:	97fffdce 	bl	ffff0000000821b8 <uart_hex>
ffff000000082a84:	aa1303e0 	mov	x0, x19
ffff000000082a88:	a94153f3 	ldp	x19, x20, [sp, #16]
ffff000000082a8c:	a8c27bfd 	ldp	x29, x30, [sp], #32
ffff000000082a90:	17fffdb0 	b	ffff000000082150 <uart_puts>
ffff000000082a94:	d503201f 	nop

ffff000000082a98 <sys_uart_read>:
ffff000000082a98:	a9bd7bfd 	stp	x29, x30, [sp, #-48]!
ffff000000082a9c:	910003fd 	mov	x29, sp
ffff000000082aa0:	a901d7f4 	stp	x20, x21, [sp, #24]
ffff000000082aa4:	a944d414 	ldp	x20, x21, [x0, #72]
ffff000000082aa8:	710002bf 	cmp	w21, #0x0
ffff000000082aac:	540001ad 	b.le	ffff000000082ae0 <sys_uart_read+0x48>
ffff000000082ab0:	510006b5 	sub	w21, w21, #0x1
ffff000000082ab4:	f9000bb3 	str	x19, [x29, #16]
ffff000000082ab8:	91000693 	add	x19, x20, #0x1
ffff000000082abc:	8b150275 	add	x21, x19, x21
ffff000000082ac0:	14000002 	b	ffff000000082ac8 <sys_uart_read+0x30>
ffff000000082ac4:	91000673 	add	x19, x19, #0x1
ffff000000082ac8:	97fffd92 	bl	ffff000000082110 <uart_getc>
ffff000000082acc:	39000280 	strb	w0, [x20]
ffff000000082ad0:	eb15027f 	cmp	x19, x21
ffff000000082ad4:	aa1303f4 	mov	x20, x19
ffff000000082ad8:	54ffff61 	b.ne	ffff000000082ac4 <sys_uart_read+0x2c>  // b.any
ffff000000082adc:	f9400bb3 	ldr	x19, [x29, #16]
ffff000000082ae0:	a941d7f4 	ldp	x20, x21, [sp, #24]
ffff000000082ae4:	a8c37bfd 	ldp	x29, x30, [sp], #48
ffff000000082ae8:	d65f03c0 	ret
ffff000000082aec:	d503201f 	nop

ffff000000082af0 <sysCall_handler_el0>:
ffff000000082af0:	a9bd7bfd 	stp	x29, x30, [sp, #-48]!
ffff000000082af4:	910003fd 	mov	x29, sp
ffff000000082af8:	f9000bf3 	str	x19, [sp, #16]
ffff000000082afc:	97fffd0e 	bl	ffff000000081f34 <get_cur_task>
ffff000000082b00:	f9403001 	ldr	x1, [x0, #96]
ffff000000082b04:	f8540033 	ldur	x19, [x1, #-192]
ffff000000082b08:	f1000e7f 	cmp	x19, #0x3
ffff000000082b0c:	54000620 	b.eq	ffff000000082bd0 <sysCall_handler_el0+0xe0>  // b.none
ffff000000082b10:	54000169 	b.ls	ffff000000082b3c <sysCall_handler_el0+0x4c>  // b.plast
ffff000000082b14:	f100167f 	cmp	x19, #0x5
ffff000000082b18:	54000360 	b.eq	ffff000000082b84 <sysCall_handler_el0+0x94>  // b.none
ffff000000082b1c:	54000203 	b.cc	ffff000000082b5c <sysCall_handler_el0+0x6c>  // b.lo, b.ul, b.last
ffff000000082b20:	f1001a7f 	cmp	x19, #0x6
ffff000000082b24:	54000381 	b.ne	ffff000000082b94 <sysCall_handler_el0+0xa4>  // b.any
ffff000000082b28:	b8548020 	ldur	w0, [x1, #-184]
ffff000000082b2c:	97ffff61 	bl	ffff0000000828b0 <do_exit>
ffff000000082b30:	f9400bf3 	ldr	x19, [sp, #16]
ffff000000082b34:	a8c37bfd 	ldp	x29, x30, [sp], #48
ffff000000082b38:	17ffff04 	b	ffff000000082748 <kernel_routine_exit>
ffff000000082b3c:	f100067f 	cmp	x19, #0x1
ffff000000082b40:	54000400 	b.eq	ffff000000082bc0 <sysCall_handler_el0+0xd0>  // b.none
ffff000000082b44:	54000168 	b.hi	ffff000000082b70 <sysCall_handler_el0+0x80>  // b.pmore
ffff000000082b48:	b9807800 	ldrsw	x0, [x0, #120]
ffff000000082b4c:	f8100020 	stur	x0, [x1, #-256]
ffff000000082b50:	f9400bf3 	ldr	x19, [sp, #16]
ffff000000082b54:	a8c37bfd 	ldp	x29, x30, [sp], #48
ffff000000082b58:	17fffefc 	b	ffff000000082748 <kernel_routine_exit>
ffff000000082b5c:	f8548020 	ldur	x0, [x1, #-184]
ffff000000082b60:	97fffe9a 	bl	ffff0000000825c8 <do_exec>
ffff000000082b64:	f9400bf3 	ldr	x19, [sp, #16]
ffff000000082b68:	a8c37bfd 	ldp	x29, x30, [sp], #48
ffff000000082b6c:	17fffef7 	b	ffff000000082748 <kernel_routine_exit>
ffff000000082b70:	f8548020 	ldur	x0, [x1, #-184]
ffff000000082b74:	97fffd77 	bl	ffff000000082150 <uart_puts>
ffff000000082b78:	f9400bf3 	ldr	x19, [sp, #16]
ffff000000082b7c:	a8c37bfd 	ldp	x29, x30, [sp], #48
ffff000000082b80:	17fffef2 	b	ffff000000082748 <kernel_routine_exit>
ffff000000082b84:	97fffefd 	bl	ffff000000082778 <do_fork>
ffff000000082b88:	f9400bf3 	ldr	x19, [sp, #16]
ffff000000082b8c:	a8c37bfd 	ldp	x29, x30, [sp], #48
ffff000000082b90:	17fffeee 	b	ffff000000082748 <kernel_routine_exit>
ffff000000082b94:	b0000000 	adrp	x0, ffff000000083000 <ullToStr_hex+0x30>
ffff000000082b98:	910de000 	add	x0, x0, #0x378
ffff000000082b9c:	97fffd6d 	bl	ffff000000082150 <uart_puts>
ffff000000082ba0:	2a1303e0 	mov	w0, w19
ffff000000082ba4:	97fffd85 	bl	ffff0000000821b8 <uart_hex>
ffff000000082ba8:	b0000000 	adrp	x0, ffff000000083000 <ullToStr_hex+0x30>
ffff000000082bac:	910e2000 	add	x0, x0, #0x388
ffff000000082bb0:	97fffd68 	bl	ffff000000082150 <uart_puts>
ffff000000082bb4:	f9400bf3 	ldr	x19, [sp, #16]
ffff000000082bb8:	a8c37bfd 	ldp	x29, x30, [sp], #48
ffff000000082bbc:	17fffee3 	b	ffff000000082748 <kernel_routine_exit>
ffff000000082bc0:	97fffebc 	bl	ffff0000000826b0 <schedule>
ffff000000082bc4:	f9400bf3 	ldr	x19, [sp, #16]
ffff000000082bc8:	a8c37bfd 	ldp	x29, x30, [sp], #48
ffff000000082bcc:	17fffedf 	b	ffff000000082748 <kernel_routine_exit>
ffff000000082bd0:	a901d7b4 	stp	x20, x21, [x29, #24]
ffff000000082bd4:	a974d434 	ldp	x20, x21, [x1, #-184]
ffff000000082bd8:	710002bf 	cmp	w21, #0x0
ffff000000082bdc:	5400016d 	b.le	ffff000000082c08 <sysCall_handler_el0+0x118>
ffff000000082be0:	91000693 	add	x19, x20, #0x1
ffff000000082be4:	510006b5 	sub	w21, w21, #0x1
ffff000000082be8:	8b150275 	add	x21, x19, x21
ffff000000082bec:	14000002 	b	ffff000000082bf4 <sysCall_handler_el0+0x104>
ffff000000082bf0:	91000673 	add	x19, x19, #0x1
ffff000000082bf4:	97fffd47 	bl	ffff000000082110 <uart_getc>
ffff000000082bf8:	39000280 	strb	w0, [x20]
ffff000000082bfc:	eb15027f 	cmp	x19, x21
ffff000000082c00:	aa1303f4 	mov	x20, x19
ffff000000082c04:	54ffff61 	b.ne	ffff000000082bf0 <sysCall_handler_el0+0x100>  // b.any
ffff000000082c08:	a941d7b4 	ldp	x20, x21, [x29, #24]
ffff000000082c0c:	f9400bf3 	ldr	x19, [sp, #16]
ffff000000082c10:	a8c37bfd 	ldp	x29, x30, [sp], #48
ffff000000082c14:	17fffecd 	b	ffff000000082748 <kernel_routine_exit>

ffff000000082c18 <sync_exc0_handler>:
ffff000000082c18:	a9be7bfd 	stp	x29, x30, [sp, #-32]!
ffff000000082c1c:	910003fd 	mov	x29, sp
ffff000000082c20:	910043a0 	add	x0, x29, #0x10
ffff000000082c24:	910063a1 	add	x1, x29, #0x18
ffff000000082c28:	97fffc84 	bl	ffff000000081e38 <get_sync_exc_param_el1>
ffff000000082c2c:	f9400ba0 	ldr	x0, [x29, #16]
ffff000000082c30:	d35afc00 	lsr	x0, x0, #26
ffff000000082c34:	f100541f 	cmp	x0, #0x15
ffff000000082c38:	54000100 	b.eq	ffff000000082c58 <sync_exc0_handler+0x40>  // b.none
ffff000000082c3c:	b0000000 	adrp	x0, ffff000000083000 <ullToStr_hex+0x30>
ffff000000082c40:	910e6000 	add	x0, x0, #0x398
ffff000000082c44:	97fffd43 	bl	ffff000000082150 <uart_puts>
ffff000000082c48:	a94107a0 	ldp	x0, x1, [x29, #16]
ffff000000082c4c:	97ffff71 	bl	ffff000000082a10 <show_esr_elr>
ffff000000082c50:	a8c27bfd 	ldp	x29, x30, [sp], #32
ffff000000082c54:	d65f03c0 	ret
ffff000000082c58:	97fffeb4 	bl	ffff000000082728 <kernel_routine_entry>
ffff000000082c5c:	f9400ba0 	ldr	x0, [x29, #16]
ffff000000082c60:	f240601f 	tst	x0, #0x1ffffff
ffff000000082c64:	54ffff61 	b.ne	ffff000000082c50 <sync_exc0_handler+0x38>  // b.any
ffff000000082c68:	97ffffa2 	bl	ffff000000082af0 <sysCall_handler_el0>
ffff000000082c6c:	a8c27bfd 	ldp	x29, x30, [sp], #32
ffff000000082c70:	d65f03c0 	ret
ffff000000082c74:	d503201f 	nop

ffff000000082c78 <sync_exc1_handler>:
ffff000000082c78:	a9be7bfd 	stp	x29, x30, [sp, #-32]!
ffff000000082c7c:	910003fd 	mov	x29, sp
ffff000000082c80:	97ffff54 	bl	ffff0000000829d0 <show_currentEL>
ffff000000082c84:	910063a1 	add	x1, x29, #0x18
ffff000000082c88:	910043a0 	add	x0, x29, #0x10
ffff000000082c8c:	97fffc6b 	bl	ffff000000081e38 <get_sync_exc_param_el1>
ffff000000082c90:	b0000000 	adrp	x0, ffff000000083000 <ullToStr_hex+0x30>
ffff000000082c94:	910ec000 	add	x0, x0, #0x3b0
ffff000000082c98:	97fffd2e 	bl	ffff000000082150 <uart_puts>
ffff000000082c9c:	a94107a0 	ldp	x0, x1, [x29, #16]
ffff000000082ca0:	97ffff5c 	bl	ffff000000082a10 <show_esr_elr>
ffff000000082ca4:	a8c27bfd 	ldp	x29, x30, [sp], #32
ffff000000082ca8:	d65f03c0 	ret
ffff000000082cac:	d503201f 	nop

ffff000000082cb0 <sync_exc2_handler>:
ffff000000082cb0:	a9be7bfd 	stp	x29, x30, [sp, #-32]!
ffff000000082cb4:	910003fd 	mov	x29, sp
ffff000000082cb8:	97ffff46 	bl	ffff0000000829d0 <show_currentEL>
ffff000000082cbc:	910063a1 	add	x1, x29, #0x18
ffff000000082cc0:	910043a0 	add	x0, x29, #0x10
ffff000000082cc4:	97fffc62 	bl	ffff000000081e4c <get_sync_exc_param_el2>
ffff000000082cc8:	a94107a0 	ldp	x0, x1, [x29, #16]
ffff000000082ccc:	97ffff51 	bl	ffff000000082a10 <show_esr_elr>
ffff000000082cd0:	a8c27bfd 	ldp	x29, x30, [sp], #32
ffff000000082cd4:	d65f03c0 	ret

ffff000000082cd8 <irq_exc_handler>:
ffff000000082cd8:	d2800c00 	mov	x0, #0x60                  	// #96
ffff000000082cdc:	f2a80000 	movk	x0, #0x4000, lsl #16
ffff000000082ce0:	b9400000 	ldr	w0, [x0]
ffff000000082ce4:	37080080 	tbnz	w0, #1, ffff000000082cf4 <irq_exc_handler+0x1c>
ffff000000082ce8:	b0000000 	adrp	x0, ffff000000083000 <ullToStr_hex+0x30>
ffff000000082cec:	910f2000 	add	x0, x0, #0x3c8
ffff000000082cf0:	17fffd18 	b	ffff000000082150 <uart_puts>
ffff000000082cf4:	a9bf7bfd 	stp	x29, x30, [sp, #-16]!
ffff000000082cf8:	910003fd 	mov	x29, sp
ffff000000082cfc:	9400013b 	bl	ffff0000000831e8 <core_timer_handler>
ffff000000082d00:	d0000000 	adrp	x0, ffff000000084000 <zombieReaper_pcb>
ffff000000082d04:	52800021 	mov	w1, #0x1                   	// #1
ffff000000082d08:	f9401800 	ldr	x0, [x0, #48]
ffff000000082d0c:	b9000001 	str	w1, [x0]
ffff000000082d10:	a8c17bfd 	ldp	x29, x30, [sp], #16
ffff000000082d14:	17fffe67 	b	ffff0000000826b0 <schedule>

ffff000000082d18 <SError_handler>:
ffff000000082d18:	b0000000 	adrp	x0, ffff000000083000 <ullToStr_hex+0x30>
ffff000000082d1c:	910f8000 	add	x0, x0, #0x3e0
ffff000000082d20:	17fffd0c 	b	ffff000000082150 <uart_puts>
ffff000000082d24:	00000000 	.inst	0x00000000 ; undefined

ffff000000082d28 <ullToStr.part.0>:
ffff000000082d28:	b40003e0 	cbz	x0, ffff000000082da4 <ullToStr.part.0+0x7c>
ffff000000082d2c:	b202e7e8 	mov	x8, #0xcccccccccccccccc    	// #-3689348814741910324
ffff000000082d30:	aa0103e5 	mov	x5, x1
ffff000000082d34:	aa0103e6 	mov	x6, x1
ffff000000082d38:	52800004 	mov	w4, #0x0                   	// #0
ffff000000082d3c:	f29999a8 	movk	x8, #0xcccd
ffff000000082d40:	14000002 	b	ffff000000082d48 <ullToStr.part.0+0x20>
ffff000000082d44:	2a0703e4 	mov	w4, w7
ffff000000082d48:	9bc87c03 	umulh	x3, x0, x8
ffff000000082d4c:	11000487 	add	w7, w4, #0x1
ffff000000082d50:	d343fc63 	lsr	x3, x3, #3
ffff000000082d54:	8b030862 	add	x2, x3, x3, lsl #2
ffff000000082d58:	cb020402 	sub	x2, x0, x2, lsl #1
ffff000000082d5c:	aa0303e0 	mov	x0, x3
ffff000000082d60:	1100c042 	add	w2, w2, #0x30
ffff000000082d64:	380014c2 	strb	w2, [x6], #1
ffff000000082d68:	b5fffee3 	cbnz	x3, ffff000000082d44 <ullToStr.part.0+0x1c>
ffff000000082d6c:	3827c83f 	strb	wzr, [x1, w7, sxtw]
ffff000000082d70:	34000184 	cbz	w4, ffff000000082da0 <ullToStr.part.0+0x78>
ffff000000082d74:	51000480 	sub	w0, w4, #0x1
ffff000000082d78:	91000421 	add	x1, x1, #0x1
ffff000000082d7c:	93407c00 	sxtw	x0, w0
ffff000000082d80:	38606822 	ldrb	w2, [x1, x0]
ffff000000082d84:	394000a3 	ldrb	w3, [x5]
ffff000000082d88:	380014a2 	strb	w2, [x5], #1
ffff000000082d8c:	4b000082 	sub	w2, w4, w0
ffff000000082d90:	38206823 	strb	w3, [x1, x0]
ffff000000082d94:	6b02001f 	cmp	w0, w2
ffff000000082d98:	d1000400 	sub	x0, x0, #0x1
ffff000000082d9c:	54ffff2c 	b.gt	ffff000000082d80 <ullToStr.part.0+0x58>
ffff000000082da0:	d65f03c0 	ret
ffff000000082da4:	3900003f 	strb	wzr, [x1]
ffff000000082da8:	d65f03c0 	ret
ffff000000082dac:	d503201f 	nop

ffff000000082db0 <printASCII>:
ffff000000082db0:	a9bd7bfd 	stp	x29, x30, [sp, #-48]!
ffff000000082db4:	910003fd 	mov	x29, sp
ffff000000082db8:	a90153f3 	stp	x19, x20, [sp, #16]
ffff000000082dbc:	5290a3f4 	mov	w20, #0x851f                	// #34079
ffff000000082dc0:	f90013f5 	str	x21, [sp, #32]
ffff000000082dc4:	12001c15 	and	w21, w0, #0xff
ffff000000082dc8:	72aa3d74 	movk	w20, #0x51eb, lsl #16
ffff000000082dcc:	52800140 	mov	w0, #0xa                   	// #10
ffff000000082dd0:	97fffcc4 	bl	ffff0000000820e0 <uart_send>
ffff000000082dd4:	529999b3 	mov	w19, #0xcccd                	// #52429
ffff000000082dd8:	9bb47eb4 	umull	x20, w21, w20
ffff000000082ddc:	72b99993 	movk	w19, #0xcccc, lsl #16
ffff000000082de0:	d365fe94 	lsr	x20, x20, #37
ffff000000082de4:	1100c280 	add	w0, w20, #0x30
ffff000000082de8:	97fffcbe 	bl	ffff0000000820e0 <uart_send>
ffff000000082dec:	52800c80 	mov	w0, #0x64                  	// #100
ffff000000082df0:	1b00d694 	msub	w20, w20, w0, w21
ffff000000082df4:	9bb37e93 	umull	x19, w20, w19
ffff000000082df8:	d363fe73 	lsr	x19, x19, #35
ffff000000082dfc:	1100c260 	add	w0, w19, #0x30
ffff000000082e00:	97fffcb8 	bl	ffff0000000820e0 <uart_send>
ffff000000082e04:	0b130a73 	add	w19, w19, w19, lsl #2
ffff000000082e08:	4b130680 	sub	w0, w20, w19, lsl #1
ffff000000082e0c:	1100c000 	add	w0, w0, #0x30
ffff000000082e10:	97fffcb4 	bl	ffff0000000820e0 <uart_send>
ffff000000082e14:	a94153f3 	ldp	x19, x20, [sp, #16]
ffff000000082e18:	52800140 	mov	w0, #0xa                   	// #10
ffff000000082e1c:	f94013f5 	ldr	x21, [sp, #32]
ffff000000082e20:	a8c37bfd 	ldp	x29, x30, [sp], #48
ffff000000082e24:	17fffcaf 	b	ffff0000000820e0 <uart_send>

ffff000000082e28 <strlen>:
ffff000000082e28:	39400001 	ldrb	w1, [x0]
ffff000000082e2c:	34000101 	cbz	w1, ffff000000082e4c <strlen+0x24>
ffff000000082e30:	52800001 	mov	w1, #0x0                   	// #0
ffff000000082e34:	d503201f 	nop
ffff000000082e38:	38401c02 	ldrb	w2, [x0, #1]!
ffff000000082e3c:	11000421 	add	w1, w1, #0x1
ffff000000082e40:	35ffffc2 	cbnz	w2, ffff000000082e38 <strlen+0x10>
ffff000000082e44:	2a0103e0 	mov	w0, w1
ffff000000082e48:	d65f03c0 	ret
ffff000000082e4c:	52800001 	mov	w1, #0x0                   	// #0
ffff000000082e50:	2a0103e0 	mov	w0, w1
ffff000000082e54:	d65f03c0 	ret

ffff000000082e58 <strAppend>:
ffff000000082e58:	39400002 	ldrb	w2, [x0]
ffff000000082e5c:	34000322 	cbz	w2, ffff000000082ec0 <strAppend+0x68>
ffff000000082e60:	aa0003e3 	mov	x3, x0
ffff000000082e64:	52800002 	mov	w2, #0x0                   	// #0
ffff000000082e68:	38401c64 	ldrb	w4, [x3, #1]!
ffff000000082e6c:	11000442 	add	w2, w2, #0x1
ffff000000082e70:	35ffffc4 	cbnz	w4, ffff000000082e68 <strAppend+0x10>
ffff000000082e74:	39400025 	ldrb	w5, [x1]
ffff000000082e78:	340002a5 	cbz	w5, ffff000000082ecc <strAppend+0x74>
ffff000000082e7c:	aa0103e3 	mov	x3, x1
ffff000000082e80:	52800004 	mov	w4, #0x0                   	// #0
ffff000000082e84:	d503201f 	nop
ffff000000082e88:	38401c66 	ldrb	w6, [x3, #1]!
ffff000000082e8c:	11000484 	add	w4, w4, #0x1
ffff000000082e90:	35ffffc6 	cbnz	w6, ffff000000082e88 <strAppend+0x30>
ffff000000082e94:	0b020086 	add	w6, w4, w2
ffff000000082e98:	8b22c003 	add	x3, x0, w2, sxtw
ffff000000082e9c:	d2800002 	mov	x2, #0x0                   	// #0
ffff000000082ea0:	14000002 	b	ffff000000082ea8 <strAppend+0x50>
ffff000000082ea4:	38626825 	ldrb	w5, [x1, x2]
ffff000000082ea8:	38226865 	strb	w5, [x3, x2]
ffff000000082eac:	91000442 	add	x2, x2, #0x1
ffff000000082eb0:	6b02009f 	cmp	w4, w2
ffff000000082eb4:	54ffff8c 	b.gt	ffff000000082ea4 <strAppend+0x4c>
ffff000000082eb8:	3826c81f 	strb	wzr, [x0, w6, sxtw]
ffff000000082ebc:	d65f03c0 	ret
ffff000000082ec0:	39400025 	ldrb	w5, [x1]
ffff000000082ec4:	52800002 	mov	w2, #0x0                   	// #0
ffff000000082ec8:	35fffda5 	cbnz	w5, ffff000000082e7c <strAppend+0x24>
ffff000000082ecc:	2a0203e6 	mov	w6, w2
ffff000000082ed0:	3826c81f 	strb	wzr, [x0, w6, sxtw]
ffff000000082ed4:	d65f03c0 	ret

ffff000000082ed8 <strcmp>:
ffff000000082ed8:	39400007 	ldrb	w7, [x0]
ffff000000082edc:	39400026 	ldrb	w6, [x1]
ffff000000082ee0:	34000247 	cbz	w7, ffff000000082f28 <strcmp+0x50>
ffff000000082ee4:	aa0003e3 	mov	x3, x0
ffff000000082ee8:	52800002 	mov	w2, #0x0                   	// #0
ffff000000082eec:	d503201f 	nop
ffff000000082ef0:	38401c64 	ldrb	w4, [x3, #1]!
ffff000000082ef4:	11000442 	add	w2, w2, #0x1
ffff000000082ef8:	35ffffc4 	cbnz	w4, ffff000000082ef0 <strcmp+0x18>
ffff000000082efc:	34000366 	cbz	w6, ffff000000082f68 <strcmp+0x90>
ffff000000082f00:	aa0103e4 	mov	x4, x1
ffff000000082f04:	52800003 	mov	w3, #0x0                   	// #0
ffff000000082f08:	38401c85 	ldrb	w5, [x4, #1]!
ffff000000082f0c:	11000463 	add	w3, w3, #0x1
ffff000000082f10:	35ffffc5 	cbnz	w5, ffff000000082f08 <strcmp+0x30>
ffff000000082f14:	52800004 	mov	w4, #0x0                   	// #0
ffff000000082f18:	6b02007f 	cmp	w3, w2
ffff000000082f1c:	540000e0 	b.eq	ffff000000082f38 <strcmp+0x60>  // b.none
ffff000000082f20:	2a0403e0 	mov	w0, w4
ffff000000082f24:	d65f03c0 	ret
ffff000000082f28:	52800002 	mov	w2, #0x0                   	// #0
ffff000000082f2c:	35fffea6 	cbnz	w6, ffff000000082f00 <strcmp+0x28>
ffff000000082f30:	2a0603e2 	mov	w2, w6
ffff000000082f34:	d503201f 	nop
ffff000000082f38:	d2800003 	mov	x3, #0x0                   	// #0
ffff000000082f3c:	14000003 	b	ffff000000082f48 <strcmp+0x70>
ffff000000082f40:	38636807 	ldrb	w7, [x0, x3]
ffff000000082f44:	38636826 	ldrb	w6, [x1, x3]
ffff000000082f48:	91000463 	add	x3, x3, #0x1
ffff000000082f4c:	6b0700df 	cmp	w6, w7
ffff000000082f50:	540000c1 	b.ne	ffff000000082f68 <strcmp+0x90>  // b.any
ffff000000082f54:	6b03005f 	cmp	w2, w3
ffff000000082f58:	54ffff4a 	b.ge	ffff000000082f40 <strcmp+0x68>  // b.tcont
ffff000000082f5c:	52800024 	mov	w4, #0x1                   	// #1
ffff000000082f60:	2a0403e0 	mov	w0, w4
ffff000000082f64:	d65f03c0 	ret
ffff000000082f68:	52800004 	mov	w4, #0x0                   	// #0
ffff000000082f6c:	2a0403e0 	mov	w0, w4
ffff000000082f70:	d65f03c0 	ret
ffff000000082f74:	d503201f 	nop

ffff000000082f78 <strReverse>:
ffff000000082f78:	7100003f 	cmp	w1, #0x0
ffff000000082f7c:	540001ad 	b.le	ffff000000082fb0 <strReverse+0x38>
ffff000000082f80:	51000422 	sub	w2, w1, #0x1
ffff000000082f84:	91000403 	add	x3, x0, #0x1
ffff000000082f88:	93407c42 	sxtw	x2, w2
ffff000000082f8c:	d503201f 	nop
ffff000000082f90:	38626864 	ldrb	w4, [x3, x2]
ffff000000082f94:	39400005 	ldrb	w5, [x0]
ffff000000082f98:	38001404 	strb	w4, [x0], #1
ffff000000082f9c:	4b020024 	sub	w4, w1, w2
ffff000000082fa0:	38226865 	strb	w5, [x3, x2]
ffff000000082fa4:	6b04005f 	cmp	w2, w4
ffff000000082fa8:	d1000442 	sub	x2, x2, #0x1
ffff000000082fac:	54ffff2c 	b.gt	ffff000000082f90 <strReverse+0x18>
ffff000000082fb0:	d65f03c0 	ret
ffff000000082fb4:	d503201f 	nop

ffff000000082fb8 <ullToStr>:
ffff000000082fb8:	b4000040 	cbz	x0, ffff000000082fc0 <ullToStr+0x8>
ffff000000082fbc:	17ffff5b 	b	ffff000000082d28 <ullToStr.part.0>
ffff000000082fc0:	52800600 	mov	w0, #0x30                  	// #48
ffff000000082fc4:	79000020 	strh	w0, [x1]
ffff000000082fc8:	d65f03c0 	ret
ffff000000082fcc:	d503201f 	nop

ffff000000082fd0 <ullToStr_hex>:
ffff000000082fd0:	aa0103e5 	mov	x5, x1
ffff000000082fd4:	52800783 	mov	w3, #0x3c                  	// #60
ffff000000082fd8:	528006e7 	mov	w7, #0x37                  	// #55
ffff000000082fdc:	52800606 	mov	w6, #0x30                  	// #48
ffff000000082fe0:	9ac32402 	lsr	x2, x0, x3
ffff000000082fe4:	12000c42 	and	w2, w2, #0xf
ffff000000082fe8:	7100245f 	cmp	w2, #0x9
ffff000000082fec:	51001063 	sub	w3, w3, #0x4
ffff000000082ff0:	1a8680e4 	csel	w4, w7, w6, hi  // hi = pmore
ffff000000082ff4:	3100107f 	cmn	w3, #0x4
ffff000000082ff8:	0b020082 	add	w2, w4, w2
ffff000000082ffc:	380014a2 	strb	w2, [x5], #1
ffff000000083000:	54ffff01 	b.ne	ffff000000082fe0 <ullToStr_hex+0x10>  // b.any
ffff000000083004:	3900403f 	strb	wzr, [x1, #16]
ffff000000083008:	d65f03c0 	ret
ffff00000008300c:	d503201f 	nop

ffff000000083010 <cntTimeStamp>:
ffff000000083010:	9ac00826 	udiv	x6, x1, x0
ffff000000083014:	a9b67bfd 	stp	x29, x30, [sp, #-160]!
ffff000000083018:	aa0203ea 	mov	x10, x2
ffff00000008301c:	910003fd 	mov	x29, sp
ffff000000083020:	1b068401 	msub	w1, w0, w6, w1
ffff000000083024:	34000aa1 	cbz	w1, ffff000000083178 <cntTimeStamp+0x168>
ffff000000083028:	2a0003e2 	mov	w2, w0
ffff00000008302c:	52800003 	mov	w3, #0x0                   	// #0
ffff000000083030:	52800145 	mov	w5, #0xa                   	// #10
ffff000000083034:	d503201f 	nop
ffff000000083038:	0b010821 	add	w1, w1, w1, lsl #2
ffff00000008303c:	0b030863 	add	w3, w3, w3, lsl #2
ffff000000083040:	510004a5 	sub	w5, w5, #0x1
ffff000000083044:	531f7824 	lsl	w4, w1, #1
ffff000000083048:	aa0403e1 	mov	x1, x4
ffff00000008304c:	9ac00884 	udiv	x4, x4, x0
ffff000000083050:	1b048441 	msub	w1, w2, w4, w1
ffff000000083054:	0b030483 	add	w3, w4, w3, lsl #1
ffff000000083058:	7100003f 	cmp	w1, #0x0
ffff00000008305c:	7a4018a4 	ccmp	w5, #0x0, #0x4, ne  // ne = any
ffff000000083060:	54fffec1 	b.ne	ffff000000083038 <cntTimeStamp+0x28>  // b.any
ffff000000083064:	93407c69 	sxtw	x9, w3
ffff000000083068:	b5000666 	cbnz	x6, ffff000000083134 <cntTimeStamp+0x124>
ffff00000008306c:	52800600 	mov	w0, #0x30                  	// #48
ffff000000083070:	790023a0 	strh	w0, [x29, #16]
ffff000000083074:	b5000689 	cbnz	x9, ffff000000083144 <cntTimeStamp+0x134>
ffff000000083078:	394043a4 	ldrb	w4, [x29, #16]
ffff00000008307c:	52800600 	mov	w0, #0x30                  	// #48
ffff000000083080:	7900b3a0 	strh	w0, [x29, #88]
ffff000000083084:	340008c4 	cbz	w4, ffff00000008319c <cntTimeStamp+0x18c>
ffff000000083088:	52800602 	mov	w2, #0x30                  	// #48
ffff00000008308c:	910047a0 	add	x0, x29, #0x11
ffff000000083090:	52800001 	mov	w1, #0x0                   	// #0
ffff000000083094:	d503201f 	nop
ffff000000083098:	38401403 	ldrb	w3, [x0], #1
ffff00000008309c:	11000421 	add	w1, w1, #0x1
ffff0000000830a0:	35ffffc3 	cbnz	w3, ffff000000083098 <cntTimeStamp+0x88>
ffff0000000830a4:	34000782 	cbz	w2, ffff000000083194 <cntTimeStamp+0x184>
ffff0000000830a8:	910163ab 	add	x11, x29, #0x58
ffff0000000830ac:	91000560 	add	x0, x11, #0x1
ffff0000000830b0:	52800003 	mov	w3, #0x0                   	// #0
ffff0000000830b4:	d503201f 	nop
ffff0000000830b8:	38401405 	ldrb	w5, [x0], #1
ffff0000000830bc:	11000463 	add	w3, w3, #0x1
ffff0000000830c0:	35ffffc5 	cbnz	w5, ffff0000000830b8 <cntTimeStamp+0xa8>
ffff0000000830c4:	340005e1 	cbz	w1, ffff000000083180 <cntTimeStamp+0x170>
ffff0000000830c8:	910043a2 	add	x2, x29, #0x10
ffff0000000830cc:	d2800000 	mov	x0, #0x0                   	// #0
ffff0000000830d0:	14000002 	b	ffff0000000830d8 <cntTimeStamp+0xc8>
ffff0000000830d4:	38626804 	ldrb	w4, [x0, x2]
ffff0000000830d8:	38206944 	strb	w4, [x10, x0]
ffff0000000830dc:	91000400 	add	x0, x0, #0x1
ffff0000000830e0:	6b00003f 	cmp	w1, w0
ffff0000000830e4:	54ffff8c 	b.gt	ffff0000000830d4 <cntTimeStamp+0xc4>
ffff0000000830e8:	11000424 	add	w4, w1, #0x1
ffff0000000830ec:	528005c0 	mov	w0, #0x2e                  	// #46
ffff0000000830f0:	3821c940 	strb	w0, [x10, w1, sxtw]
ffff0000000830f4:	910163ab 	add	x11, x29, #0x58
ffff0000000830f8:	93407c82 	sxtw	x2, w4
ffff0000000830fc:	aa0203e0 	mov	x0, x2
ffff000000083100:	34000143 	cbz	w3, ffff000000083128 <cntTimeStamp+0x118>
ffff000000083104:	8b020142 	add	x2, x10, x2
ffff000000083108:	d2800000 	mov	x0, #0x0                   	// #0
ffff00000008310c:	d503201f 	nop
ffff000000083110:	38606961 	ldrb	w1, [x11, x0]
ffff000000083114:	38206841 	strb	w1, [x2, x0]
ffff000000083118:	91000400 	add	x0, x0, #0x1
ffff00000008311c:	6b00007f 	cmp	w3, w0
ffff000000083120:	54ffff8c 	b.gt	ffff000000083110 <cntTimeStamp+0x100>
ffff000000083124:	0b030080 	add	w0, w4, w3
ffff000000083128:	3820695f 	strb	wzr, [x10, x0]
ffff00000008312c:	a8ca7bfd 	ldp	x29, x30, [sp], #160
ffff000000083130:	d65f03c0 	ret
ffff000000083134:	910043a1 	add	x1, x29, #0x10
ffff000000083138:	aa0603e0 	mov	x0, x6
ffff00000008313c:	97fffefb 	bl	ffff000000082d28 <ullToStr.part.0>
ffff000000083140:	b4fff9c9 	cbz	x9, ffff000000083078 <cntTimeStamp+0x68>
ffff000000083144:	910163ab 	add	x11, x29, #0x58
ffff000000083148:	aa0903e0 	mov	x0, x9
ffff00000008314c:	aa0b03e1 	mov	x1, x11
ffff000000083150:	97fffef6 	bl	ffff000000082d28 <ullToStr.part.0>
ffff000000083154:	394043a4 	ldrb	w4, [x29, #16]
ffff000000083158:	394163a2 	ldrb	w2, [x29, #88]
ffff00000008315c:	35fff984 	cbnz	w4, ffff00000008308c <cntTimeStamp+0x7c>
ffff000000083160:	52800001 	mov	w1, #0x0                   	// #0
ffff000000083164:	35fffa42 	cbnz	w2, ffff0000000830ac <cntTimeStamp+0x9c>
ffff000000083168:	528005c1 	mov	w1, #0x2e                  	// #46
ffff00000008316c:	d2800020 	mov	x0, #0x1                   	// #1
ffff000000083170:	39000141 	strb	w1, [x10]
ffff000000083174:	17ffffed 	b	ffff000000083128 <cntTimeStamp+0x118>
ffff000000083178:	d2800009 	mov	x9, #0x0                   	// #0
ffff00000008317c:	17ffffbb 	b	ffff000000083068 <cntTimeStamp+0x58>
ffff000000083180:	528005c0 	mov	w0, #0x2e                  	// #46
ffff000000083184:	52800024 	mov	w4, #0x1                   	// #1
ffff000000083188:	39000140 	strb	w0, [x10]
ffff00000008318c:	d2800022 	mov	x2, #0x1                   	// #1
ffff000000083190:	17ffffdd 	b	ffff000000083104 <cntTimeStamp+0xf4>
ffff000000083194:	52800003 	mov	w3, #0x0                   	// #0
ffff000000083198:	17ffffcc 	b	ffff0000000830c8 <cntTimeStamp+0xb8>
ffff00000008319c:	910163ab 	add	x11, x29, #0x58
ffff0000000831a0:	52800001 	mov	w1, #0x0                   	// #0
ffff0000000831a4:	17ffffc2 	b	ffff0000000830ac <cntTimeStamp+0x9c>

ffff0000000831a8 <arm_local_timer_init>:
ffff0000000831a8:	d2800680 	mov	x0, #0x34                  	// #52
ffff0000000831ac:	52a6a001 	mov	w1, #0x35000000            	// #889192448
ffff0000000831b0:	f2a80000 	movk	x0, #0x4000, lsl #16
ffff0000000831b4:	b9000001 	str	w1, [x0]
ffff0000000831b8:	d65f03c0 	ret
ffff0000000831bc:	d503201f 	nop

ffff0000000831c0 <arm_local_timer_handler>:
ffff0000000831c0:	d2800700 	mov	x0, #0x38                  	// #56
ffff0000000831c4:	52b80001 	mov	w1, #0xc0000000            	// #-1073741824
ffff0000000831c8:	f2a80000 	movk	x0, #0x4000, lsl #16
ffff0000000831cc:	b9000001 	str	w1, [x0]
ffff0000000831d0:	d65f03c0 	ret
ffff0000000831d4:	d503201f 	nop

ffff0000000831d8 <arm_local_timer_cancel>:
ffff0000000831d8:	d2800680 	mov	x0, #0x34                  	// #52
ffff0000000831dc:	f2a80000 	movk	x0, #0x4000, lsl #16
ffff0000000831e0:	b900001f 	str	wzr, [x0]
ffff0000000831e4:	d65f03c0 	ret

ffff0000000831e8 <core_timer_handler>:
ffff0000000831e8:	12bff400 	mov	w0, #0x5fffff              	// #6291455
ffff0000000831ec:	aa0003e0 	mov	x0, x0
ffff0000000831f0:	d51be200 	msr	cntp_tval_el0, x0
ffff0000000831f4:	d65f03c0 	ret

ffff0000000831f8 <core_timer_enable>:
ffff0000000831f8:	12bff400 	mov	w0, #0x5fffff              	// #6291455
ffff0000000831fc:	aa0003e0 	mov	x0, x0
ffff000000083200:	d51be200 	msr	cntp_tval_el0, x0
ffff000000083204:	d2800020 	mov	x0, #0x1                   	// #1
ffff000000083208:	d51be220 	msr	cntp_ctl_el0, x0
ffff00000008320c:	d2800800 	mov	x0, #0x40                  	// #64
ffff000000083210:	52800041 	mov	w1, #0x2                   	// #2
ffff000000083214:	f2a80000 	movk	x0, #0x4000, lsl #16
ffff000000083218:	b9000001 	str	w1, [x0]
ffff00000008321c:	d65f03c0 	ret

ffff000000083220 <core_timer_cancel>:
ffff000000083220:	d2800800 	mov	x0, #0x40                  	// #64
ffff000000083224:	f2a80000 	movk	x0, #0x4000, lsl #16
ffff000000083228:	b900001f 	str	wzr, [x0]
ffff00000008322c:	d65f03c0 	ret
