
kernel8.elf:     file format elf64-littleaarch64


Disassembly of section .text:

ffff000000080000 <_kernel_start>:
ffff000000080000:	d53800a1 	mrs	x1, mpidr_el1
ffff000000080004:	92400421 	and	x1, x1, #0x3
ffff000000080008:	b4000061 	cbz	x1, ffff000000080014 <boot>

ffff00000008000c <busy_loop>:
ffff00000008000c:	d503205f 	wfe
ffff000000080010:	17ffffff 	b	ffff00000008000c <busy_loop>

ffff000000080014 <boot>:
ffff000000080014:	580003e0 	ldr	x0, ffff000000080090 <clear_bss_end+0x1c>
ffff000000080018:	d5181000 	msr	sctlr_el1, x0
ffff00000008001c:	580003e0 	ldr	x0, ffff000000080098 <clear_bss_end+0x24>
ffff000000080020:	d51c1100 	msr	hcr_el2, x0
ffff000000080024:	580003e0 	ldr	x0, ffff0000000800a0 <clear_bss_end+0x2c>
ffff000000080028:	d51c4000 	msr	spsr_el2, x0
ffff00000008002c:	100000e0 	adr	x0, ffff000000080048 <EL2_to_El1>
ffff000000080030:	d51c4020 	msr	elr_el2, x0
ffff000000080034:	10fffe60 	adr	x0, ffff000000080000 <_kernel_start>
ffff000000080038:	d51c4100 	msr	sp_el1, x0
ffff00000008003c:	58000362 	ldr	x2, ffff0000000800a8 <clear_bss_end+0x34>
ffff000000080040:	d51cc002 	msr	vbar_el2, x2
ffff000000080044:	d69f03e0 	eret

ffff000000080048 <EL2_to_El1>:
ffff000000080048:	58000340 	ldr	x0, ffff0000000800b0 <clear_bss_end+0x3c>
ffff00000008004c:	d5184000 	msr	spsr_el1, x0
ffff000000080050:	94000794 	bl	ffff000000081ea0 <enable_interrupt>
ffff000000080054:	b0000041 	adrp	x1, ffff000000089000 <task_allocate_status>
ffff000000080058:	90001462 	adrp	x2, ffff00000030c000 <__bss_end>
ffff00000008005c:	cb010042 	sub	x2, x2, x1
ffff000000080060:	d343fc42 	lsr	x2, x2, #3
ffff000000080064:	b4000082 	cbz	x2, ffff000000080074 <clear_bss_end>

ffff000000080068 <clear_bss>:
ffff000000080068:	f800843f 	str	xzr, [x1], #8
ffff00000008006c:	d1000442 	sub	x2, x2, #0x1
ffff000000080070:	b5ffffc2 	cbnz	x2, ffff000000080068 <clear_bss>

ffff000000080074 <clear_bss_end>:
ffff000000080074:	94000745 	bl	ffff000000081d88 <mmu_init>
ffff000000080078:	58000200 	ldr	x0, ffff0000000800b8 <clear_bss_end+0x44>
ffff00000008007c:	9100001f 	mov	sp, x0
ffff000000080080:	58000201 	ldr	x1, ffff0000000800c0 <clear_bss_end+0x4c>
ffff000000080084:	58000220 	ldr	x0, ffff0000000800c8 <clear_bss_end+0x54>
ffff000000080088:	d5181000 	msr	sctlr_el1, x0
ffff00000008008c:	d61f0020 	br	x1
	...
ffff000000080098:	80000000 	.word	0x80000000
ffff00000008009c:	00000000 	.word	0x00000000
ffff0000000800a0:	000003c5 	.word	0x000003c5
ffff0000000800a4:	00000000 	.word	0x00000000
ffff0000000800a8:	00080800 	.word	0x00080800
ffff0000000800ac:	ffff0000 	.word	0xffff0000
ffff0000000800b0:	000003c0 	.word	0x000003c0
ffff0000000800b4:	00000000 	.word	0x00000000
ffff0000000800b8:	00080000 	.word	0x00080000
ffff0000000800bc:	ffff0000 	.word	0xffff0000
ffff0000000800c0:	00082ee8 	.word	0x00082ee8
ffff0000000800c4:	ffff0000 	.word	0xffff0000
ffff0000000800c8:	00000001 	.word	0x00000001
	...

ffff000000080800 <__vectors1>:
ffff000000080800:	14000161 	b	ffff000000080d84 <sync_currentEL_spelx_EL1>
ffff000000080804:	d503201f 	nop
ffff000000080808:	d503201f 	nop
ffff00000008080c:	d503201f 	nop
ffff000000080810:	d503201f 	nop
ffff000000080814:	d503201f 	nop
ffff000000080818:	d503201f 	nop
ffff00000008081c:	d503201f 	nop
ffff000000080820:	d503201f 	nop
ffff000000080824:	d503201f 	nop
ffff000000080828:	d503201f 	nop
ffff00000008082c:	d503201f 	nop
ffff000000080830:	d503201f 	nop
ffff000000080834:	d503201f 	nop
ffff000000080838:	d503201f 	nop
ffff00000008083c:	d503201f 	nop
ffff000000080840:	d503201f 	nop
ffff000000080844:	d503201f 	nop
ffff000000080848:	d503201f 	nop
ffff00000008084c:	d503201f 	nop
ffff000000080850:	d503201f 	nop
ffff000000080854:	d503201f 	nop
ffff000000080858:	d503201f 	nop
ffff00000008085c:	d503201f 	nop
ffff000000080860:	d503201f 	nop
ffff000000080864:	d503201f 	nop
ffff000000080868:	d503201f 	nop
ffff00000008086c:	d503201f 	nop
ffff000000080870:	d503201f 	nop
ffff000000080874:	d503201f 	nop
ffff000000080878:	d503201f 	nop
ffff00000008087c:	d503201f 	nop
ffff000000080880:	14000141 	b	ffff000000080d84 <sync_currentEL_spelx_EL1>
ffff000000080884:	d503201f 	nop
ffff000000080888:	d503201f 	nop
ffff00000008088c:	d503201f 	nop
ffff000000080890:	d503201f 	nop
ffff000000080894:	d503201f 	nop
ffff000000080898:	d503201f 	nop
ffff00000008089c:	d503201f 	nop
ffff0000000808a0:	d503201f 	nop
ffff0000000808a4:	d503201f 	nop
ffff0000000808a8:	d503201f 	nop
ffff0000000808ac:	d503201f 	nop
ffff0000000808b0:	d503201f 	nop
ffff0000000808b4:	d503201f 	nop
ffff0000000808b8:	d503201f 	nop
ffff0000000808bc:	d503201f 	nop
ffff0000000808c0:	d503201f 	nop
ffff0000000808c4:	d503201f 	nop
ffff0000000808c8:	d503201f 	nop
ffff0000000808cc:	d503201f 	nop
ffff0000000808d0:	d503201f 	nop
ffff0000000808d4:	d503201f 	nop
ffff0000000808d8:	d503201f 	nop
ffff0000000808dc:	d503201f 	nop
ffff0000000808e0:	d503201f 	nop
ffff0000000808e4:	d503201f 	nop
ffff0000000808e8:	d503201f 	nop
ffff0000000808ec:	d503201f 	nop
ffff0000000808f0:	d503201f 	nop
ffff0000000808f4:	d503201f 	nop
ffff0000000808f8:	d503201f 	nop
ffff0000000808fc:	d503201f 	nop
ffff000000080900:	14000121 	b	ffff000000080d84 <sync_currentEL_spelx_EL1>
ffff000000080904:	d503201f 	nop
ffff000000080908:	d503201f 	nop
ffff00000008090c:	d503201f 	nop
ffff000000080910:	d503201f 	nop
ffff000000080914:	d503201f 	nop
ffff000000080918:	d503201f 	nop
ffff00000008091c:	d503201f 	nop
ffff000000080920:	d503201f 	nop
ffff000000080924:	d503201f 	nop
ffff000000080928:	d503201f 	nop
ffff00000008092c:	d503201f 	nop
ffff000000080930:	d503201f 	nop
ffff000000080934:	d503201f 	nop
ffff000000080938:	d503201f 	nop
ffff00000008093c:	d503201f 	nop
ffff000000080940:	d503201f 	nop
ffff000000080944:	d503201f 	nop
ffff000000080948:	d503201f 	nop
ffff00000008094c:	d503201f 	nop
ffff000000080950:	d503201f 	nop
ffff000000080954:	d503201f 	nop
ffff000000080958:	d503201f 	nop
ffff00000008095c:	d503201f 	nop
ffff000000080960:	d503201f 	nop
ffff000000080964:	d503201f 	nop
ffff000000080968:	d503201f 	nop
ffff00000008096c:	d503201f 	nop
ffff000000080970:	d503201f 	nop
ffff000000080974:	d503201f 	nop
ffff000000080978:	d503201f 	nop
ffff00000008097c:	d503201f 	nop
ffff000000080980:	14000101 	b	ffff000000080d84 <sync_currentEL_spelx_EL1>
ffff000000080984:	d503201f 	nop
ffff000000080988:	d503201f 	nop
ffff00000008098c:	d503201f 	nop
ffff000000080990:	d503201f 	nop
ffff000000080994:	d503201f 	nop
ffff000000080998:	d503201f 	nop
ffff00000008099c:	d503201f 	nop
ffff0000000809a0:	d503201f 	nop
ffff0000000809a4:	d503201f 	nop
ffff0000000809a8:	d503201f 	nop
ffff0000000809ac:	d503201f 	nop
ffff0000000809b0:	d503201f 	nop
ffff0000000809b4:	d503201f 	nop
ffff0000000809b8:	d503201f 	nop
ffff0000000809bc:	d503201f 	nop
ffff0000000809c0:	d503201f 	nop
ffff0000000809c4:	d503201f 	nop
ffff0000000809c8:	d503201f 	nop
ffff0000000809cc:	d503201f 	nop
ffff0000000809d0:	d503201f 	nop
ffff0000000809d4:	d503201f 	nop
ffff0000000809d8:	d503201f 	nop
ffff0000000809dc:	d503201f 	nop
ffff0000000809e0:	d503201f 	nop
ffff0000000809e4:	d503201f 	nop
ffff0000000809e8:	d503201f 	nop
ffff0000000809ec:	d503201f 	nop
ffff0000000809f0:	d503201f 	nop
ffff0000000809f4:	d503201f 	nop
ffff0000000809f8:	d503201f 	nop
ffff0000000809fc:	d503201f 	nop
ffff000000080a00:	140000e1 	b	ffff000000080d84 <sync_currentEL_spelx_EL1>
ffff000000080a04:	d503201f 	nop
ffff000000080a08:	d503201f 	nop
ffff000000080a0c:	d503201f 	nop
ffff000000080a10:	d503201f 	nop
ffff000000080a14:	d503201f 	nop
ffff000000080a18:	d503201f 	nop
ffff000000080a1c:	d503201f 	nop
ffff000000080a20:	d503201f 	nop
ffff000000080a24:	d503201f 	nop
ffff000000080a28:	d503201f 	nop
ffff000000080a2c:	d503201f 	nop
ffff000000080a30:	d503201f 	nop
ffff000000080a34:	d503201f 	nop
ffff000000080a38:	d503201f 	nop
ffff000000080a3c:	d503201f 	nop
ffff000000080a40:	d503201f 	nop
ffff000000080a44:	d503201f 	nop
ffff000000080a48:	d503201f 	nop
ffff000000080a4c:	d503201f 	nop
ffff000000080a50:	d503201f 	nop
ffff000000080a54:	d503201f 	nop
ffff000000080a58:	d503201f 	nop
ffff000000080a5c:	d503201f 	nop
ffff000000080a60:	d503201f 	nop
ffff000000080a64:	d503201f 	nop
ffff000000080a68:	d503201f 	nop
ffff000000080a6c:	d503201f 	nop
ffff000000080a70:	d503201f 	nop
ffff000000080a74:	d503201f 	nop
ffff000000080a78:	d503201f 	nop
ffff000000080a7c:	d503201f 	nop
ffff000000080a80:	140000ec 	b	ffff000000080e30 <irq_currentEL_spelx_EL1>
ffff000000080a84:	d503201f 	nop
ffff000000080a88:	d503201f 	nop
ffff000000080a8c:	d503201f 	nop
ffff000000080a90:	d503201f 	nop
ffff000000080a94:	d503201f 	nop
ffff000000080a98:	d503201f 	nop
ffff000000080a9c:	d503201f 	nop
ffff000000080aa0:	d503201f 	nop
ffff000000080aa4:	d503201f 	nop
ffff000000080aa8:	d503201f 	nop
ffff000000080aac:	d503201f 	nop
ffff000000080ab0:	d503201f 	nop
ffff000000080ab4:	d503201f 	nop
ffff000000080ab8:	d503201f 	nop
ffff000000080abc:	d503201f 	nop
ffff000000080ac0:	d503201f 	nop
ffff000000080ac4:	d503201f 	nop
ffff000000080ac8:	d503201f 	nop
ffff000000080acc:	d503201f 	nop
ffff000000080ad0:	d503201f 	nop
ffff000000080ad4:	d503201f 	nop
ffff000000080ad8:	d503201f 	nop
ffff000000080adc:	d503201f 	nop
ffff000000080ae0:	d503201f 	nop
ffff000000080ae4:	d503201f 	nop
ffff000000080ae8:	d503201f 	nop
ffff000000080aec:	d503201f 	nop
ffff000000080af0:	d503201f 	nop
ffff000000080af4:	d503201f 	nop
ffff000000080af8:	d503201f 	nop
ffff000000080afc:	d503201f 	nop
ffff000000080b00:	140000a1 	b	ffff000000080d84 <sync_currentEL_spelx_EL1>
ffff000000080b04:	d503201f 	nop
ffff000000080b08:	d503201f 	nop
ffff000000080b0c:	d503201f 	nop
ffff000000080b10:	d503201f 	nop
ffff000000080b14:	d503201f 	nop
ffff000000080b18:	d503201f 	nop
ffff000000080b1c:	d503201f 	nop
ffff000000080b20:	d503201f 	nop
ffff000000080b24:	d503201f 	nop
ffff000000080b28:	d503201f 	nop
ffff000000080b2c:	d503201f 	nop
ffff000000080b30:	d503201f 	nop
ffff000000080b34:	d503201f 	nop
ffff000000080b38:	d503201f 	nop
ffff000000080b3c:	d503201f 	nop
ffff000000080b40:	d503201f 	nop
ffff000000080b44:	d503201f 	nop
ffff000000080b48:	d503201f 	nop
ffff000000080b4c:	d503201f 	nop
ffff000000080b50:	d503201f 	nop
ffff000000080b54:	d503201f 	nop
ffff000000080b58:	d503201f 	nop
ffff000000080b5c:	d503201f 	nop
ffff000000080b60:	d503201f 	nop
ffff000000080b64:	d503201f 	nop
ffff000000080b68:	d503201f 	nop
ffff000000080b6c:	d503201f 	nop
ffff000000080b70:	d503201f 	nop
ffff000000080b74:	d503201f 	nop
ffff000000080b78:	d503201f 	nop
ffff000000080b7c:	d503201f 	nop
ffff000000080b80:	140000d7 	b	ffff000000080edc <sError_currentEL_spelx_EL1>
ffff000000080b84:	d503201f 	nop
ffff000000080b88:	d503201f 	nop
ffff000000080b8c:	d503201f 	nop
ffff000000080b90:	d503201f 	nop
ffff000000080b94:	d503201f 	nop
ffff000000080b98:	d503201f 	nop
ffff000000080b9c:	d503201f 	nop
ffff000000080ba0:	d503201f 	nop
ffff000000080ba4:	d503201f 	nop
ffff000000080ba8:	d503201f 	nop
ffff000000080bac:	d503201f 	nop
ffff000000080bb0:	d503201f 	nop
ffff000000080bb4:	d503201f 	nop
ffff000000080bb8:	d503201f 	nop
ffff000000080bbc:	d503201f 	nop
ffff000000080bc0:	d503201f 	nop
ffff000000080bc4:	d503201f 	nop
ffff000000080bc8:	d503201f 	nop
ffff000000080bcc:	d503201f 	nop
ffff000000080bd0:	d503201f 	nop
ffff000000080bd4:	d503201f 	nop
ffff000000080bd8:	d503201f 	nop
ffff000000080bdc:	d503201f 	nop
ffff000000080be0:	d503201f 	nop
ffff000000080be4:	d503201f 	nop
ffff000000080be8:	d503201f 	nop
ffff000000080bec:	d503201f 	nop
ffff000000080bf0:	d503201f 	nop
ffff000000080bf4:	d503201f 	nop
ffff000000080bf8:	d503201f 	nop
ffff000000080bfc:	d503201f 	nop
ffff000000080c00:	140000e2 	b	ffff000000080f88 <sync_arch64_EL0>
ffff000000080c04:	d503201f 	nop
ffff000000080c08:	d503201f 	nop
ffff000000080c0c:	d503201f 	nop
ffff000000080c10:	d503201f 	nop
ffff000000080c14:	d503201f 	nop
ffff000000080c18:	d503201f 	nop
ffff000000080c1c:	d503201f 	nop
ffff000000080c20:	d503201f 	nop
ffff000000080c24:	d503201f 	nop
ffff000000080c28:	d503201f 	nop
ffff000000080c2c:	d503201f 	nop
ffff000000080c30:	d503201f 	nop
ffff000000080c34:	d503201f 	nop
ffff000000080c38:	d503201f 	nop
ffff000000080c3c:	d503201f 	nop
ffff000000080c40:	d503201f 	nop
ffff000000080c44:	d503201f 	nop
ffff000000080c48:	d503201f 	nop
ffff000000080c4c:	d503201f 	nop
ffff000000080c50:	d503201f 	nop
ffff000000080c54:	d503201f 	nop
ffff000000080c58:	d503201f 	nop
ffff000000080c5c:	d503201f 	nop
ffff000000080c60:	d503201f 	nop
ffff000000080c64:	d503201f 	nop
ffff000000080c68:	d503201f 	nop
ffff000000080c6c:	d503201f 	nop
ffff000000080c70:	d503201f 	nop
ffff000000080c74:	d503201f 	nop
ffff000000080c78:	d503201f 	nop
ffff000000080c7c:	d503201f 	nop
ffff000000080c80:	1400006c 	b	ffff000000080e30 <irq_currentEL_spelx_EL1>
ffff000000080c84:	d503201f 	nop
ffff000000080c88:	d503201f 	nop
ffff000000080c8c:	d503201f 	nop
ffff000000080c90:	d503201f 	nop
ffff000000080c94:	d503201f 	nop
ffff000000080c98:	d503201f 	nop
ffff000000080c9c:	d503201f 	nop
ffff000000080ca0:	d503201f 	nop
ffff000000080ca4:	d503201f 	nop
ffff000000080ca8:	d503201f 	nop
ffff000000080cac:	d503201f 	nop
ffff000000080cb0:	d503201f 	nop
ffff000000080cb4:	d503201f 	nop
ffff000000080cb8:	d503201f 	nop
ffff000000080cbc:	d503201f 	nop
ffff000000080cc0:	d503201f 	nop
ffff000000080cc4:	d503201f 	nop
ffff000000080cc8:	d503201f 	nop
ffff000000080ccc:	d503201f 	nop
ffff000000080cd0:	d503201f 	nop
ffff000000080cd4:	d503201f 	nop
ffff000000080cd8:	d503201f 	nop
ffff000000080cdc:	d503201f 	nop
ffff000000080ce0:	d503201f 	nop
ffff000000080ce4:	d503201f 	nop
ffff000000080ce8:	d503201f 	nop
ffff000000080cec:	d503201f 	nop
ffff000000080cf0:	d503201f 	nop
ffff000000080cf4:	d503201f 	nop
ffff000000080cf8:	d503201f 	nop
ffff000000080cfc:	d503201f 	nop
ffff000000080d00:	140000a2 	b	ffff000000080f88 <sync_arch64_EL0>
ffff000000080d04:	d503201f 	nop
ffff000000080d08:	d503201f 	nop
ffff000000080d0c:	d503201f 	nop
ffff000000080d10:	d503201f 	nop
ffff000000080d14:	d503201f 	nop
ffff000000080d18:	d503201f 	nop
ffff000000080d1c:	d503201f 	nop
ffff000000080d20:	d503201f 	nop
ffff000000080d24:	d503201f 	nop
ffff000000080d28:	d503201f 	nop
ffff000000080d2c:	d503201f 	nop
ffff000000080d30:	d503201f 	nop
ffff000000080d34:	d503201f 	nop
ffff000000080d38:	d503201f 	nop
ffff000000080d3c:	d503201f 	nop
ffff000000080d40:	d503201f 	nop
ffff000000080d44:	d503201f 	nop
ffff000000080d48:	d503201f 	nop
ffff000000080d4c:	d503201f 	nop
ffff000000080d50:	d503201f 	nop
ffff000000080d54:	d503201f 	nop
ffff000000080d58:	d503201f 	nop
ffff000000080d5c:	d503201f 	nop
ffff000000080d60:	d503201f 	nop
ffff000000080d64:	d503201f 	nop
ffff000000080d68:	d503201f 	nop
ffff000000080d6c:	d503201f 	nop
ffff000000080d70:	d503201f 	nop
ffff000000080d74:	d503201f 	nop
ffff000000080d78:	d503201f 	nop
ffff000000080d7c:	d503201f 	nop
ffff000000080d80:	14000082 	b	ffff000000080f88 <sync_arch64_EL0>

ffff000000080d84 <sync_currentEL_spelx_EL1>:
ffff000000080d84:	a94007e0 	ldp	x0, x1, [sp]
ffff000000080d88:	d538d080 	mrs	x0, tpidr_el1
ffff000000080d8c:	91018000 	add	x0, x0, #0x60
ffff000000080d90:	f9400000 	ldr	x0, [x0]
ffff000000080d94:	910003e1 	mov	x1, sp
ffff000000080d98:	9100001f 	mov	sp, x0
ffff000000080d9c:	a9000420 	stp	x0, x1, [x1]
ffff000000080da0:	d10403ff 	sub	sp, sp, #0x100
ffff000000080da4:	a90007e0 	stp	x0, x1, [sp]
ffff000000080da8:	a9010fe2 	stp	x2, x3, [sp, #16]
ffff000000080dac:	a90217e4 	stp	x4, x5, [sp, #32]
ffff000000080db0:	a9031fe6 	stp	x6, x7, [sp, #48]
ffff000000080db4:	a90427e8 	stp	x8, x9, [sp, #64]
ffff000000080db8:	a9052fea 	stp	x10, x11, [sp, #80]
ffff000000080dbc:	a90637ec 	stp	x12, x13, [sp, #96]
ffff000000080dc0:	a9073fee 	stp	x14, x15, [sp, #112]
ffff000000080dc4:	a90847f0 	stp	x16, x17, [sp, #128]
ffff000000080dc8:	a9094ff2 	stp	x18, x19, [sp, #144]
ffff000000080dcc:	a90a57f4 	stp	x20, x21, [sp, #160]
ffff000000080dd0:	a90b5ff6 	stp	x22, x23, [sp, #176]
ffff000000080dd4:	a90c67f8 	stp	x24, x25, [sp, #192]
ffff000000080dd8:	a90d6ffa 	stp	x26, x27, [sp, #208]
ffff000000080ddc:	a90e77fc 	stp	x28, x29, [sp, #224]
ffff000000080de0:	f9007bfe 	str	x30, [sp, #240]
ffff000000080de4:	940008dd 	bl	ffff000000083158 <sync_exc1_handler>
ffff000000080de8:	a94007e0 	ldp	x0, x1, [sp]
ffff000000080dec:	a9410fe2 	ldp	x2, x3, [sp, #16]
ffff000000080df0:	a94217e4 	ldp	x4, x5, [sp, #32]
ffff000000080df4:	a9431fe6 	ldp	x6, x7, [sp, #48]
ffff000000080df8:	a94427e8 	ldp	x8, x9, [sp, #64]
ffff000000080dfc:	a9452fea 	ldp	x10, x11, [sp, #80]
ffff000000080e00:	a94637ec 	ldp	x12, x13, [sp, #96]
ffff000000080e04:	a9473fee 	ldp	x14, x15, [sp, #112]
ffff000000080e08:	a94847f0 	ldp	x16, x17, [sp, #128]
ffff000000080e0c:	a9494ff2 	ldp	x18, x19, [sp, #144]
ffff000000080e10:	a94a57f4 	ldp	x20, x21, [sp, #160]
ffff000000080e14:	a94b5ff6 	ldp	x22, x23, [sp, #176]
ffff000000080e18:	a94c67f8 	ldp	x24, x25, [sp, #192]
ffff000000080e1c:	a94d6ffa 	ldp	x26, x27, [sp, #208]
ffff000000080e20:	a94e77fc 	ldp	x28, x29, [sp, #224]
ffff000000080e24:	f9407bfe 	ldr	x30, [sp, #240]
ffff000000080e28:	910403ff 	add	sp, sp, #0x100
ffff000000080e2c:	d69f03e0 	eret

ffff000000080e30 <irq_currentEL_spelx_EL1>:
ffff000000080e30:	a94007e0 	ldp	x0, x1, [sp]
ffff000000080e34:	d538d080 	mrs	x0, tpidr_el1
ffff000000080e38:	91018000 	add	x0, x0, #0x60
ffff000000080e3c:	f9400000 	ldr	x0, [x0]
ffff000000080e40:	910003e1 	mov	x1, sp
ffff000000080e44:	9100001f 	mov	sp, x0
ffff000000080e48:	a9000420 	stp	x0, x1, [x1]
ffff000000080e4c:	d10403ff 	sub	sp, sp, #0x100
ffff000000080e50:	a90007e0 	stp	x0, x1, [sp]
ffff000000080e54:	a9010fe2 	stp	x2, x3, [sp, #16]
ffff000000080e58:	a90217e4 	stp	x4, x5, [sp, #32]
ffff000000080e5c:	a9031fe6 	stp	x6, x7, [sp, #48]
ffff000000080e60:	a90427e8 	stp	x8, x9, [sp, #64]
ffff000000080e64:	a9052fea 	stp	x10, x11, [sp, #80]
ffff000000080e68:	a90637ec 	stp	x12, x13, [sp, #96]
ffff000000080e6c:	a9073fee 	stp	x14, x15, [sp, #112]
ffff000000080e70:	a90847f0 	stp	x16, x17, [sp, #128]
ffff000000080e74:	a9094ff2 	stp	x18, x19, [sp, #144]
ffff000000080e78:	a90a57f4 	stp	x20, x21, [sp, #160]
ffff000000080e7c:	a90b5ff6 	stp	x22, x23, [sp, #176]
ffff000000080e80:	a90c67f8 	stp	x24, x25, [sp, #192]
ffff000000080e84:	a90d6ffa 	stp	x26, x27, [sp, #208]
ffff000000080e88:	a90e77fc 	stp	x28, x29, [sp, #224]
ffff000000080e8c:	f9007bfe 	str	x30, [sp, #240]
ffff000000080e90:	940008cb 	bl	ffff0000000831bc <irq_exc_handler>
ffff000000080e94:	a94007e0 	ldp	x0, x1, [sp]
ffff000000080e98:	a9410fe2 	ldp	x2, x3, [sp, #16]
ffff000000080e9c:	a94217e4 	ldp	x4, x5, [sp, #32]
ffff000000080ea0:	a9431fe6 	ldp	x6, x7, [sp, #48]
ffff000000080ea4:	a94427e8 	ldp	x8, x9, [sp, #64]
ffff000000080ea8:	a9452fea 	ldp	x10, x11, [sp, #80]
ffff000000080eac:	a94637ec 	ldp	x12, x13, [sp, #96]
ffff000000080eb0:	a9473fee 	ldp	x14, x15, [sp, #112]
ffff000000080eb4:	a94847f0 	ldp	x16, x17, [sp, #128]
ffff000000080eb8:	a9494ff2 	ldp	x18, x19, [sp, #144]
ffff000000080ebc:	a94a57f4 	ldp	x20, x21, [sp, #160]
ffff000000080ec0:	a94b5ff6 	ldp	x22, x23, [sp, #176]
ffff000000080ec4:	a94c67f8 	ldp	x24, x25, [sp, #192]
ffff000000080ec8:	a94d6ffa 	ldp	x26, x27, [sp, #208]
ffff000000080ecc:	a94e77fc 	ldp	x28, x29, [sp, #224]
ffff000000080ed0:	f9407bfe 	ldr	x30, [sp, #240]
ffff000000080ed4:	910403ff 	add	sp, sp, #0x100
ffff000000080ed8:	d69f03e0 	eret

ffff000000080edc <sError_currentEL_spelx_EL1>:
ffff000000080edc:	a94007e0 	ldp	x0, x1, [sp]
ffff000000080ee0:	d538d080 	mrs	x0, tpidr_el1
ffff000000080ee4:	91018000 	add	x0, x0, #0x60
ffff000000080ee8:	f9400000 	ldr	x0, [x0]
ffff000000080eec:	910003e1 	mov	x1, sp
ffff000000080ef0:	9100001f 	mov	sp, x0
ffff000000080ef4:	a9000420 	stp	x0, x1, [x1]
ffff000000080ef8:	d10403ff 	sub	sp, sp, #0x100
ffff000000080efc:	a90007e0 	stp	x0, x1, [sp]
ffff000000080f00:	a9010fe2 	stp	x2, x3, [sp, #16]
ffff000000080f04:	a90217e4 	stp	x4, x5, [sp, #32]
ffff000000080f08:	a9031fe6 	stp	x6, x7, [sp, #48]
ffff000000080f0c:	a90427e8 	stp	x8, x9, [sp, #64]
ffff000000080f10:	a9052fea 	stp	x10, x11, [sp, #80]
ffff000000080f14:	a90637ec 	stp	x12, x13, [sp, #96]
ffff000000080f18:	a9073fee 	stp	x14, x15, [sp, #112]
ffff000000080f1c:	a90847f0 	stp	x16, x17, [sp, #128]
ffff000000080f20:	a9094ff2 	stp	x18, x19, [sp, #144]
ffff000000080f24:	a90a57f4 	stp	x20, x21, [sp, #160]
ffff000000080f28:	a90b5ff6 	stp	x22, x23, [sp, #176]
ffff000000080f2c:	a90c67f8 	stp	x24, x25, [sp, #192]
ffff000000080f30:	a90d6ffa 	stp	x26, x27, [sp, #208]
ffff000000080f34:	a90e77fc 	stp	x28, x29, [sp, #224]
ffff000000080f38:	f9007bfe 	str	x30, [sp, #240]
ffff000000080f3c:	940008b2 	bl	ffff000000083204 <SError_handler>
ffff000000080f40:	a94007e0 	ldp	x0, x1, [sp]
ffff000000080f44:	a9410fe2 	ldp	x2, x3, [sp, #16]
ffff000000080f48:	a94217e4 	ldp	x4, x5, [sp, #32]
ffff000000080f4c:	a9431fe6 	ldp	x6, x7, [sp, #48]
ffff000000080f50:	a94427e8 	ldp	x8, x9, [sp, #64]
ffff000000080f54:	a9452fea 	ldp	x10, x11, [sp, #80]
ffff000000080f58:	a94637ec 	ldp	x12, x13, [sp, #96]
ffff000000080f5c:	a9473fee 	ldp	x14, x15, [sp, #112]
ffff000000080f60:	a94847f0 	ldp	x16, x17, [sp, #128]
ffff000000080f64:	a9494ff2 	ldp	x18, x19, [sp, #144]
ffff000000080f68:	a94a57f4 	ldp	x20, x21, [sp, #160]
ffff000000080f6c:	a94b5ff6 	ldp	x22, x23, [sp, #176]
ffff000000080f70:	a94c67f8 	ldp	x24, x25, [sp, #192]
ffff000000080f74:	a94d6ffa 	ldp	x26, x27, [sp, #208]
ffff000000080f78:	a94e77fc 	ldp	x28, x29, [sp, #224]
ffff000000080f7c:	f9407bfe 	ldr	x30, [sp, #240]
ffff000000080f80:	910403ff 	add	sp, sp, #0x100
ffff000000080f84:	d69f03e0 	eret

ffff000000080f88 <sync_arch64_EL0>:
ffff000000080f88:	a94007e0 	ldp	x0, x1, [sp]
ffff000000080f8c:	d538d080 	mrs	x0, tpidr_el1
ffff000000080f90:	91018000 	add	x0, x0, #0x60
ffff000000080f94:	f9400000 	ldr	x0, [x0]
ffff000000080f98:	910003e1 	mov	x1, sp
ffff000000080f9c:	9100001f 	mov	sp, x0
ffff000000080fa0:	a9000420 	stp	x0, x1, [x1]
ffff000000080fa4:	d10403ff 	sub	sp, sp, #0x100
ffff000000080fa8:	a90007e0 	stp	x0, x1, [sp]
ffff000000080fac:	a9010fe2 	stp	x2, x3, [sp, #16]
ffff000000080fb0:	a90217e4 	stp	x4, x5, [sp, #32]
ffff000000080fb4:	a9031fe6 	stp	x6, x7, [sp, #48]
ffff000000080fb8:	a90427e8 	stp	x8, x9, [sp, #64]
ffff000000080fbc:	a9052fea 	stp	x10, x11, [sp, #80]
ffff000000080fc0:	a90637ec 	stp	x12, x13, [sp, #96]
ffff000000080fc4:	a9073fee 	stp	x14, x15, [sp, #112]
ffff000000080fc8:	a90847f0 	stp	x16, x17, [sp, #128]
ffff000000080fcc:	a9094ff2 	stp	x18, x19, [sp, #144]
ffff000000080fd0:	a90a57f4 	stp	x20, x21, [sp, #160]
ffff000000080fd4:	a90b5ff6 	stp	x22, x23, [sp, #176]
ffff000000080fd8:	a90c67f8 	stp	x24, x25, [sp, #192]
ffff000000080fdc:	a90d6ffa 	stp	x26, x27, [sp, #208]
ffff000000080fe0:	a90e77fc 	stp	x28, x29, [sp, #224]
ffff000000080fe4:	f9007bfe 	str	x30, [sp, #240]
ffff000000080fe8:	94000845 	bl	ffff0000000830fc <sync_exc0_handler>
ffff000000080fec:	a94007e0 	ldp	x0, x1, [sp]
ffff000000080ff0:	a9410fe2 	ldp	x2, x3, [sp, #16]
ffff000000080ff4:	a94217e4 	ldp	x4, x5, [sp, #32]
ffff000000080ff8:	a9431fe6 	ldp	x6, x7, [sp, #48]
ffff000000080ffc:	a94427e8 	ldp	x8, x9, [sp, #64]
ffff000000081000:	a9452fea 	ldp	x10, x11, [sp, #80]
ffff000000081004:	a94637ec 	ldp	x12, x13, [sp, #96]
ffff000000081008:	a9473fee 	ldp	x14, x15, [sp, #112]
ffff00000008100c:	a94847f0 	ldp	x16, x17, [sp, #128]
ffff000000081010:	a9494ff2 	ldp	x18, x19, [sp, #144]
ffff000000081014:	a94a57f4 	ldp	x20, x21, [sp, #160]
ffff000000081018:	a94b5ff6 	ldp	x22, x23, [sp, #176]
ffff00000008101c:	a94c67f8 	ldp	x24, x25, [sp, #192]
ffff000000081020:	a94d6ffa 	ldp	x26, x27, [sp, #208]
ffff000000081024:	a94e77fc 	ldp	x28, x29, [sp, #224]
ffff000000081028:	f9407bfe 	ldr	x30, [sp, #240]
ffff00000008102c:	910403ff 	add	sp, sp, #0x100
ffff000000081030:	d69f03e0 	eret
ffff000000081034:	d503201f 	nop
ffff000000081038:	d503201f 	nop
ffff00000008103c:	d503201f 	nop
ffff000000081040:	d503201f 	nop
ffff000000081044:	d503201f 	nop
ffff000000081048:	d503201f 	nop
ffff00000008104c:	d503201f 	nop
ffff000000081050:	d503201f 	nop
ffff000000081054:	d503201f 	nop
ffff000000081058:	d503201f 	nop
ffff00000008105c:	d503201f 	nop
ffff000000081060:	d503201f 	nop
ffff000000081064:	d503201f 	nop
ffff000000081068:	d503201f 	nop
ffff00000008106c:	d503201f 	nop
ffff000000081070:	d503201f 	nop
ffff000000081074:	d503201f 	nop
ffff000000081078:	d503201f 	nop
ffff00000008107c:	d503201f 	nop
ffff000000081080:	d503201f 	nop
ffff000000081084:	d503201f 	nop
ffff000000081088:	d503201f 	nop
ffff00000008108c:	d503201f 	nop
ffff000000081090:	d503201f 	nop
ffff000000081094:	d503201f 	nop
ffff000000081098:	d503201f 	nop
ffff00000008109c:	d503201f 	nop
ffff0000000810a0:	d503201f 	nop
ffff0000000810a4:	d503201f 	nop
ffff0000000810a8:	d503201f 	nop
ffff0000000810ac:	d503201f 	nop
ffff0000000810b0:	d503201f 	nop
ffff0000000810b4:	d503201f 	nop
ffff0000000810b8:	d503201f 	nop
ffff0000000810bc:	d503201f 	nop
ffff0000000810c0:	d503201f 	nop
ffff0000000810c4:	d503201f 	nop
ffff0000000810c8:	d503201f 	nop
ffff0000000810cc:	d503201f 	nop
ffff0000000810d0:	d503201f 	nop
ffff0000000810d4:	d503201f 	nop
ffff0000000810d8:	d503201f 	nop
ffff0000000810dc:	d503201f 	nop
ffff0000000810e0:	d503201f 	nop
ffff0000000810e4:	d503201f 	nop
ffff0000000810e8:	d503201f 	nop
ffff0000000810ec:	d503201f 	nop
ffff0000000810f0:	d503201f 	nop
ffff0000000810f4:	d503201f 	nop
ffff0000000810f8:	d503201f 	nop
ffff0000000810fc:	d503201f 	nop
ffff000000081100:	d503201f 	nop
ffff000000081104:	d503201f 	nop
ffff000000081108:	d503201f 	nop
ffff00000008110c:	d503201f 	nop
ffff000000081110:	d503201f 	nop
ffff000000081114:	d503201f 	nop
ffff000000081118:	d503201f 	nop
ffff00000008111c:	d503201f 	nop
ffff000000081120:	d503201f 	nop
ffff000000081124:	d503201f 	nop
ffff000000081128:	d503201f 	nop
ffff00000008112c:	d503201f 	nop
ffff000000081130:	d503201f 	nop
ffff000000081134:	d503201f 	nop
ffff000000081138:	d503201f 	nop
ffff00000008113c:	d503201f 	nop
ffff000000081140:	d503201f 	nop
ffff000000081144:	d503201f 	nop
ffff000000081148:	d503201f 	nop
ffff00000008114c:	d503201f 	nop
ffff000000081150:	d503201f 	nop
ffff000000081154:	d503201f 	nop
ffff000000081158:	d503201f 	nop
ffff00000008115c:	d503201f 	nop
ffff000000081160:	d503201f 	nop
ffff000000081164:	d503201f 	nop
ffff000000081168:	d503201f 	nop
ffff00000008116c:	d503201f 	nop
ffff000000081170:	d503201f 	nop
ffff000000081174:	d503201f 	nop
ffff000000081178:	d503201f 	nop
ffff00000008117c:	d503201f 	nop
ffff000000081180:	d503201f 	nop
ffff000000081184:	d503201f 	nop
ffff000000081188:	d503201f 	nop
ffff00000008118c:	d503201f 	nop
ffff000000081190:	d503201f 	nop
ffff000000081194:	d503201f 	nop
ffff000000081198:	d503201f 	nop
ffff00000008119c:	d503201f 	nop
ffff0000000811a0:	d503201f 	nop
ffff0000000811a4:	d503201f 	nop
ffff0000000811a8:	d503201f 	nop
ffff0000000811ac:	d503201f 	nop
ffff0000000811b0:	d503201f 	nop
ffff0000000811b4:	d503201f 	nop
ffff0000000811b8:	d503201f 	nop
ffff0000000811bc:	d503201f 	nop
ffff0000000811c0:	d503201f 	nop
ffff0000000811c4:	d503201f 	nop
ffff0000000811c8:	d503201f 	nop
ffff0000000811cc:	d503201f 	nop
ffff0000000811d0:	d503201f 	nop
ffff0000000811d4:	d503201f 	nop
ffff0000000811d8:	d503201f 	nop
ffff0000000811dc:	d503201f 	nop
ffff0000000811e0:	d503201f 	nop
ffff0000000811e4:	d503201f 	nop
ffff0000000811e8:	d503201f 	nop
ffff0000000811ec:	d503201f 	nop
ffff0000000811f0:	d503201f 	nop
ffff0000000811f4:	d503201f 	nop
ffff0000000811f8:	d503201f 	nop
ffff0000000811fc:	d503201f 	nop
ffff000000081200:	d503201f 	nop
ffff000000081204:	d503201f 	nop
ffff000000081208:	d503201f 	nop
ffff00000008120c:	d503201f 	nop
ffff000000081210:	d503201f 	nop
ffff000000081214:	d503201f 	nop
ffff000000081218:	d503201f 	nop
ffff00000008121c:	d503201f 	nop
ffff000000081220:	d503201f 	nop
ffff000000081224:	d503201f 	nop
ffff000000081228:	d503201f 	nop
ffff00000008122c:	d503201f 	nop
ffff000000081230:	d503201f 	nop
ffff000000081234:	d503201f 	nop
ffff000000081238:	d503201f 	nop
ffff00000008123c:	d503201f 	nop
ffff000000081240:	d503201f 	nop
ffff000000081244:	d503201f 	nop
ffff000000081248:	d503201f 	nop
ffff00000008124c:	d503201f 	nop
ffff000000081250:	d503201f 	nop
ffff000000081254:	d503201f 	nop
ffff000000081258:	d503201f 	nop
ffff00000008125c:	d503201f 	nop
ffff000000081260:	d503201f 	nop
ffff000000081264:	d503201f 	nop
ffff000000081268:	d503201f 	nop
ffff00000008126c:	d503201f 	nop
ffff000000081270:	d503201f 	nop
ffff000000081274:	d503201f 	nop
ffff000000081278:	d503201f 	nop
ffff00000008127c:	d503201f 	nop
ffff000000081280:	d503201f 	nop
ffff000000081284:	d503201f 	nop
ffff000000081288:	d503201f 	nop
ffff00000008128c:	d503201f 	nop
ffff000000081290:	d503201f 	nop
ffff000000081294:	d503201f 	nop
ffff000000081298:	d503201f 	nop
ffff00000008129c:	d503201f 	nop
ffff0000000812a0:	d503201f 	nop
ffff0000000812a4:	d503201f 	nop
ffff0000000812a8:	d503201f 	nop
ffff0000000812ac:	d503201f 	nop
ffff0000000812b0:	d503201f 	nop
ffff0000000812b4:	d503201f 	nop
ffff0000000812b8:	d503201f 	nop
ffff0000000812bc:	d503201f 	nop
ffff0000000812c0:	d503201f 	nop
ffff0000000812c4:	d503201f 	nop
ffff0000000812c8:	d503201f 	nop
ffff0000000812cc:	d503201f 	nop
ffff0000000812d0:	d503201f 	nop
ffff0000000812d4:	d503201f 	nop
ffff0000000812d8:	d503201f 	nop
ffff0000000812dc:	d503201f 	nop
ffff0000000812e0:	d503201f 	nop
ffff0000000812e4:	d503201f 	nop
ffff0000000812e8:	d503201f 	nop
ffff0000000812ec:	d503201f 	nop
ffff0000000812f0:	d503201f 	nop
ffff0000000812f4:	d503201f 	nop
ffff0000000812f8:	d503201f 	nop
ffff0000000812fc:	d503201f 	nop
ffff000000081300:	d503201f 	nop
ffff000000081304:	d503201f 	nop
ffff000000081308:	d503201f 	nop
ffff00000008130c:	d503201f 	nop
ffff000000081310:	d503201f 	nop
ffff000000081314:	d503201f 	nop
ffff000000081318:	d503201f 	nop
ffff00000008131c:	d503201f 	nop
ffff000000081320:	d503201f 	nop
ffff000000081324:	d503201f 	nop
ffff000000081328:	d503201f 	nop
ffff00000008132c:	d503201f 	nop
ffff000000081330:	d503201f 	nop
ffff000000081334:	d503201f 	nop
ffff000000081338:	d503201f 	nop
ffff00000008133c:	d503201f 	nop
ffff000000081340:	d503201f 	nop
ffff000000081344:	d503201f 	nop
ffff000000081348:	d503201f 	nop
ffff00000008134c:	d503201f 	nop
ffff000000081350:	d503201f 	nop
ffff000000081354:	d503201f 	nop
ffff000000081358:	d503201f 	nop
ffff00000008135c:	d503201f 	nop
ffff000000081360:	d503201f 	nop
ffff000000081364:	d503201f 	nop
ffff000000081368:	d503201f 	nop
ffff00000008136c:	d503201f 	nop
ffff000000081370:	d503201f 	nop
ffff000000081374:	d503201f 	nop
ffff000000081378:	d503201f 	nop
ffff00000008137c:	d503201f 	nop
ffff000000081380:	d503201f 	nop
ffff000000081384:	d503201f 	nop
ffff000000081388:	d503201f 	nop
ffff00000008138c:	d503201f 	nop
ffff000000081390:	d503201f 	nop
ffff000000081394:	d503201f 	nop
ffff000000081398:	d503201f 	nop
ffff00000008139c:	d503201f 	nop
ffff0000000813a0:	d503201f 	nop
ffff0000000813a4:	d503201f 	nop
ffff0000000813a8:	d503201f 	nop
ffff0000000813ac:	d503201f 	nop
ffff0000000813b0:	d503201f 	nop
ffff0000000813b4:	d503201f 	nop
ffff0000000813b8:	d503201f 	nop
ffff0000000813bc:	d503201f 	nop
ffff0000000813c0:	d503201f 	nop
ffff0000000813c4:	d503201f 	nop
ffff0000000813c8:	d503201f 	nop
ffff0000000813cc:	d503201f 	nop
ffff0000000813d0:	d503201f 	nop
ffff0000000813d4:	d503201f 	nop
ffff0000000813d8:	d503201f 	nop
ffff0000000813dc:	d503201f 	nop
ffff0000000813e0:	d503201f 	nop
ffff0000000813e4:	d503201f 	nop
ffff0000000813e8:	d503201f 	nop
ffff0000000813ec:	d503201f 	nop
ffff0000000813f0:	d503201f 	nop
ffff0000000813f4:	d503201f 	nop
ffff0000000813f8:	d503201f 	nop
ffff0000000813fc:	d503201f 	nop
ffff000000081400:	d503201f 	nop
ffff000000081404:	d503201f 	nop
ffff000000081408:	d503201f 	nop
ffff00000008140c:	d503201f 	nop
ffff000000081410:	d503201f 	nop
ffff000000081414:	d503201f 	nop
ffff000000081418:	d503201f 	nop
ffff00000008141c:	d503201f 	nop
ffff000000081420:	d503201f 	nop
ffff000000081424:	d503201f 	nop
ffff000000081428:	d503201f 	nop
ffff00000008142c:	d503201f 	nop
ffff000000081430:	d503201f 	nop
ffff000000081434:	d503201f 	nop
ffff000000081438:	d503201f 	nop
ffff00000008143c:	d503201f 	nop
ffff000000081440:	d503201f 	nop
ffff000000081444:	d503201f 	nop
ffff000000081448:	d503201f 	nop
ffff00000008144c:	d503201f 	nop
ffff000000081450:	d503201f 	nop
ffff000000081454:	d503201f 	nop
ffff000000081458:	d503201f 	nop
ffff00000008145c:	d503201f 	nop
ffff000000081460:	d503201f 	nop
ffff000000081464:	d503201f 	nop
ffff000000081468:	d503201f 	nop
ffff00000008146c:	d503201f 	nop
ffff000000081470:	d503201f 	nop
ffff000000081474:	d503201f 	nop
ffff000000081478:	d503201f 	nop
ffff00000008147c:	d503201f 	nop
ffff000000081480:	d503201f 	nop
ffff000000081484:	d503201f 	nop
ffff000000081488:	d503201f 	nop
ffff00000008148c:	d503201f 	nop
ffff000000081490:	d503201f 	nop
ffff000000081494:	d503201f 	nop
ffff000000081498:	d503201f 	nop
ffff00000008149c:	d503201f 	nop
ffff0000000814a0:	d503201f 	nop
ffff0000000814a4:	d503201f 	nop
ffff0000000814a8:	d503201f 	nop
ffff0000000814ac:	d503201f 	nop
ffff0000000814b0:	d503201f 	nop
ffff0000000814b4:	d503201f 	nop
ffff0000000814b8:	d503201f 	nop
ffff0000000814bc:	d503201f 	nop
ffff0000000814c0:	d503201f 	nop
ffff0000000814c4:	d503201f 	nop
ffff0000000814c8:	d503201f 	nop
ffff0000000814cc:	d503201f 	nop
ffff0000000814d0:	d503201f 	nop
ffff0000000814d4:	d503201f 	nop
ffff0000000814d8:	d503201f 	nop
ffff0000000814dc:	d503201f 	nop
ffff0000000814e0:	d503201f 	nop
ffff0000000814e4:	d503201f 	nop
ffff0000000814e8:	d503201f 	nop
ffff0000000814ec:	d503201f 	nop
ffff0000000814f0:	d503201f 	nop
ffff0000000814f4:	d503201f 	nop
ffff0000000814f8:	d503201f 	nop
ffff0000000814fc:	d503201f 	nop
ffff000000081500:	d503201f 	nop
ffff000000081504:	d503201f 	nop
ffff000000081508:	d503201f 	nop
ffff00000008150c:	d503201f 	nop
ffff000000081510:	d503201f 	nop
ffff000000081514:	d503201f 	nop
ffff000000081518:	d503201f 	nop
ffff00000008151c:	d503201f 	nop
ffff000000081520:	d503201f 	nop
ffff000000081524:	d503201f 	nop
ffff000000081528:	d503201f 	nop
ffff00000008152c:	d503201f 	nop
ffff000000081530:	d503201f 	nop
ffff000000081534:	d503201f 	nop
ffff000000081538:	d503201f 	nop
ffff00000008153c:	d503201f 	nop
ffff000000081540:	d503201f 	nop
ffff000000081544:	d503201f 	nop
ffff000000081548:	d503201f 	nop
ffff00000008154c:	d503201f 	nop
ffff000000081550:	d503201f 	nop
ffff000000081554:	d503201f 	nop
ffff000000081558:	d503201f 	nop
ffff00000008155c:	d503201f 	nop
ffff000000081560:	d503201f 	nop
ffff000000081564:	d503201f 	nop
ffff000000081568:	d503201f 	nop
ffff00000008156c:	d503201f 	nop
ffff000000081570:	d503201f 	nop
ffff000000081574:	d503201f 	nop
ffff000000081578:	d503201f 	nop
ffff00000008157c:	d503201f 	nop
ffff000000081580:	d503201f 	nop
ffff000000081584:	d503201f 	nop
ffff000000081588:	d503201f 	nop
ffff00000008158c:	d503201f 	nop
ffff000000081590:	d503201f 	nop
ffff000000081594:	d503201f 	nop
ffff000000081598:	d503201f 	nop
ffff00000008159c:	d503201f 	nop
ffff0000000815a0:	d503201f 	nop
ffff0000000815a4:	d503201f 	nop
ffff0000000815a8:	d503201f 	nop
ffff0000000815ac:	d503201f 	nop
ffff0000000815b0:	d503201f 	nop
ffff0000000815b4:	d503201f 	nop
ffff0000000815b8:	d503201f 	nop
ffff0000000815bc:	d503201f 	nop
ffff0000000815c0:	d503201f 	nop
ffff0000000815c4:	d503201f 	nop
ffff0000000815c8:	d503201f 	nop
ffff0000000815cc:	d503201f 	nop
ffff0000000815d0:	d503201f 	nop
ffff0000000815d4:	d503201f 	nop
ffff0000000815d8:	d503201f 	nop
ffff0000000815dc:	d503201f 	nop
ffff0000000815e0:	d503201f 	nop
ffff0000000815e4:	d503201f 	nop
ffff0000000815e8:	d503201f 	nop
ffff0000000815ec:	d503201f 	nop
ffff0000000815f0:	d503201f 	nop
ffff0000000815f4:	d503201f 	nop
ffff0000000815f8:	d503201f 	nop
ffff0000000815fc:	d503201f 	nop
ffff000000081600:	d503201f 	nop
ffff000000081604:	d503201f 	nop
ffff000000081608:	d503201f 	nop
ffff00000008160c:	d503201f 	nop
ffff000000081610:	d503201f 	nop
ffff000000081614:	d503201f 	nop
ffff000000081618:	d503201f 	nop
ffff00000008161c:	d503201f 	nop
ffff000000081620:	d503201f 	nop
ffff000000081624:	d503201f 	nop
ffff000000081628:	d503201f 	nop
ffff00000008162c:	d503201f 	nop
ffff000000081630:	d503201f 	nop
ffff000000081634:	d503201f 	nop
ffff000000081638:	d503201f 	nop
ffff00000008163c:	d503201f 	nop
ffff000000081640:	d503201f 	nop
ffff000000081644:	d503201f 	nop
ffff000000081648:	d503201f 	nop
ffff00000008164c:	d503201f 	nop
ffff000000081650:	d503201f 	nop
ffff000000081654:	d503201f 	nop
ffff000000081658:	d503201f 	nop
ffff00000008165c:	d503201f 	nop
ffff000000081660:	d503201f 	nop
ffff000000081664:	d503201f 	nop
ffff000000081668:	d503201f 	nop
ffff00000008166c:	d503201f 	nop
ffff000000081670:	d503201f 	nop
ffff000000081674:	d503201f 	nop
ffff000000081678:	d503201f 	nop
ffff00000008167c:	d503201f 	nop
ffff000000081680:	d503201f 	nop
ffff000000081684:	d503201f 	nop
ffff000000081688:	d503201f 	nop
ffff00000008168c:	d503201f 	nop
ffff000000081690:	d503201f 	nop
ffff000000081694:	d503201f 	nop
ffff000000081698:	d503201f 	nop
ffff00000008169c:	d503201f 	nop
ffff0000000816a0:	d503201f 	nop
ffff0000000816a4:	d503201f 	nop
ffff0000000816a8:	d503201f 	nop
ffff0000000816ac:	d503201f 	nop
ffff0000000816b0:	d503201f 	nop
ffff0000000816b4:	d503201f 	nop
ffff0000000816b8:	d503201f 	nop
ffff0000000816bc:	d503201f 	nop
ffff0000000816c0:	d503201f 	nop
ffff0000000816c4:	d503201f 	nop
ffff0000000816c8:	d503201f 	nop
ffff0000000816cc:	d503201f 	nop
ffff0000000816d0:	d503201f 	nop
ffff0000000816d4:	d503201f 	nop
ffff0000000816d8:	d503201f 	nop
ffff0000000816dc:	d503201f 	nop
ffff0000000816e0:	d503201f 	nop
ffff0000000816e4:	d503201f 	nop
ffff0000000816e8:	d503201f 	nop
ffff0000000816ec:	d503201f 	nop
ffff0000000816f0:	d503201f 	nop
ffff0000000816f4:	d503201f 	nop
ffff0000000816f8:	d503201f 	nop
ffff0000000816fc:	d503201f 	nop
ffff000000081700:	d503201f 	nop
ffff000000081704:	d503201f 	nop
ffff000000081708:	d503201f 	nop
ffff00000008170c:	d503201f 	nop
ffff000000081710:	d503201f 	nop
ffff000000081714:	d503201f 	nop
ffff000000081718:	d503201f 	nop
ffff00000008171c:	d503201f 	nop
ffff000000081720:	d503201f 	nop
ffff000000081724:	d503201f 	nop
ffff000000081728:	d503201f 	nop
ffff00000008172c:	d503201f 	nop
ffff000000081730:	d503201f 	nop
ffff000000081734:	d503201f 	nop
ffff000000081738:	d503201f 	nop
ffff00000008173c:	d503201f 	nop
ffff000000081740:	d503201f 	nop
ffff000000081744:	d503201f 	nop
ffff000000081748:	d503201f 	nop
ffff00000008174c:	d503201f 	nop
ffff000000081750:	d503201f 	nop
ffff000000081754:	d503201f 	nop
ffff000000081758:	d503201f 	nop
ffff00000008175c:	d503201f 	nop
ffff000000081760:	d503201f 	nop
ffff000000081764:	d503201f 	nop
ffff000000081768:	d503201f 	nop
ffff00000008176c:	d503201f 	nop
ffff000000081770:	d503201f 	nop
ffff000000081774:	d503201f 	nop
ffff000000081778:	d503201f 	nop
ffff00000008177c:	d503201f 	nop
ffff000000081780:	d503201f 	nop
ffff000000081784:	d503201f 	nop
ffff000000081788:	d503201f 	nop
ffff00000008178c:	d503201f 	nop
ffff000000081790:	d503201f 	nop
ffff000000081794:	d503201f 	nop
ffff000000081798:	d503201f 	nop
ffff00000008179c:	d503201f 	nop
ffff0000000817a0:	d503201f 	nop
ffff0000000817a4:	d503201f 	nop
ffff0000000817a8:	d503201f 	nop
ffff0000000817ac:	d503201f 	nop
ffff0000000817b0:	d503201f 	nop
ffff0000000817b4:	d503201f 	nop
ffff0000000817b8:	d503201f 	nop
ffff0000000817bc:	d503201f 	nop
ffff0000000817c0:	d503201f 	nop
ffff0000000817c4:	d503201f 	nop
ffff0000000817c8:	d503201f 	nop
ffff0000000817cc:	d503201f 	nop
ffff0000000817d0:	d503201f 	nop
ffff0000000817d4:	d503201f 	nop
ffff0000000817d8:	d503201f 	nop
ffff0000000817dc:	d503201f 	nop
ffff0000000817e0:	d503201f 	nop
ffff0000000817e4:	d503201f 	nop
ffff0000000817e8:	d503201f 	nop
ffff0000000817ec:	d503201f 	nop
ffff0000000817f0:	d503201f 	nop
ffff0000000817f4:	d503201f 	nop
ffff0000000817f8:	d503201f 	nop
ffff0000000817fc:	d503201f 	nop

ffff000000081800 <__vectors2>:
ffff000000081800:	140000e1 	b	ffff000000081b84 <sync_currentEL_spelx_EL2>
ffff000000081804:	d503201f 	nop
ffff000000081808:	d503201f 	nop
ffff00000008180c:	d503201f 	nop
ffff000000081810:	d503201f 	nop
ffff000000081814:	d503201f 	nop
ffff000000081818:	d503201f 	nop
ffff00000008181c:	d503201f 	nop
ffff000000081820:	d503201f 	nop
ffff000000081824:	d503201f 	nop
ffff000000081828:	d503201f 	nop
ffff00000008182c:	d503201f 	nop
ffff000000081830:	d503201f 	nop
ffff000000081834:	d503201f 	nop
ffff000000081838:	d503201f 	nop
ffff00000008183c:	d503201f 	nop
ffff000000081840:	d503201f 	nop
ffff000000081844:	d503201f 	nop
ffff000000081848:	d503201f 	nop
ffff00000008184c:	d503201f 	nop
ffff000000081850:	d503201f 	nop
ffff000000081854:	d503201f 	nop
ffff000000081858:	d503201f 	nop
ffff00000008185c:	d503201f 	nop
ffff000000081860:	d503201f 	nop
ffff000000081864:	d503201f 	nop
ffff000000081868:	d503201f 	nop
ffff00000008186c:	d503201f 	nop
ffff000000081870:	d503201f 	nop
ffff000000081874:	d503201f 	nop
ffff000000081878:	d503201f 	nop
ffff00000008187c:	d503201f 	nop
ffff000000081880:	140000c1 	b	ffff000000081b84 <sync_currentEL_spelx_EL2>
ffff000000081884:	d503201f 	nop
ffff000000081888:	d503201f 	nop
ffff00000008188c:	d503201f 	nop
ffff000000081890:	d503201f 	nop
ffff000000081894:	d503201f 	nop
ffff000000081898:	d503201f 	nop
ffff00000008189c:	d503201f 	nop
ffff0000000818a0:	d503201f 	nop
ffff0000000818a4:	d503201f 	nop
ffff0000000818a8:	d503201f 	nop
ffff0000000818ac:	d503201f 	nop
ffff0000000818b0:	d503201f 	nop
ffff0000000818b4:	d503201f 	nop
ffff0000000818b8:	d503201f 	nop
ffff0000000818bc:	d503201f 	nop
ffff0000000818c0:	d503201f 	nop
ffff0000000818c4:	d503201f 	nop
ffff0000000818c8:	d503201f 	nop
ffff0000000818cc:	d503201f 	nop
ffff0000000818d0:	d503201f 	nop
ffff0000000818d4:	d503201f 	nop
ffff0000000818d8:	d503201f 	nop
ffff0000000818dc:	d503201f 	nop
ffff0000000818e0:	d503201f 	nop
ffff0000000818e4:	d503201f 	nop
ffff0000000818e8:	d503201f 	nop
ffff0000000818ec:	d503201f 	nop
ffff0000000818f0:	d503201f 	nop
ffff0000000818f4:	d503201f 	nop
ffff0000000818f8:	d503201f 	nop
ffff0000000818fc:	d503201f 	nop
ffff000000081900:	140000a1 	b	ffff000000081b84 <sync_currentEL_spelx_EL2>
ffff000000081904:	d503201f 	nop
ffff000000081908:	d503201f 	nop
ffff00000008190c:	d503201f 	nop
ffff000000081910:	d503201f 	nop
ffff000000081914:	d503201f 	nop
ffff000000081918:	d503201f 	nop
ffff00000008191c:	d503201f 	nop
ffff000000081920:	d503201f 	nop
ffff000000081924:	d503201f 	nop
ffff000000081928:	d503201f 	nop
ffff00000008192c:	d503201f 	nop
ffff000000081930:	d503201f 	nop
ffff000000081934:	d503201f 	nop
ffff000000081938:	d503201f 	nop
ffff00000008193c:	d503201f 	nop
ffff000000081940:	d503201f 	nop
ffff000000081944:	d503201f 	nop
ffff000000081948:	d503201f 	nop
ffff00000008194c:	d503201f 	nop
ffff000000081950:	d503201f 	nop
ffff000000081954:	d503201f 	nop
ffff000000081958:	d503201f 	nop
ffff00000008195c:	d503201f 	nop
ffff000000081960:	d503201f 	nop
ffff000000081964:	d503201f 	nop
ffff000000081968:	d503201f 	nop
ffff00000008196c:	d503201f 	nop
ffff000000081970:	d503201f 	nop
ffff000000081974:	d503201f 	nop
ffff000000081978:	d503201f 	nop
ffff00000008197c:	d503201f 	nop
ffff000000081980:	14000081 	b	ffff000000081b84 <sync_currentEL_spelx_EL2>
ffff000000081984:	d503201f 	nop
ffff000000081988:	d503201f 	nop
ffff00000008198c:	d503201f 	nop
ffff000000081990:	d503201f 	nop
ffff000000081994:	d503201f 	nop
ffff000000081998:	d503201f 	nop
ffff00000008199c:	d503201f 	nop
ffff0000000819a0:	d503201f 	nop
ffff0000000819a4:	d503201f 	nop
ffff0000000819a8:	d503201f 	nop
ffff0000000819ac:	d503201f 	nop
ffff0000000819b0:	d503201f 	nop
ffff0000000819b4:	d503201f 	nop
ffff0000000819b8:	d503201f 	nop
ffff0000000819bc:	d503201f 	nop
ffff0000000819c0:	d503201f 	nop
ffff0000000819c4:	d503201f 	nop
ffff0000000819c8:	d503201f 	nop
ffff0000000819cc:	d503201f 	nop
ffff0000000819d0:	d503201f 	nop
ffff0000000819d4:	d503201f 	nop
ffff0000000819d8:	d503201f 	nop
ffff0000000819dc:	d503201f 	nop
ffff0000000819e0:	d503201f 	nop
ffff0000000819e4:	d503201f 	nop
ffff0000000819e8:	d503201f 	nop
ffff0000000819ec:	d503201f 	nop
ffff0000000819f0:	d503201f 	nop
ffff0000000819f4:	d503201f 	nop
ffff0000000819f8:	d503201f 	nop
ffff0000000819fc:	d503201f 	nop
ffff000000081a00:	14000061 	b	ffff000000081b84 <sync_currentEL_spelx_EL2>
ffff000000081a04:	d503201f 	nop
ffff000000081a08:	d503201f 	nop
ffff000000081a0c:	d503201f 	nop
ffff000000081a10:	d503201f 	nop
ffff000000081a14:	d503201f 	nop
ffff000000081a18:	d503201f 	nop
ffff000000081a1c:	d503201f 	nop
ffff000000081a20:	d503201f 	nop
ffff000000081a24:	d503201f 	nop
ffff000000081a28:	d503201f 	nop
ffff000000081a2c:	d503201f 	nop
ffff000000081a30:	d503201f 	nop
ffff000000081a34:	d503201f 	nop
ffff000000081a38:	d503201f 	nop
ffff000000081a3c:	d503201f 	nop
ffff000000081a40:	d503201f 	nop
ffff000000081a44:	d503201f 	nop
ffff000000081a48:	d503201f 	nop
ffff000000081a4c:	d503201f 	nop
ffff000000081a50:	d503201f 	nop
ffff000000081a54:	d503201f 	nop
ffff000000081a58:	d503201f 	nop
ffff000000081a5c:	d503201f 	nop
ffff000000081a60:	d503201f 	nop
ffff000000081a64:	d503201f 	nop
ffff000000081a68:	d503201f 	nop
ffff000000081a6c:	d503201f 	nop
ffff000000081a70:	d503201f 	nop
ffff000000081a74:	d503201f 	nop
ffff000000081a78:	d503201f 	nop
ffff000000081a7c:	d503201f 	nop
ffff000000081a80:	1400006c 	b	ffff000000081c30 <irq_currentEL_spelx_EL2>
ffff000000081a84:	d503201f 	nop
ffff000000081a88:	d503201f 	nop
ffff000000081a8c:	d503201f 	nop
ffff000000081a90:	d503201f 	nop
ffff000000081a94:	d503201f 	nop
ffff000000081a98:	d503201f 	nop
ffff000000081a9c:	d503201f 	nop
ffff000000081aa0:	d503201f 	nop
ffff000000081aa4:	d503201f 	nop
ffff000000081aa8:	d503201f 	nop
ffff000000081aac:	d503201f 	nop
ffff000000081ab0:	d503201f 	nop
ffff000000081ab4:	d503201f 	nop
ffff000000081ab8:	d503201f 	nop
ffff000000081abc:	d503201f 	nop
ffff000000081ac0:	d503201f 	nop
ffff000000081ac4:	d503201f 	nop
ffff000000081ac8:	d503201f 	nop
ffff000000081acc:	d503201f 	nop
ffff000000081ad0:	d503201f 	nop
ffff000000081ad4:	d503201f 	nop
ffff000000081ad8:	d503201f 	nop
ffff000000081adc:	d503201f 	nop
ffff000000081ae0:	d503201f 	nop
ffff000000081ae4:	d503201f 	nop
ffff000000081ae8:	d503201f 	nop
ffff000000081aec:	d503201f 	nop
ffff000000081af0:	d503201f 	nop
ffff000000081af4:	d503201f 	nop
ffff000000081af8:	d503201f 	nop
ffff000000081afc:	d503201f 	nop
ffff000000081b00:	14000021 	b	ffff000000081b84 <sync_currentEL_spelx_EL2>
ffff000000081b04:	d503201f 	nop
ffff000000081b08:	d503201f 	nop
ffff000000081b0c:	d503201f 	nop
ffff000000081b10:	d503201f 	nop
ffff000000081b14:	d503201f 	nop
ffff000000081b18:	d503201f 	nop
ffff000000081b1c:	d503201f 	nop
ffff000000081b20:	d503201f 	nop
ffff000000081b24:	d503201f 	nop
ffff000000081b28:	d503201f 	nop
ffff000000081b2c:	d503201f 	nop
ffff000000081b30:	d503201f 	nop
ffff000000081b34:	d503201f 	nop
ffff000000081b38:	d503201f 	nop
ffff000000081b3c:	d503201f 	nop
ffff000000081b40:	d503201f 	nop
ffff000000081b44:	d503201f 	nop
ffff000000081b48:	d503201f 	nop
ffff000000081b4c:	d503201f 	nop
ffff000000081b50:	d503201f 	nop
ffff000000081b54:	d503201f 	nop
ffff000000081b58:	d503201f 	nop
ffff000000081b5c:	d503201f 	nop
ffff000000081b60:	d503201f 	nop
ffff000000081b64:	d503201f 	nop
ffff000000081b68:	d503201f 	nop
ffff000000081b6c:	d503201f 	nop
ffff000000081b70:	d503201f 	nop
ffff000000081b74:	d503201f 	nop
ffff000000081b78:	d503201f 	nop
ffff000000081b7c:	d503201f 	nop
ffff000000081b80:	14000057 	b	ffff000000081cdc <sError_currentEL_spelx_EL2>

ffff000000081b84 <sync_currentEL_spelx_EL2>:
ffff000000081b84:	a94007e0 	ldp	x0, x1, [sp]
ffff000000081b88:	d538d080 	mrs	x0, tpidr_el1
ffff000000081b8c:	91018000 	add	x0, x0, #0x60
ffff000000081b90:	f9400000 	ldr	x0, [x0]
ffff000000081b94:	910003e1 	mov	x1, sp
ffff000000081b98:	9100001f 	mov	sp, x0
ffff000000081b9c:	a9000420 	stp	x0, x1, [x1]
ffff000000081ba0:	d10403ff 	sub	sp, sp, #0x100
ffff000000081ba4:	a90007e0 	stp	x0, x1, [sp]
ffff000000081ba8:	a9010fe2 	stp	x2, x3, [sp, #16]
ffff000000081bac:	a90217e4 	stp	x4, x5, [sp, #32]
ffff000000081bb0:	a9031fe6 	stp	x6, x7, [sp, #48]
ffff000000081bb4:	a90427e8 	stp	x8, x9, [sp, #64]
ffff000000081bb8:	a9052fea 	stp	x10, x11, [sp, #80]
ffff000000081bbc:	a90637ec 	stp	x12, x13, [sp, #96]
ffff000000081bc0:	a9073fee 	stp	x14, x15, [sp, #112]
ffff000000081bc4:	a90847f0 	stp	x16, x17, [sp, #128]
ffff000000081bc8:	a9094ff2 	stp	x18, x19, [sp, #144]
ffff000000081bcc:	a90a57f4 	stp	x20, x21, [sp, #160]
ffff000000081bd0:	a90b5ff6 	stp	x22, x23, [sp, #176]
ffff000000081bd4:	a90c67f8 	stp	x24, x25, [sp, #192]
ffff000000081bd8:	a90d6ffa 	stp	x26, x27, [sp, #208]
ffff000000081bdc:	a90e77fc 	stp	x28, x29, [sp, #224]
ffff000000081be0:	f9007bfe 	str	x30, [sp, #240]
ffff000000081be4:	9400056b 	bl	ffff000000083190 <sync_exc2_handler>
ffff000000081be8:	a94007e0 	ldp	x0, x1, [sp]
ffff000000081bec:	a9410fe2 	ldp	x2, x3, [sp, #16]
ffff000000081bf0:	a94217e4 	ldp	x4, x5, [sp, #32]
ffff000000081bf4:	a9431fe6 	ldp	x6, x7, [sp, #48]
ffff000000081bf8:	a94427e8 	ldp	x8, x9, [sp, #64]
ffff000000081bfc:	a9452fea 	ldp	x10, x11, [sp, #80]
ffff000000081c00:	a94637ec 	ldp	x12, x13, [sp, #96]
ffff000000081c04:	a9473fee 	ldp	x14, x15, [sp, #112]
ffff000000081c08:	a94847f0 	ldp	x16, x17, [sp, #128]
ffff000000081c0c:	a9494ff2 	ldp	x18, x19, [sp, #144]
ffff000000081c10:	a94a57f4 	ldp	x20, x21, [sp, #160]
ffff000000081c14:	a94b5ff6 	ldp	x22, x23, [sp, #176]
ffff000000081c18:	a94c67f8 	ldp	x24, x25, [sp, #192]
ffff000000081c1c:	a94d6ffa 	ldp	x26, x27, [sp, #208]
ffff000000081c20:	a94e77fc 	ldp	x28, x29, [sp, #224]
ffff000000081c24:	f9407bfe 	ldr	x30, [sp, #240]
ffff000000081c28:	910403ff 	add	sp, sp, #0x100
ffff000000081c2c:	d69f03e0 	eret

ffff000000081c30 <irq_currentEL_spelx_EL2>:
ffff000000081c30:	a94007e0 	ldp	x0, x1, [sp]
ffff000000081c34:	d538d080 	mrs	x0, tpidr_el1
ffff000000081c38:	91018000 	add	x0, x0, #0x60
ffff000000081c3c:	f9400000 	ldr	x0, [x0]
ffff000000081c40:	910003e1 	mov	x1, sp
ffff000000081c44:	9100001f 	mov	sp, x0
ffff000000081c48:	a9000420 	stp	x0, x1, [x1]
ffff000000081c4c:	d10403ff 	sub	sp, sp, #0x100
ffff000000081c50:	a90007e0 	stp	x0, x1, [sp]
ffff000000081c54:	a9010fe2 	stp	x2, x3, [sp, #16]
ffff000000081c58:	a90217e4 	stp	x4, x5, [sp, #32]
ffff000000081c5c:	a9031fe6 	stp	x6, x7, [sp, #48]
ffff000000081c60:	a90427e8 	stp	x8, x9, [sp, #64]
ffff000000081c64:	a9052fea 	stp	x10, x11, [sp, #80]
ffff000000081c68:	a90637ec 	stp	x12, x13, [sp, #96]
ffff000000081c6c:	a9073fee 	stp	x14, x15, [sp, #112]
ffff000000081c70:	a90847f0 	stp	x16, x17, [sp, #128]
ffff000000081c74:	a9094ff2 	stp	x18, x19, [sp, #144]
ffff000000081c78:	a90a57f4 	stp	x20, x21, [sp, #160]
ffff000000081c7c:	a90b5ff6 	stp	x22, x23, [sp, #176]
ffff000000081c80:	a90c67f8 	stp	x24, x25, [sp, #192]
ffff000000081c84:	a90d6ffa 	stp	x26, x27, [sp, #208]
ffff000000081c88:	a90e77fc 	stp	x28, x29, [sp, #224]
ffff000000081c8c:	f9007bfe 	str	x30, [sp, #240]
ffff000000081c90:	9400054b 	bl	ffff0000000831bc <irq_exc_handler>
ffff000000081c94:	a94007e0 	ldp	x0, x1, [sp]
ffff000000081c98:	a9410fe2 	ldp	x2, x3, [sp, #16]
ffff000000081c9c:	a94217e4 	ldp	x4, x5, [sp, #32]
ffff000000081ca0:	a9431fe6 	ldp	x6, x7, [sp, #48]
ffff000000081ca4:	a94427e8 	ldp	x8, x9, [sp, #64]
ffff000000081ca8:	a9452fea 	ldp	x10, x11, [sp, #80]
ffff000000081cac:	a94637ec 	ldp	x12, x13, [sp, #96]
ffff000000081cb0:	a9473fee 	ldp	x14, x15, [sp, #112]
ffff000000081cb4:	a94847f0 	ldp	x16, x17, [sp, #128]
ffff000000081cb8:	a9494ff2 	ldp	x18, x19, [sp, #144]
ffff000000081cbc:	a94a57f4 	ldp	x20, x21, [sp, #160]
ffff000000081cc0:	a94b5ff6 	ldp	x22, x23, [sp, #176]
ffff000000081cc4:	a94c67f8 	ldp	x24, x25, [sp, #192]
ffff000000081cc8:	a94d6ffa 	ldp	x26, x27, [sp, #208]
ffff000000081ccc:	a94e77fc 	ldp	x28, x29, [sp, #224]
ffff000000081cd0:	f9407bfe 	ldr	x30, [sp, #240]
ffff000000081cd4:	910403ff 	add	sp, sp, #0x100
ffff000000081cd8:	d69f03e0 	eret

ffff000000081cdc <sError_currentEL_spelx_EL2>:
ffff000000081cdc:	a94007e0 	ldp	x0, x1, [sp]
ffff000000081ce0:	d538d080 	mrs	x0, tpidr_el1
ffff000000081ce4:	91018000 	add	x0, x0, #0x60
ffff000000081ce8:	f9400000 	ldr	x0, [x0]
ffff000000081cec:	910003e1 	mov	x1, sp
ffff000000081cf0:	9100001f 	mov	sp, x0
ffff000000081cf4:	a9000420 	stp	x0, x1, [x1]
ffff000000081cf8:	d10403ff 	sub	sp, sp, #0x100
ffff000000081cfc:	a90007e0 	stp	x0, x1, [sp]
ffff000000081d00:	a9010fe2 	stp	x2, x3, [sp, #16]
ffff000000081d04:	a90217e4 	stp	x4, x5, [sp, #32]
ffff000000081d08:	a9031fe6 	stp	x6, x7, [sp, #48]
ffff000000081d0c:	a90427e8 	stp	x8, x9, [sp, #64]
ffff000000081d10:	a9052fea 	stp	x10, x11, [sp, #80]
ffff000000081d14:	a90637ec 	stp	x12, x13, [sp, #96]
ffff000000081d18:	a9073fee 	stp	x14, x15, [sp, #112]
ffff000000081d1c:	a90847f0 	stp	x16, x17, [sp, #128]
ffff000000081d20:	a9094ff2 	stp	x18, x19, [sp, #144]
ffff000000081d24:	a90a57f4 	stp	x20, x21, [sp, #160]
ffff000000081d28:	a90b5ff6 	stp	x22, x23, [sp, #176]
ffff000000081d2c:	a90c67f8 	stp	x24, x25, [sp, #192]
ffff000000081d30:	a90d6ffa 	stp	x26, x27, [sp, #208]
ffff000000081d34:	a90e77fc 	stp	x28, x29, [sp, #224]
ffff000000081d38:	f9007bfe 	str	x30, [sp, #240]
ffff000000081d3c:	94000532 	bl	ffff000000083204 <SError_handler>
ffff000000081d40:	a94007e0 	ldp	x0, x1, [sp]
ffff000000081d44:	a9410fe2 	ldp	x2, x3, [sp, #16]
ffff000000081d48:	a94217e4 	ldp	x4, x5, [sp, #32]
ffff000000081d4c:	a9431fe6 	ldp	x6, x7, [sp, #48]
ffff000000081d50:	a94427e8 	ldp	x8, x9, [sp, #64]
ffff000000081d54:	a9452fea 	ldp	x10, x11, [sp, #80]
ffff000000081d58:	a94637ec 	ldp	x12, x13, [sp, #96]
ffff000000081d5c:	a9473fee 	ldp	x14, x15, [sp, #112]
ffff000000081d60:	a94847f0 	ldp	x16, x17, [sp, #128]
ffff000000081d64:	a9494ff2 	ldp	x18, x19, [sp, #144]
ffff000000081d68:	a94a57f4 	ldp	x20, x21, [sp, #160]
ffff000000081d6c:	a94b5ff6 	ldp	x22, x23, [sp, #176]
ffff000000081d70:	a94c67f8 	ldp	x24, x25, [sp, #192]
ffff000000081d74:	a94d6ffa 	ldp	x26, x27, [sp, #208]
ffff000000081d78:	a94e77fc 	ldp	x28, x29, [sp, #224]
ffff000000081d7c:	f9407bfe 	ldr	x30, [sp, #240]
ffff000000081d80:	910403ff 	add	sp, sp, #0x100
ffff000000081d84:	d69f03e0 	eret

ffff000000081d88 <mmu_init>:
ffff000000081d88:	58000600 	ldr	x0, ffff000000081e48 <set_ttbr0+0x8>
ffff000000081d8c:	d5182040 	msr	tcr_el1, x0
ffff000000081d90:	58000600 	ldr	x0, ffff000000081e50 <set_ttbr0+0x10>
ffff000000081d94:	d518a200 	msr	mair_el1, x0
ffff000000081d98:	f0001440 	adrp	x0, ffff00000030c000 <__bss_end>
ffff000000081d9c:	580005e1 	ldr	x1, ffff000000081e58 <set_ttbr0+0x18>
ffff000000081da0:	8b010002 	add	x2, x0, x1
ffff000000081da4:	8b010043 	add	x3, x2, x1
ffff000000081da8:	580005c4 	ldr	x4, ffff000000081e60 <set_ttbr0+0x20>
ffff000000081dac:	aa040044 	orr	x4, x2, x4
ffff000000081db0:	f9000004 	str	x4, [x0]
ffff000000081db4:	58000564 	ldr	x4, ffff000000081e60 <set_ttbr0+0x20>
ffff000000081db8:	aa040064 	orr	x4, x3, x4
ffff000000081dbc:	f9000044 	str	x4, [x2]
ffff000000081dc0:	d2800004 	mov	x4, #0x0                   	// #0
ffff000000081dc4:	58000525 	ldr	x5, ffff000000081e68 <set_ttbr0+0x28>
ffff000000081dc8:	58000546 	ldr	x6, ffff000000081e70 <set_ttbr0+0x30>
ffff000000081dcc:	58000567 	ldr	x7, ffff000000081e78 <set_ttbr0+0x38>

ffff000000081dd0 <NORMAL_FRAME_SET>:
ffff000000081dd0:	aa060088 	orr	x8, x4, x6
ffff000000081dd4:	f8008468 	str	x8, [x3], #8
ffff000000081dd8:	8b070084 	add	x4, x4, x7
ffff000000081ddc:	d10004a5 	sub	x5, x5, #0x1
ffff000000081de0:	b5ffff85 	cbnz	x5, ffff000000081dd0 <NORMAL_FRAME_SET>
ffff000000081de4:	580004e5 	ldr	x5, ffff000000081e80 <set_ttbr0+0x40>
ffff000000081de8:	58000506 	ldr	x6, ffff000000081e88 <set_ttbr0+0x48>

ffff000000081dec <DEVICE_FRAME_SET>:
ffff000000081dec:	aa060088 	orr	x8, x4, x6
ffff000000081df0:	f8008468 	str	x8, [x3], #8
ffff000000081df4:	8b070084 	add	x4, x4, x7
ffff000000081df8:	d10004a5 	sub	x5, x5, #0x1
ffff000000081dfc:	b5ffff85 	cbnz	x5, ffff000000081dec <DEVICE_FRAME_SET>
ffff000000081e00:	d5182000 	msr	ttbr0_el1, x0
ffff000000081e04:	d5182020 	msr	ttbr1_el1, x0
ffff000000081e08:	d65f03c0 	ret

ffff000000081e0c <copy_rd>:
ffff000000081e0c:	58000421 	ldr	x1, ffff000000081e90 <set_ttbr0+0x50>
ffff000000081e10:	58000442 	ldr	x2, ffff000000081e98 <set_ttbr0+0x58>
ffff000000081e14:	cb010042 	sub	x2, x2, x1
ffff000000081e18:	d343fc42 	lsr	x2, x2, #3

ffff000000081e1c <loop>:
ffff000000081e1c:	f9400023 	ldr	x3, [x1]
ffff000000081e20:	f9000003 	str	x3, [x0]
ffff000000081e24:	91002021 	add	x1, x1, #0x8
ffff000000081e28:	91002000 	add	x0, x0, #0x8
ffff000000081e2c:	d1000442 	sub	x2, x2, #0x1
ffff000000081e30:	b5ffff62 	cbnz	x2, ffff000000081e1c <loop>
ffff000000081e34:	d2800000 	mov	x0, #0x0                   	// #0
ffff000000081e38:	d61f0000 	br	x0
ffff000000081e3c:	d65f03c0 	ret

ffff000000081e40 <set_ttbr0>:
ffff000000081e40:	d5182000 	msr	ttbr0_el1, x0
ffff000000081e44:	d65f03c0 	ret
ffff000000081e48:	80100010 	.word	0x80100010
ffff000000081e4c:	00000000 	.word	0x00000000
ffff000000081e50:	00004400 	.word	0x00004400
ffff000000081e54:	00000000 	.word	0x00000000
ffff000000081e58:	00001000 	.word	0x00001000
ffff000000081e5c:	00000000 	.word	0x00000000
ffff000000081e60:	00000003 	.word	0x00000003
ffff000000081e64:	00000000 	.word	0x00000000
ffff000000081e68:	000001f8 	.word	0x000001f8
ffff000000081e6c:	00000000 	.word	0x00000000
ffff000000081e70:	00000405 	.word	0x00000405
ffff000000081e74:	00000000 	.word	0x00000000
ffff000000081e78:	00200000 	.word	0x00200000
ffff000000081e7c:	00000000 	.word	0x00000000
ffff000000081e80:	00000008 	.word	0x00000008
ffff000000081e84:	00000000 	.word	0x00000000
ffff000000081e88:	00000401 	.word	0x00000401
ffff000000081e8c:	00000000 	.word	0x00000000
ffff000000081e90:	00084010 	.word	0x00084010
ffff000000081e94:	ffff0000 	.word	0xffff0000
ffff000000081e98:	00088098 	.word	0x00088098
ffff000000081e9c:	ffff0000 	.word	0xffff0000

ffff000000081ea0 <enable_interrupt>:
ffff000000081ea0:	d5034fff 	msr	daifclr, #0xf
ffff000000081ea4:	d65f03c0 	ret

ffff000000081ea8 <disable_interrupt>:
ffff000000081ea8:	d5034fdf 	msr	daifset, #0xf
ffff000000081eac:	d65f03c0 	ret

ffff000000081eb0 <enable_EL0_interrupt>:
ffff000000081eb0:	d5384000 	mrs	x0, spsr_el1
ffff000000081eb4:	58000661 	ldr	x1, ffff000000081f80 <exit+0x10>
ffff000000081eb8:	8a010000 	and	x0, x0, x1
ffff000000081ebc:	d5184000 	msr	spsr_el1, x0
ffff000000081ec0:	d65f03c0 	ret

ffff000000081ec4 <disable_EL0_interrupt>:
ffff000000081ec4:	d5384000 	mrs	x0, spsr_el1
ffff000000081ec8:	58000601 	ldr	x1, ffff000000081f88 <exit+0x18>
ffff000000081ecc:	aa010000 	orr	x0, x0, x1
ffff000000081ed0:	d5184000 	msr	spsr_el1, x0
ffff000000081ed4:	d65f03c0 	ret

ffff000000081ed8 <brk_instr>:
ffff000000081ed8:	d4200020 	brk	#0x1
ffff000000081edc:	d65f03c0 	ret

ffff000000081ee0 <get_sync_exc_param_el1>:
ffff000000081ee0:	d5385209 	mrs	x9, esr_el1
ffff000000081ee4:	d538402a 	mrs	x10, elr_el1
ffff000000081ee8:	f9000009 	str	x9, [x0]
ffff000000081eec:	f900002a 	str	x10, [x1]
ffff000000081ef0:	d65f03c0 	ret

ffff000000081ef4 <get_sync_exc_param_el2>:
ffff000000081ef4:	d53c5209 	mrs	x9, esr_el2
ffff000000081ef8:	d53c402a 	mrs	x10, elr_el2
ffff000000081efc:	f9000009 	str	x9, [x0]
ffff000000081f00:	f900002a 	str	x10, [x1]
ffff000000081f04:	d65f03c0 	ret

ffff000000081f08 <sleep>:
ffff000000081f08:	58000440 	ldr	x0, ffff000000081f90 <exit+0x20>

ffff000000081f0c <loop>:
ffff000000081f0c:	d1000400 	sub	x0, x0, #0x1
ffff000000081f10:	b5ffffe0 	cbnz	x0, ffff000000081f0c <loop>
ffff000000081f14:	d65f03c0 	ret

ffff000000081f18 <get_taskId>:
ffff000000081f18:	d2800008 	mov	x8, #0x0                   	// #0
ffff000000081f1c:	d4000001 	svc	#0x0
ffff000000081f20:	d65f03c0 	ret

ffff000000081f24 <sched_yield>:
ffff000000081f24:	d2800028 	mov	x8, #0x1                   	// #1
ffff000000081f28:	d4000001 	svc	#0x0
ffff000000081f2c:	d65f03c0 	ret

ffff000000081f30 <uart_write>:
ffff000000081f30:	d2800048 	mov	x8, #0x2                   	// #2
ffff000000081f34:	aa0003e9 	mov	x9, x0
ffff000000081f38:	d4000001 	svc	#0x0
ffff000000081f3c:	d65f03c0 	ret

ffff000000081f40 <uart_read>:
ffff000000081f40:	d2800068 	mov	x8, #0x3                   	// #3
ffff000000081f44:	aa0003e9 	mov	x9, x0
ffff000000081f48:	aa0103ea 	mov	x10, x1
ffff000000081f4c:	d4000001 	svc	#0x0
ffff000000081f50:	d65f03c0 	ret

ffff000000081f54 <exec>:
ffff000000081f54:	d2800088 	mov	x8, #0x4                   	// #4
ffff000000081f58:	aa0003e9 	mov	x9, x0
ffff000000081f5c:	d4000001 	svc	#0x0
ffff000000081f60:	d65f03c0 	ret

ffff000000081f64 <fork>:
ffff000000081f64:	d28000a8 	mov	x8, #0x5                   	// #5
ffff000000081f68:	d4000001 	svc	#0x0
ffff000000081f6c:	d65f03c0 	ret

ffff000000081f70 <exit>:
ffff000000081f70:	d28000c8 	mov	x8, #0x6                   	// #6
ffff000000081f74:	aa0003e9 	mov	x9, x0
ffff000000081f78:	d4000001 	svc	#0x0
ffff000000081f7c:	d65f03c0 	ret
ffff000000081f80:	0000fc3f 	.word	0x0000fc3f
ffff000000081f84:	00000000 	.word	0x00000000
ffff000000081f88:	000003c0 	.word	0x000003c0
ffff000000081f8c:	00000000 	.word	0x00000000
ffff000000081f90:	01ffffff 	.word	0x01ffffff
ffff000000081f94:	00000000 	.word	0x00000000

ffff000000081f98 <switch_to>:
ffff000000081f98:	a9005013 	stp	x19, x20, [x0]
ffff000000081f9c:	a9015815 	stp	x21, x22, [x0, #16]
ffff000000081fa0:	a9026017 	stp	x23, x24, [x0, #32]
ffff000000081fa4:	a9036819 	stp	x25, x26, [x0, #48]
ffff000000081fa8:	a904701b 	stp	x27, x28, [x0, #64]
ffff000000081fac:	a905781d 	stp	x29, x30, [x0, #80]
ffff000000081fb0:	910003e9 	mov	x9, sp
ffff000000081fb4:	f9003009 	str	x9, [x0, #96]
ffff000000081fb8:	a9405033 	ldp	x19, x20, [x1]
ffff000000081fbc:	a9415835 	ldp	x21, x22, [x1, #16]
ffff000000081fc0:	a9426037 	ldp	x23, x24, [x1, #32]
ffff000000081fc4:	a9436839 	ldp	x25, x26, [x1, #48]
ffff000000081fc8:	a944703b 	ldp	x27, x28, [x1, #64]
ffff000000081fcc:	a945783d 	ldp	x29, x30, [x1, #80]
ffff000000081fd0:	f9403029 	ldr	x9, [x1, #96]
ffff000000081fd4:	9100013f 	mov	sp, x9
ffff000000081fd8:	d65f03c0 	ret

ffff000000081fdc <get_cur_task>:
ffff000000081fdc:	d538d080 	mrs	x0, tpidr_el1
ffff000000081fe0:	d65f03c0 	ret

ffff000000081fe4 <set_cur_task>:
ffff000000081fe4:	d518d080 	msr	tpidr_el1, x0
ffff000000081fe8:	d65f03c0 	ret

ffff000000081fec <go_to>:
ffff000000081fec:	d518d080 	msr	tpidr_el1, x0
ffff000000081ff0:	a945781d 	ldp	x29, x30, [x0, #80]
ffff000000081ff4:	f9403009 	ldr	x9, [x0, #96]
ffff000000081ff8:	9100013f 	mov	sp, x9
ffff000000081ffc:	d65f03c0 	ret

ffff000000082000 <store_umode_lr_sp>:
ffff000000082000:	d5384029 	mrs	x9, elr_el1
ffff000000082004:	d538410a 	mrs	x10, sp_el0
ffff000000082008:	f9000009 	str	x9, [x0]
ffff00000008200c:	f900002a 	str	x10, [x1]
ffff000000082010:	d65f03c0 	ret

ffff000000082014 <restore_umode_lr_sp>:
ffff000000082014:	d5184020 	msr	elr_el1, x0
ffff000000082018:	d5184101 	msr	sp_el0, x1
ffff00000008201c:	d65f03c0 	ret

ffff000000082020 <restore_all_reg>:
ffff000000082020:	a94007e0 	ldp	x0, x1, [sp]
ffff000000082024:	a9410fe2 	ldp	x2, x3, [sp, #16]
ffff000000082028:	a94217e4 	ldp	x4, x5, [sp, #32]
ffff00000008202c:	a9431fe6 	ldp	x6, x7, [sp, #48]
ffff000000082030:	a94427e8 	ldp	x8, x9, [sp, #64]
ffff000000082034:	a9452fea 	ldp	x10, x11, [sp, #80]
ffff000000082038:	a94637ec 	ldp	x12, x13, [sp, #96]
ffff00000008203c:	a9473fee 	ldp	x14, x15, [sp, #112]
ffff000000082040:	a94847f0 	ldp	x16, x17, [sp, #128]
ffff000000082044:	a9494ff2 	ldp	x18, x19, [sp, #144]
ffff000000082048:	a94a57f4 	ldp	x20, x21, [sp, #160]
ffff00000008204c:	a94b5ff6 	ldp	x22, x23, [sp, #176]
ffff000000082050:	a94c67f8 	ldp	x24, x25, [sp, #192]
ffff000000082054:	a94d6ffa 	ldp	x26, x27, [sp, #208]
ffff000000082058:	a94e77fc 	ldp	x28, x29, [sp, #224]
ffff00000008205c:	f9407bfe 	ldr	x30, [sp, #240]
ffff000000082060:	910403ff 	add	sp, sp, #0x100
ffff000000082064:	d69f03e0 	eret

ffff000000082068 <uart_init>:
ffff000000082068:	d28a0081 	mov	x1, #0x5004                	// #20484
ffff00000008206c:	f2a7e421 	movk	x1, #0x3f21, lsl #16
ffff000000082070:	f2ffffe1 	movk	x1, #0xffff, lsl #48
ffff000000082074:	b9400020 	ldr	w0, [x1]
ffff000000082078:	32000000 	orr	w0, w0, #0x1
ffff00000008207c:	b9000020 	str	w0, [x1]
ffff000000082080:	d28a0c00 	mov	x0, #0x5060                	// #20576
ffff000000082084:	f2a7e420 	movk	x0, #0x3f21, lsl #16
ffff000000082088:	f2ffffe0 	movk	x0, #0xffff, lsl #48
ffff00000008208c:	b900001f 	str	wzr, [x0]
ffff000000082090:	d1005000 	sub	x0, x0, #0x14
ffff000000082094:	52800061 	mov	w1, #0x3                   	// #3
ffff000000082098:	b9000001 	str	w1, [x0]
ffff00000008209c:	91001000 	add	x0, x0, #0x4
ffff0000000820a0:	b900001f 	str	wzr, [x0]
ffff0000000820a4:	d1003000 	sub	x0, x0, #0xc
ffff0000000820a8:	52801fe1 	mov	w1, #0xff                  	// #255
ffff0000000820ac:	b9000001 	str	w1, [x0]
ffff0000000820b0:	91001000 	add	x0, x0, #0x4
ffff0000000820b4:	528018c1 	mov	w1, #0xc6                  	// #198
ffff0000000820b8:	b9000001 	str	w1, [x0]
ffff0000000820bc:	91008000 	add	x0, x0, #0x20
ffff0000000820c0:	528021c1 	mov	w1, #0x10e                 	// #270
ffff0000000820c4:	b9000001 	str	w1, [x0]
ffff0000000820c8:	d2800081 	mov	x1, #0x4                   	// #4
ffff0000000820cc:	f2a7e401 	movk	x1, #0x3f20, lsl #16
ffff0000000820d0:	f2ffffe1 	movk	x1, #0xffff, lsl #48
ffff0000000820d4:	b9400020 	ldr	w0, [x1]
ffff0000000820d8:	120e6400 	and	w0, w0, #0xfffc0fff
ffff0000000820dc:	52840002 	mov	w2, #0x2000                	// #8192
ffff0000000820e0:	72a00022 	movk	w2, #0x1, lsl #16
ffff0000000820e4:	2a020000 	orr	w0, w0, w2
ffff0000000820e8:	b9000020 	str	w0, [x1]
ffff0000000820ec:	d2801280 	mov	x0, #0x94                  	// #148
ffff0000000820f0:	f2a7e400 	movk	x0, #0x3f20, lsl #16
ffff0000000820f4:	f2ffffe0 	movk	x0, #0xffff, lsl #48
ffff0000000820f8:	b900001f 	str	wzr, [x0]
ffff0000000820fc:	528012c0 	mov	w0, #0x96                  	// #150
ffff000000082100:	14000003 	b	ffff00000008210c <uart_init+0xa4>
ffff000000082104:	d503201f 	nop
ffff000000082108:	2a0103e0 	mov	w0, w1
ffff00000008210c:	51000401 	sub	w1, w0, #0x1
ffff000000082110:	35ffffa0 	cbnz	w0, ffff000000082104 <uart_init+0x9c>
ffff000000082114:	d2801300 	mov	x0, #0x98                  	// #152
ffff000000082118:	f2a7e400 	movk	x0, #0x3f20, lsl #16
ffff00000008211c:	f2ffffe0 	movk	x0, #0xffff, lsl #48
ffff000000082120:	52980001 	mov	w1, #0xc000                	// #49152
ffff000000082124:	b9000001 	str	w1, [x0]
ffff000000082128:	528012c0 	mov	w0, #0x96                  	// #150
ffff00000008212c:	14000003 	b	ffff000000082138 <uart_init+0xd0>
ffff000000082130:	d503201f 	nop
ffff000000082134:	2a0103e0 	mov	w0, w1
ffff000000082138:	51000401 	sub	w1, w0, #0x1
ffff00000008213c:	35ffffa0 	cbnz	w0, ffff000000082130 <uart_init+0xc8>
ffff000000082140:	d2801300 	mov	x0, #0x98                  	// #152
ffff000000082144:	f2a7e400 	movk	x0, #0x3f20, lsl #16
ffff000000082148:	f2ffffe0 	movk	x0, #0xffff, lsl #48
ffff00000008214c:	b900001f 	str	wzr, [x0]
ffff000000082150:	d28a0c00 	mov	x0, #0x5060                	// #20576
ffff000000082154:	f2a7e420 	movk	x0, #0x3f21, lsl #16
ffff000000082158:	f2ffffe0 	movk	x0, #0xffff, lsl #48
ffff00000008215c:	52800061 	mov	w1, #0x3                   	// #3
ffff000000082160:	b9000001 	str	w1, [x0]
ffff000000082164:	d65f03c0 	ret

ffff000000082168 <uart_send>:
ffff000000082168:	d503201f 	nop
ffff00000008216c:	d28a0a81 	mov	x1, #0x5054                	// #20564
ffff000000082170:	f2a7e421 	movk	x1, #0x3f21, lsl #16
ffff000000082174:	f2ffffe1 	movk	x1, #0xffff, lsl #48
ffff000000082178:	b9400021 	ldr	w1, [x1]
ffff00000008217c:	362fff61 	tbz	w1, #5, ffff000000082168 <uart_send>
ffff000000082180:	d28a0801 	mov	x1, #0x5040                	// #20544
ffff000000082184:	f2a7e421 	movk	x1, #0x3f21, lsl #16
ffff000000082188:	f2ffffe1 	movk	x1, #0xffff, lsl #48
ffff00000008218c:	b9000020 	str	w0, [x1]
ffff000000082190:	d65f03c0 	ret

ffff000000082194 <uart_getc>:
ffff000000082194:	d503201f 	nop
ffff000000082198:	d28a0a80 	mov	x0, #0x5054                	// #20564
ffff00000008219c:	f2a7e420 	movk	x0, #0x3f21, lsl #16
ffff0000000821a0:	f2ffffe0 	movk	x0, #0xffff, lsl #48
ffff0000000821a4:	b9400000 	ldr	w0, [x0]
ffff0000000821a8:	3607ff60 	tbz	w0, #0, ffff000000082194 <uart_getc>
ffff0000000821ac:	d28a0800 	mov	x0, #0x5040                	// #20544
ffff0000000821b0:	f2a7e420 	movk	x0, #0x3f21, lsl #16
ffff0000000821b4:	f2ffffe0 	movk	x0, #0xffff, lsl #48
ffff0000000821b8:	b9400000 	ldr	w0, [x0]
ffff0000000821bc:	12001c00 	and	w0, w0, #0xff
ffff0000000821c0:	7100341f 	cmp	w0, #0xd
ffff0000000821c4:	54000040 	b.eq	ffff0000000821cc <uart_getc+0x38>  // b.none
ffff0000000821c8:	d65f03c0 	ret
ffff0000000821cc:	52800140 	mov	w0, #0xa                   	// #10
ffff0000000821d0:	17fffffe 	b	ffff0000000821c8 <uart_getc+0x34>

ffff0000000821d4 <uart_puts>:
ffff0000000821d4:	a9be7bfd 	stp	x29, x30, [sp, #-32]!
ffff0000000821d8:	910003fd 	mov	x29, sp
ffff0000000821dc:	a90153f3 	stp	x19, x20, [sp, #16]
ffff0000000821e0:	aa0003f3 	mov	x19, x0
ffff0000000821e4:	14000005 	b	ffff0000000821f8 <uart_puts+0x24>
ffff0000000821e8:	91000674 	add	x20, x19, #0x1
ffff0000000821ec:	39400260 	ldrb	w0, [x19]
ffff0000000821f0:	97ffffde 	bl	ffff000000082168 <uart_send>
ffff0000000821f4:	aa1403f3 	mov	x19, x20
ffff0000000821f8:	39400260 	ldrb	w0, [x19]
ffff0000000821fc:	340000c0 	cbz	w0, ffff000000082214 <uart_puts+0x40>
ffff000000082200:	7100281f 	cmp	w0, #0xa
ffff000000082204:	54ffff21 	b.ne	ffff0000000821e8 <uart_puts+0x14>  // b.any
ffff000000082208:	528001a0 	mov	w0, #0xd                   	// #13
ffff00000008220c:	97ffffd7 	bl	ffff000000082168 <uart_send>
ffff000000082210:	17fffff6 	b	ffff0000000821e8 <uart_puts+0x14>
ffff000000082214:	a94153f3 	ldp	x19, x20, [sp, #16]
ffff000000082218:	a8c27bfd 	ldp	x29, x30, [sp], #32
ffff00000008221c:	d65f03c0 	ret

ffff000000082220 <uart_hex>:
ffff000000082220:	a9be7bfd 	stp	x29, x30, [sp, #-32]!
ffff000000082224:	910003fd 	mov	x29, sp
ffff000000082228:	a90153f3 	stp	x19, x20, [sp, #16]
ffff00000008222c:	2a0003f4 	mov	w20, w0
ffff000000082230:	52800393 	mov	w19, #0x1c                  	// #28
ffff000000082234:	14000005 	b	ffff000000082248 <uart_hex+0x28>
ffff000000082238:	52800601 	mov	w1, #0x30                  	// #48
ffff00000008223c:	0b000020 	add	w0, w1, w0
ffff000000082240:	97ffffca 	bl	ffff000000082168 <uart_send>
ffff000000082244:	51001273 	sub	w19, w19, #0x4
ffff000000082248:	37f800f3 	tbnz	w19, #31, ffff000000082264 <uart_hex+0x44>
ffff00000008224c:	1ad32680 	lsr	w0, w20, w19
ffff000000082250:	12000c00 	and	w0, w0, #0xf
ffff000000082254:	7100241f 	cmp	w0, #0x9
ffff000000082258:	54ffff09 	b.ls	ffff000000082238 <uart_hex+0x18>  // b.plast
ffff00000008225c:	528006e1 	mov	w1, #0x37                  	// #55
ffff000000082260:	17fffff7 	b	ffff00000008223c <uart_hex+0x1c>
ffff000000082264:	a94153f3 	ldp	x19, x20, [sp, #16]
ffff000000082268:	a8c27bfd 	ldp	x29, x30, [sp], #32
ffff00000008226c:	d65f03c0 	ret

ffff000000082270 <enable_miniUART_interrupt>:
ffff000000082270:	d2964201 	mov	x1, #0xb210                	// #45584
ffff000000082274:	f2a7e001 	movk	x1, #0x3f00, lsl #16
ffff000000082278:	f2ffffe1 	movk	x1, #0xffff, lsl #48
ffff00000008227c:	b9400020 	ldr	w0, [x1]
ffff000000082280:	32030000 	orr	w0, w0, #0x20000000
ffff000000082284:	b9000020 	str	w0, [x1]
ffff000000082288:	d65f03c0 	ret

ffff00000008228c <disable_miniUART_interrupt>:
ffff00000008228c:	d2964381 	mov	x1, #0xb21c                	// #45596
ffff000000082290:	f2a7e001 	movk	x1, #0x3f00, lsl #16
ffff000000082294:	f2ffffe1 	movk	x1, #0xffff, lsl #48
ffff000000082298:	b9400020 	ldr	w0, [x1]
ffff00000008229c:	32030000 	orr	w0, w0, #0x20000000
ffff0000000822a0:	b9000020 	str	w0, [x1]
ffff0000000822a4:	d65f03c0 	ret

ffff0000000822a8 <show_interrupt_status>:
ffff0000000822a8:	a9be7bfd 	stp	x29, x30, [sp, #-32]!
ffff0000000822ac:	910003fd 	mov	x29, sp
ffff0000000822b0:	f9000bf3 	str	x19, [sp, #16]
ffff0000000822b4:	d28a0900 	mov	x0, #0x5048                	// #20552
ffff0000000822b8:	f2a7e420 	movk	x0, #0x3f21, lsl #16
ffff0000000822bc:	f2ffffe0 	movk	x0, #0xffff, lsl #48
ffff0000000822c0:	b9400013 	ldr	w19, [x0]
ffff0000000822c4:	36000093 	tbz	w19, #0, ffff0000000822d4 <show_interrupt_status+0x2c>
ffff0000000822c8:	f9400bf3 	ldr	x19, [sp, #16]
ffff0000000822cc:	a8c27bfd 	ldp	x29, x30, [sp], #32
ffff0000000822d0:	d65f03c0 	ret
ffff0000000822d4:	b0000000 	adrp	x0, ffff000000083000 <sys_uart_read+0xc>
ffff0000000822d8:	91182000 	add	x0, x0, #0x608
ffff0000000822dc:	97ffffbe 	bl	ffff0000000821d4 <uart_puts>
ffff0000000822e0:	71030a7f 	cmp	w19, #0xc2
ffff0000000822e4:	540000a0 	b.eq	ffff0000000822f8 <show_interrupt_status+0x50>  // b.none
ffff0000000822e8:	7103127f 	cmp	w19, #0xc4
ffff0000000822ec:	540000e0 	b.eq	ffff000000082308 <show_interrupt_status+0x60>  // b.none
ffff0000000822f0:	97ffffe7 	bl	ffff00000008228c <disable_miniUART_interrupt>
ffff0000000822f4:	17fffff5 	b	ffff0000000822c8 <show_interrupt_status+0x20>
ffff0000000822f8:	b0000000 	adrp	x0, ffff000000083000 <sys_uart_read+0xc>
ffff0000000822fc:	91188000 	add	x0, x0, #0x620
ffff000000082300:	97ffffb5 	bl	ffff0000000821d4 <uart_puts>
ffff000000082304:	17fffffb 	b	ffff0000000822f0 <show_interrupt_status+0x48>
ffff000000082308:	b0000000 	adrp	x0, ffff000000083000 <sys_uart_read+0xc>
ffff00000008230c:	91192000 	add	x0, x0, #0x648
ffff000000082310:	97ffffb1 	bl	ffff0000000821d4 <uart_puts>
ffff000000082314:	17fffff7 	b	ffff0000000822f0 <show_interrupt_status+0x48>

ffff000000082318 <mmu_info_init>:
ffff000000082318:	52800001 	mov	w1, #0x0                   	// #0
ffff00000008231c:	14000009 	b	ffff000000082340 <mmu_info_init+0x28>
ffff000000082320:	d0000020 	adrp	x0, ffff000000088000 <_binary_user8_elf_start+0x3ff0>
ffff000000082324:	f9405c00 	ldr	x0, [x0, #184]
ffff000000082328:	937d7c22 	sbfiz	x2, x1, #3, #32
ffff00000008232c:	8b020003 	add	x3, x0, x2
ffff000000082330:	52800024 	mov	w4, #0x1                   	// #1
ffff000000082334:	b8226804 	str	w4, [x0, x2]
ffff000000082338:	b900047f 	str	wzr, [x3, #4]
ffff00000008233c:	0b040021 	add	w1, w1, w4
ffff000000082340:	7107fc3f 	cmp	w1, #0x1ff
ffff000000082344:	54fffeed 	b.le	ffff000000082320 <mmu_info_init+0x8>
ffff000000082348:	52804001 	mov	w1, #0x200                 	// #512
ffff00000008234c:	14000009 	b	ffff000000082370 <mmu_info_init+0x58>
ffff000000082350:	d0000020 	adrp	x0, ffff000000088000 <_binary_user8_elf_start+0x3ff0>
ffff000000082354:	f9405c00 	ldr	x0, [x0, #184]
ffff000000082358:	937d7c22 	sbfiz	x2, x1, #3, #32
ffff00000008235c:	8b020003 	add	x3, x0, x2
ffff000000082360:	b822681f 	str	wzr, [x0, x2]
ffff000000082364:	52800020 	mov	w0, #0x1                   	// #1
ffff000000082368:	b9000460 	str	w0, [x3, #4]
ffff00000008236c:	0b000021 	add	w1, w1, w0
ffff000000082370:	529dffe0 	mov	w0, #0xefff                	// #61439
ffff000000082374:	72a00060 	movk	w0, #0x3, lsl #16
ffff000000082378:	6b00003f 	cmp	w1, w0
ffff00000008237c:	54fffead 	b.le	ffff000000082350 <mmu_info_init+0x38>
ffff000000082380:	321417e1 	mov	w1, #0x3f000               	// #258048
ffff000000082384:	14000009 	b	ffff0000000823a8 <mmu_info_init+0x90>
ffff000000082388:	d0000020 	adrp	x0, ffff000000088000 <_binary_user8_elf_start+0x3ff0>
ffff00000008238c:	f9405c00 	ldr	x0, [x0, #184]
ffff000000082390:	937d7c22 	sbfiz	x2, x1, #3, #32
ffff000000082394:	8b020003 	add	x3, x0, x2
ffff000000082398:	52800024 	mov	w4, #0x1                   	// #1
ffff00000008239c:	b8226804 	str	w4, [x0, x2]
ffff0000000823a0:	b900047f 	str	wzr, [x3, #4]
ffff0000000823a4:	0b040021 	add	w1, w1, w4
ffff0000000823a8:	12bfff80 	mov	w0, #0x3ffff               	// #262143
ffff0000000823ac:	6b00003f 	cmp	w1, w0
ffff0000000823b0:	54fffecd 	b.le	ffff000000082388 <mmu_info_init+0x70>
ffff0000000823b4:	d65f03c0 	ret

ffff0000000823b8 <virtAddr2phyAddr>:
ffff0000000823b8:	9240bc00 	and	x0, x0, #0xffffffffffff
ffff0000000823bc:	d65f03c0 	ret

ffff0000000823c0 <phyAddr2virtAddr>:
ffff0000000823c0:	92503c00 	and	x0, x0, #0xffff000000000000
ffff0000000823c4:	d65f03c0 	ret

ffff0000000823c8 <phyAddr2PFN>:
ffff0000000823c8:	d34cac00 	ubfx	x0, x0, #12, #32
ffff0000000823cc:	d65f03c0 	ret

ffff0000000823d0 <PFN2phyAddr>:
ffff0000000823d0:	53144c00 	lsl	w0, w0, #12
ffff0000000823d4:	93407c00 	sxtw	x0, w0
ffff0000000823d8:	d65f03c0 	ret

ffff0000000823dc <page_alloc>:
ffff0000000823dc:	52804000 	mov	w0, #0x200                 	// #512
ffff0000000823e0:	14000002 	b	ffff0000000823e8 <page_alloc+0xc>
ffff0000000823e4:	11000400 	add	w0, w0, #0x1
ffff0000000823e8:	529dffe1 	mov	w1, #0xefff                	// #61439
ffff0000000823ec:	72a00061 	movk	w1, #0x3, lsl #16
ffff0000000823f0:	6b01001f 	cmp	w0, w1
ffff0000000823f4:	5400020c 	b.gt	ffff000000082434 <page_alloc+0x58>
ffff0000000823f8:	937d7c01 	sbfiz	x1, x0, #3, #32
ffff0000000823fc:	d0000022 	adrp	x2, ffff000000088000 <_binary_user8_elf_start+0x3ff0>
ffff000000082400:	f9405c42 	ldr	x2, [x2, #184]
ffff000000082404:	b8616841 	ldr	w1, [x2, x1]
ffff000000082408:	35fffee1 	cbnz	w1, ffff0000000823e4 <page_alloc+0x8>
ffff00000008240c:	8b20cc41 	add	x1, x2, w0, sxtw #3
ffff000000082410:	b9400421 	ldr	w1, [x1, #4]
ffff000000082414:	7100043f 	cmp	w1, #0x1
ffff000000082418:	54fffe61 	b.ne	ffff0000000823e4 <page_alloc+0x8>  // b.any
ffff00000008241c:	937d7c01 	sbfiz	x1, x0, #3, #32
ffff000000082420:	d0000022 	adrp	x2, ffff000000088000 <_binary_user8_elf_start+0x3ff0>
ffff000000082424:	f9405c42 	ldr	x2, [x2, #184]
ffff000000082428:	52800023 	mov	w3, #0x1                   	// #1
ffff00000008242c:	b8216843 	str	w3, [x2, x1]
ffff000000082430:	d65f03c0 	ret
ffff000000082434:	12800000 	mov	w0, #0xffffffff            	// #-1
ffff000000082438:	17fffffe 	b	ffff000000082430 <page_alloc+0x54>

ffff00000008243c <page_free>:
ffff00000008243c:	7141001f 	cmp	w0, #0x40, lsl #12
ffff000000082440:	540000a8 	b.hi	ffff000000082454 <page_free+0x18>  // b.pmore
ffff000000082444:	937d7c00 	sbfiz	x0, x0, #3, #32
ffff000000082448:	d0000021 	adrp	x1, ffff000000088000 <_binary_user8_elf_start+0x3ff0>
ffff00000008244c:	f9405c21 	ldr	x1, [x1, #184]
ffff000000082450:	b820683f 	str	wzr, [x1, x0]
ffff000000082454:	d65f03c0 	ret

ffff000000082458 <clear_page>:
ffff000000082458:	a9bf7bfd 	stp	x29, x30, [sp, #-16]!
ffff00000008245c:	910003fd 	mov	x29, sp
ffff000000082460:	97ffffdc 	bl	ffff0000000823d0 <PFN2phyAddr>
ffff000000082464:	97ffffd7 	bl	ffff0000000823c0 <phyAddr2virtAddr>
ffff000000082468:	52800001 	mov	w1, #0x0                   	// #0
ffff00000008246c:	14000003 	b	ffff000000082478 <clear_page+0x20>
ffff000000082470:	f800841f 	str	xzr, [x0], #8
ffff000000082474:	11000421 	add	w1, w1, #0x1
ffff000000082478:	528fffe2 	mov	w2, #0x7fff                	// #32767
ffff00000008247c:	6b02003f 	cmp	w1, w2
ffff000000082480:	54ffff8d 	b.le	ffff000000082470 <clear_page+0x18>
ffff000000082484:	a8c17bfd 	ldp	x29, x30, [sp], #16
ffff000000082488:	d65f03c0 	ret

ffff00000008248c <user_page_table_init>:
ffff00000008248c:	a9bc7bfd 	stp	x29, x30, [sp, #-64]!
ffff000000082490:	910003fd 	mov	x29, sp
ffff000000082494:	a90153f3 	stp	x19, x20, [sp, #16]
ffff000000082498:	a9025bf5 	stp	x21, x22, [sp, #32]
ffff00000008249c:	a90363f7 	stp	x23, x24, [sp, #48]
ffff0000000824a0:	2a0103f6 	mov	w22, w1
ffff0000000824a4:	2a0203f5 	mov	w21, w2
ffff0000000824a8:	2a0303f4 	mov	w20, w3
ffff0000000824ac:	2a0403f7 	mov	w23, w4
ffff0000000824b0:	aa0503f3 	mov	x19, x5
ffff0000000824b4:	97ffffc7 	bl	ffff0000000823d0 <PFN2phyAddr>
ffff0000000824b8:	aa0003f8 	mov	x24, x0
ffff0000000824bc:	2a1603e0 	mov	w0, w22
ffff0000000824c0:	97ffffc4 	bl	ffff0000000823d0 <PFN2phyAddr>
ffff0000000824c4:	aa0003f6 	mov	x22, x0
ffff0000000824c8:	2a1503e0 	mov	w0, w21
ffff0000000824cc:	97ffffc1 	bl	ffff0000000823d0 <PFN2phyAddr>
ffff0000000824d0:	aa0003f5 	mov	x21, x0
ffff0000000824d4:	2a1403e0 	mov	w0, w20
ffff0000000824d8:	97ffffbe 	bl	ffff0000000823d0 <PFN2phyAddr>
ffff0000000824dc:	aa0003f4 	mov	x20, x0
ffff0000000824e0:	2a1703e0 	mov	w0, w23
ffff0000000824e4:	97ffffbb 	bl	ffff0000000823d0 <PFN2phyAddr>
ffff0000000824e8:	aa0003f7 	mov	x23, x0
ffff0000000824ec:	aa1803e0 	mov	x0, x24
ffff0000000824f0:	97ffffb4 	bl	ffff0000000823c0 <phyAddr2virtAddr>
ffff0000000824f4:	b24006c1 	orr	x1, x22, #0x3
ffff0000000824f8:	f9000001 	str	x1, [x0]
ffff0000000824fc:	aa1603e0 	mov	x0, x22
ffff000000082500:	97ffffb0 	bl	ffff0000000823c0 <phyAddr2virtAddr>
ffff000000082504:	b24006a1 	orr	x1, x21, #0x3
ffff000000082508:	f9000001 	str	x1, [x0]
ffff00000008250c:	aa1503e0 	mov	x0, x21
ffff000000082510:	97ffffac 	bl	ffff0000000823c0 <phyAddr2virtAddr>
ffff000000082514:	b2400681 	orr	x1, x20, #0x3
ffff000000082518:	f9000001 	str	x1, [x0]
ffff00000008251c:	aa1403e0 	mov	x0, x20
ffff000000082520:	97ffffa8 	bl	ffff0000000823c0 <phyAddr2virtAddr>
ffff000000082524:	d28080a1 	mov	x1, #0x405                 	// #1029
ffff000000082528:	aa0102f7 	orr	x23, x23, x1
ffff00000008252c:	f9000017 	str	x23, [x0]
ffff000000082530:	f9000278 	str	x24, [x19]
ffff000000082534:	f9000676 	str	x22, [x19, #8]
ffff000000082538:	f9000a75 	str	x21, [x19, #16]
ffff00000008253c:	f9000e74 	str	x20, [x19, #24]
ffff000000082540:	a94153f3 	ldp	x19, x20, [sp, #16]
ffff000000082544:	a9425bf5 	ldp	x21, x22, [sp, #32]
ffff000000082548:	a94363f7 	ldp	x23, x24, [sp, #48]
ffff00000008254c:	a8c47bfd 	ldp	x29, x30, [sp], #64
ffff000000082550:	d65f03c0 	ret

ffff000000082554 <user_paging_init>:
ffff000000082554:	a9bb7bfd 	stp	x29, x30, [sp, #-80]!
ffff000000082558:	910003fd 	mov	x29, sp
ffff00000008255c:	a90153f3 	stp	x19, x20, [sp, #16]
ffff000000082560:	f90013f5 	str	x21, [sp, #32]
ffff000000082564:	aa0003f5 	mov	x21, x0
ffff000000082568:	a903ffbf 	stp	xzr, xzr, [x29, #56]
ffff00000008256c:	b9004bbf 	str	wzr, [x29, #72]
ffff000000082570:	52800013 	mov	w19, #0x0                   	// #0
ffff000000082574:	7100127f 	cmp	w19, #0x4
ffff000000082578:	5400010c 	b.gt	ffff000000082598 <user_paging_init+0x44>
ffff00000008257c:	97ffff98 	bl	ffff0000000823dc <page_alloc>
ffff000000082580:	3100041f 	cmn	w0, #0x1
ffff000000082584:	540000a0 	b.eq	ffff000000082598 <user_paging_init+0x44>  // b.none
ffff000000082588:	9100e3a1 	add	x1, x29, #0x38
ffff00000008258c:	b833d820 	str	w0, [x1, w19, sxtw #2]
ffff000000082590:	11000673 	add	w19, w19, #0x1
ffff000000082594:	17fffff8 	b	ffff000000082574 <user_paging_init+0x20>
ffff000000082598:	7100167f 	cmp	w19, #0x5
ffff00000008259c:	54000060 	b.eq	ffff0000000825a8 <user_paging_init+0x54>  // b.none
ffff0000000825a0:	52800014 	mov	w20, #0x0                   	// #0
ffff0000000825a4:	1400000d 	b	ffff0000000825d8 <user_paging_init+0x84>
ffff0000000825a8:	52800014 	mov	w20, #0x0                   	// #0
ffff0000000825ac:	6b14027f 	cmp	w19, w20
ffff0000000825b0:	5400022d 	b.le	ffff0000000825f4 <user_paging_init+0xa0>
ffff0000000825b4:	9100e3a0 	add	x0, x29, #0x38
ffff0000000825b8:	b874d800 	ldr	w0, [x0, w20, sxtw #2]
ffff0000000825bc:	97ffffa7 	bl	ffff000000082458 <clear_page>
ffff0000000825c0:	11000694 	add	w20, w20, #0x1
ffff0000000825c4:	17fffffa 	b	ffff0000000825ac <user_paging_init+0x58>
ffff0000000825c8:	9100e3a0 	add	x0, x29, #0x38
ffff0000000825cc:	b874d800 	ldr	w0, [x0, w20, sxtw #2]
ffff0000000825d0:	97ffff9b 	bl	ffff00000008243c <page_free>
ffff0000000825d4:	11000694 	add	w20, w20, #0x1
ffff0000000825d8:	6b14027f 	cmp	w19, w20
ffff0000000825dc:	54ffff6c 	b.gt	ffff0000000825c8 <user_paging_init+0x74>
ffff0000000825e0:	12800000 	mov	w0, #0xffffffff            	// #-1
ffff0000000825e4:	a94153f3 	ldp	x19, x20, [sp, #16]
ffff0000000825e8:	f94013f5 	ldr	x21, [sp, #32]
ffff0000000825ec:	a8c57bfd 	ldp	x29, x30, [sp], #80
ffff0000000825f0:	d65f03c0 	ret
ffff0000000825f4:	52800033 	mov	w19, #0x1                   	// #1
ffff0000000825f8:	b90022b3 	str	w19, [x21, #32]
ffff0000000825fc:	aa1503e5 	mov	x5, x21
ffff000000082600:	b9404ba4 	ldr	w4, [x29, #72]
ffff000000082604:	b94047a3 	ldr	w3, [x29, #68]
ffff000000082608:	b94043a2 	ldr	w2, [x29, #64]
ffff00000008260c:	b9403fa1 	ldr	w1, [x29, #60]
ffff000000082610:	b9403ba0 	ldr	w0, [x29, #56]
ffff000000082614:	97ffff9e 	bl	ffff00000008248c <user_page_table_init>
ffff000000082618:	2a1303e0 	mov	w0, w19
ffff00000008261c:	17fffff2 	b	ffff0000000825e4 <user_paging_init+0x90>

ffff000000082620 <user_page_new>:
ffff000000082620:	a9be7bfd 	stp	x29, x30, [sp, #-32]!
ffff000000082624:	910003fd 	mov	x29, sp
ffff000000082628:	f9000bf3 	str	x19, [sp, #16]
ffff00000008262c:	aa0003f3 	mov	x19, x0
ffff000000082630:	97ffff6b 	bl	ffff0000000823dc <page_alloc>
ffff000000082634:	3100041f 	cmn	w0, #0x1
ffff000000082638:	54000220 	b.eq	ffff00000008267c <user_page_new+0x5c>  // b.none
ffff00000008263c:	f9000fb4 	str	x20, [x29, #24]
ffff000000082640:	97ffff64 	bl	ffff0000000823d0 <PFN2phyAddr>
ffff000000082644:	aa0003f4 	mov	x20, x0
ffff000000082648:	f9400e61 	ldr	x1, [x19, #24]
ffff00000008264c:	b9402260 	ldr	w0, [x19, #32]
ffff000000082650:	531d7000 	lsl	w0, w0, #3
ffff000000082654:	8b20c020 	add	x0, x1, w0, sxtw
ffff000000082658:	97ffff5a 	bl	ffff0000000823c0 <phyAddr2virtAddr>
ffff00000008265c:	d28080a1 	mov	x1, #0x405                 	// #1029
ffff000000082660:	aa010294 	orr	x20, x20, x1
ffff000000082664:	f9000014 	str	x20, [x0]
ffff000000082668:	b9402260 	ldr	w0, [x19, #32]
ffff00000008266c:	11000400 	add	w0, w0, #0x1
ffff000000082670:	b9002260 	str	w0, [x19, #32]
ffff000000082674:	52800020 	mov	w0, #0x1                   	// #1
ffff000000082678:	f9400fb4 	ldr	x20, [x29, #24]
ffff00000008267c:	f9400bf3 	ldr	x19, [sp, #16]
ffff000000082680:	a8c27bfd 	ldp	x29, x30, [sp], #32
ffff000000082684:	d65f03c0 	ret

ffff000000082688 <set_user_rd>:
ffff000000082688:	a9be7bfd 	stp	x29, x30, [sp, #-32]!
ffff00000008268c:	910003fd 	mov	x29, sp
ffff000000082690:	a90153f3 	stp	x19, x20, [sp, #16]
ffff000000082694:	aa0003f3 	mov	x19, x0
ffff000000082698:	f9400c00 	ldr	x0, [x0, #24]
ffff00000008269c:	97ffff49 	bl	ffff0000000823c0 <phyAddr2virtAddr>
ffff0000000826a0:	f9400000 	ldr	x0, [x0]
ffff0000000826a4:	97ffff47 	bl	ffff0000000823c0 <phyAddr2virtAddr>
ffff0000000826a8:	aa0003f4 	mov	x20, x0
ffff0000000826ac:	f9400260 	ldr	x0, [x19]
ffff0000000826b0:	97fffde4 	bl	ffff000000081e40 <set_ttbr0>
ffff0000000826b4:	aa1403e0 	mov	x0, x20
ffff0000000826b8:	97fffdd5 	bl	ffff000000081e0c <copy_rd>
ffff0000000826bc:	a94153f3 	ldp	x19, x20, [sp, #16]
ffff0000000826c0:	a8c27bfd 	ldp	x29, x30, [sp], #32
ffff0000000826c4:	d65f03c0 	ret

ffff0000000826c8 <init_Queue>:
ffff0000000826c8:	b900401f 	str	wzr, [x0, #64]
ffff0000000826cc:	b900441f 	str	wzr, [x0, #68]
ffff0000000826d0:	b900481f 	str	wzr, [x0, #72]
ffff0000000826d4:	d65f03c0 	ret

ffff0000000826d8 <isEmpty>:
ffff0000000826d8:	b9404002 	ldr	w2, [x0, #64]
ffff0000000826dc:	b9404401 	ldr	w1, [x0, #68]
ffff0000000826e0:	6b01005f 	cmp	w2, w1
ffff0000000826e4:	54000060 	b.eq	ffff0000000826f0 <isEmpty+0x18>  // b.none
ffff0000000826e8:	52800000 	mov	w0, #0x0                   	// #0
ffff0000000826ec:	d65f03c0 	ret
ffff0000000826f0:	b9404800 	ldr	w0, [x0, #72]
ffff0000000826f4:	34000060 	cbz	w0, ffff000000082700 <isEmpty+0x28>
ffff0000000826f8:	52800000 	mov	w0, #0x0                   	// #0
ffff0000000826fc:	17fffffc 	b	ffff0000000826ec <isEmpty+0x14>
ffff000000082700:	52800020 	mov	w0, #0x1                   	// #1
ffff000000082704:	17fffffa 	b	ffff0000000826ec <isEmpty+0x14>

ffff000000082708 <enQueue>:
ffff000000082708:	b9404802 	ldr	w2, [x0, #72]
ffff00000008270c:	350001a2 	cbnz	w2, ffff000000082740 <enQueue+0x38>
ffff000000082710:	b9404403 	ldr	w3, [x0, #68]
ffff000000082714:	11000463 	add	w3, w3, #0x1
ffff000000082718:	6b0303e2 	negs	w2, w3
ffff00000008271c:	12000c63 	and	w3, w3, #0xf
ffff000000082720:	12000c42 	and	w2, w2, #0xf
ffff000000082724:	5a824462 	csneg	w2, w3, w2, mi  // mi = first
ffff000000082728:	b9004402 	str	w2, [x0, #68]
ffff00000008272c:	b822d801 	str	w1, [x0, w2, sxtw #2]
ffff000000082730:	b9404001 	ldr	w1, [x0, #64]
ffff000000082734:	6b01005f 	cmp	w2, w1
ffff000000082738:	54000120 	b.eq	ffff00000008275c <enQueue+0x54>  // b.none
ffff00000008273c:	d65f03c0 	ret
ffff000000082740:	a9bf7bfd 	stp	x29, x30, [sp, #-16]!
ffff000000082744:	910003fd 	mov	x29, sp
ffff000000082748:	b0000000 	adrp	x0, ffff000000083000 <sys_uart_read+0xc>
ffff00000008274c:	9119a000 	add	x0, x0, #0x668
ffff000000082750:	97fffea1 	bl	ffff0000000821d4 <uart_puts>
ffff000000082754:	a8c17bfd 	ldp	x29, x30, [sp], #16
ffff000000082758:	d65f03c0 	ret
ffff00000008275c:	52800021 	mov	w1, #0x1                   	// #1
ffff000000082760:	b9004801 	str	w1, [x0, #72]
ffff000000082764:	d65f03c0 	ret

ffff000000082768 <deQueue>:
ffff000000082768:	a9be7bfd 	stp	x29, x30, [sp, #-32]!
ffff00000008276c:	910003fd 	mov	x29, sp
ffff000000082770:	f9000bf3 	str	x19, [sp, #16]
ffff000000082774:	aa0003f3 	mov	x19, x0
ffff000000082778:	97ffffd8 	bl	ffff0000000826d8 <isEmpty>
ffff00000008277c:	350001a0 	cbnz	w0, ffff0000000827b0 <deQueue+0x48>
ffff000000082780:	b9404260 	ldr	w0, [x19, #64]
ffff000000082784:	11000400 	add	w0, w0, #0x1
ffff000000082788:	6b0003e1 	negs	w1, w0
ffff00000008278c:	12000c00 	and	w0, w0, #0xf
ffff000000082790:	12000c21 	and	w1, w1, #0xf
ffff000000082794:	5a814400 	csneg	w0, w0, w1, mi  // mi = first
ffff000000082798:	b9004260 	str	w0, [x19, #64]
ffff00000008279c:	b9004a7f 	str	wzr, [x19, #72]
ffff0000000827a0:	b860da60 	ldr	w0, [x19, w0, sxtw #2]
ffff0000000827a4:	f9400bf3 	ldr	x19, [sp, #16]
ffff0000000827a8:	a8c27bfd 	ldp	x29, x30, [sp], #32
ffff0000000827ac:	d65f03c0 	ret
ffff0000000827b0:	b0000000 	adrp	x0, ffff000000083000 <sys_uart_read+0xc>
ffff0000000827b4:	911a0000 	add	x0, x0, #0x680
ffff0000000827b8:	97fffe87 	bl	ffff0000000821d4 <uart_puts>
ffff0000000827bc:	12800000 	mov	w0, #0xffffffff            	// #-1
ffff0000000827c0:	17fffff9 	b	ffff0000000827a4 <deQueue+0x3c>

ffff0000000827c4 <SET>:
ffff0000000827c4:	d2800022 	mov	x2, #0x1                   	// #1
ffff0000000827c8:	9ac12042 	lsl	x2, x2, x1
ffff0000000827cc:	f9400001 	ldr	x1, [x0]
ffff0000000827d0:	aa020021 	orr	x1, x1, x2
ffff0000000827d4:	f9000001 	str	x1, [x0]
ffff0000000827d8:	d65f03c0 	ret

ffff0000000827dc <CLR>:
ffff0000000827dc:	d2800022 	mov	x2, #0x1                   	// #1
ffff0000000827e0:	9ac12041 	lsl	x1, x2, x1
ffff0000000827e4:	f9400002 	ldr	x2, [x0]
ffff0000000827e8:	8a210041 	bic	x1, x2, x1
ffff0000000827ec:	f9000001 	str	x1, [x0]
ffff0000000827f0:	d65f03c0 	ret

ffff0000000827f4 <isSET>:
ffff0000000827f4:	d2800022 	mov	x2, #0x1                   	// #1
ffff0000000827f8:	9ac12041 	lsl	x1, x2, x1
ffff0000000827fc:	ea00003f 	tst	x1, x0
ffff000000082800:	54000061 	b.ne	ffff00000008280c <isSET+0x18>  // b.any
ffff000000082804:	52800000 	mov	w0, #0x0                   	// #0
ffff000000082808:	d65f03c0 	ret
ffff00000008280c:	52800020 	mov	w0, #0x1                   	// #1
ffff000000082810:	17fffffe 	b	ffff000000082808 <isSET+0x14>

ffff000000082814 <ALLOCATABLE>:
ffff000000082814:	a9be7bfd 	stp	x29, x30, [sp, #-32]!
ffff000000082818:	910003fd 	mov	x29, sp
ffff00000008281c:	a90153f3 	stp	x19, x20, [sp, #16]
ffff000000082820:	aa0003f4 	mov	x20, x0
ffff000000082824:	52800013 	mov	w19, #0x0                   	// #0
ffff000000082828:	7100fe7f 	cmp	w19, #0x3f
ffff00000008282c:	540000ec 	b.gt	ffff000000082848 <ALLOCATABLE+0x34>
ffff000000082830:	2a1303e1 	mov	w1, w19
ffff000000082834:	aa1403e0 	mov	x0, x20
ffff000000082838:	97ffffef 	bl	ffff0000000827f4 <isSET>
ffff00000008283c:	34000080 	cbz	w0, ffff00000008284c <ALLOCATABLE+0x38>
ffff000000082840:	11000673 	add	w19, w19, #0x1
ffff000000082844:	17fffff9 	b	ffff000000082828 <ALLOCATABLE+0x14>
ffff000000082848:	12800013 	mov	w19, #0xffffffff            	// #-1
ffff00000008284c:	2a1303e0 	mov	w0, w19
ffff000000082850:	a94153f3 	ldp	x19, x20, [sp, #16]
ffff000000082854:	a8c27bfd 	ldp	x29, x30, [sp], #32
ffff000000082858:	d65f03c0 	ret

ffff00000008285c <BITFULL>:
ffff00000008285c:	b100041f 	cmn	x0, #0x1
ffff000000082860:	54000060 	b.eq	ffff00000008286c <BITFULL+0x10>  // b.none
ffff000000082864:	52800000 	mov	w0, #0x0                   	// #0
ffff000000082868:	d65f03c0 	ret
ffff00000008286c:	52800020 	mov	w0, #0x1                   	// #1
ffff000000082870:	17fffffe 	b	ffff000000082868 <BITFULL+0xc>

ffff000000082874 <privilege_task_create>:
ffff000000082874:	a9bc7bfd 	stp	x29, x30, [sp, #-64]!
ffff000000082878:	910003fd 	mov	x29, sp
ffff00000008287c:	f9000ff4 	str	x20, [sp, #24]
ffff000000082880:	f9001bf7 	str	x23, [sp, #48]
ffff000000082884:	aa0003f7 	mov	x23, x0
ffff000000082888:	f0000020 	adrp	x0, ffff000000089000 <task_allocate_status>
ffff00000008288c:	f9400014 	ldr	x20, [x0]
ffff000000082890:	aa1403e0 	mov	x0, x20
ffff000000082894:	97fffff2 	bl	ffff00000008285c <BITFULL>
ffff000000082898:	35000da0 	cbnz	w0, ffff000000082a4c <privilege_task_create+0x1d8>
ffff00000008289c:	f9000bb3 	str	x19, [x29, #16]
ffff0000000828a0:	f0000020 	adrp	x0, ffff000000089000 <task_allocate_status>
ffff0000000828a4:	91000000 	add	x0, x0, #0x0
ffff0000000828a8:	f9400400 	ldr	x0, [x0, #8]
ffff0000000828ac:	97ffffec 	bl	ffff00000008285c <BITFULL>
ffff0000000828b0:	2a0003f3 	mov	w19, w0
ffff0000000828b4:	35000d00 	cbnz	w0, ffff000000082a54 <privilege_task_create+0x1e0>
ffff0000000828b8:	a9025bb5 	stp	x21, x22, [x29, #32]
ffff0000000828bc:	aa1403e0 	mov	x0, x20
ffff0000000828c0:	97ffffd5 	bl	ffff000000082814 <ALLOCATABLE>
ffff0000000828c4:	2a0003f4 	mov	w20, w0
ffff0000000828c8:	f0000036 	adrp	x22, ffff000000089000 <task_allocate_status>
ffff0000000828cc:	910002d6 	add	x22, x22, #0x0
ffff0000000828d0:	2a0003e1 	mov	w1, w0
ffff0000000828d4:	aa1603e0 	mov	x0, x22
ffff0000000828d8:	97ffffbb 	bl	ffff0000000827c4 <SET>
ffff0000000828dc:	f8408ec0 	ldr	x0, [x22, #8]!
ffff0000000828e0:	97ffffcd 	bl	ffff000000082814 <ALLOCATABLE>
ffff0000000828e4:	2a0003f5 	mov	w21, w0
ffff0000000828e8:	2a0003e1 	mov	w1, w0
ffff0000000828ec:	aa1603e0 	mov	x0, x22
ffff0000000828f0:	97ffffb5 	bl	ffff0000000827c4 <SET>
ffff0000000828f4:	d0000021 	adrp	x1, ffff000000088000 <_binary_user8_elf_start+0x3ff0>
ffff0000000828f8:	f9405821 	ldr	x1, [x1, #176]
ffff0000000828fc:	93407e80 	sxtw	x0, w20
ffff000000082900:	d37ff802 	lsl	x2, x0, #1
ffff000000082904:	8b000044 	add	x4, x2, x0
ffff000000082908:	d37ef483 	lsl	x3, x4, #2
ffff00000008290c:	cb000063 	sub	x3, x3, x0
ffff000000082910:	d37cec64 	lsl	x4, x3, #4
ffff000000082914:	8b040024 	add	x4, x1, x4
ffff000000082918:	b9007894 	str	w20, [x4, #120]
ffff00000008291c:	8b000044 	add	x4, x2, x0
ffff000000082920:	d37ef483 	lsl	x3, x4, #2
ffff000000082924:	cb000063 	sub	x3, x3, x0
ffff000000082928:	d37cec64 	lsl	x4, x3, #4
ffff00000008292c:	8b040024 	add	x4, x1, x4
ffff000000082930:	f9002c97 	str	x23, [x4, #88]
ffff000000082934:	91000405 	add	x5, x0, #0x1
ffff000000082938:	d0000023 	adrp	x3, ffff000000088000 <_binary_user8_elf_start+0x3ff0>
ffff00000008293c:	f9406463 	ldr	x3, [x3, #200]
ffff000000082940:	8b053065 	add	x5, x3, x5, lsl #12
ffff000000082944:	8b000044 	add	x4, x2, x0
ffff000000082948:	d37ef483 	lsl	x3, x4, #2
ffff00000008294c:	cb000063 	sub	x3, x3, x0
ffff000000082950:	d37cec64 	lsl	x4, x3, #4
ffff000000082954:	8b040024 	add	x4, x1, x4
ffff000000082958:	f9003085 	str	x5, [x4, #96]
ffff00000008295c:	8b000044 	add	x4, x2, x0
ffff000000082960:	d37ef483 	lsl	x3, x4, #2
ffff000000082964:	cb000063 	sub	x3, x3, x0
ffff000000082968:	d37cec64 	lsl	x4, x3, #4
ffff00000008296c:	8b040024 	add	x4, x1, x4
ffff000000082970:	b9007c95 	str	w21, [x4, #124]
ffff000000082974:	93407ea3 	sxtw	x3, w21
ffff000000082978:	91000463 	add	x3, x3, #0x1
ffff00000008297c:	d0000024 	adrp	x4, ffff000000088000 <_binary_user8_elf_start+0x3ff0>
ffff000000082980:	f9405084 	ldr	x4, [x4, #160]
ffff000000082984:	8b033083 	add	x3, x4, x3, lsl #12
ffff000000082988:	8b000042 	add	x2, x2, x0
ffff00000008298c:	d37ef444 	lsl	x4, x2, #2
ffff000000082990:	cb000080 	sub	x0, x4, x0
ffff000000082994:	d37cec02 	lsl	x2, x0, #4
ffff000000082998:	8b020021 	add	x1, x1, x2
ffff00000008299c:	f9003423 	str	x3, [x1, #104]
ffff0000000829a0:	2a1303e2 	mov	w2, w19
ffff0000000829a4:	14000007 	b	ffff0000000829c0 <privilege_task_create+0x14c>
ffff0000000829a8:	93747e80 	sbfiz	x0, x20, #12, #32
ffff0000000829ac:	d0000021 	adrp	x1, ffff000000088000 <_binary_user8_elf_start+0x3ff0>
ffff0000000829b0:	f9406421 	ldr	x1, [x1, #200]
ffff0000000829b4:	8b000020 	add	x0, x1, x0
ffff0000000829b8:	3822c81f 	strb	wzr, [x0, w2, sxtw]
ffff0000000829bc:	11000442 	add	w2, w2, #0x1
ffff0000000829c0:	713ffc5f 	cmp	w2, #0xfff
ffff0000000829c4:	54ffff2d 	b.le	ffff0000000829a8 <privilege_task_create+0x134>
ffff0000000829c8:	14000007 	b	ffff0000000829e4 <privilege_task_create+0x170>
ffff0000000829cc:	93747ea0 	sbfiz	x0, x21, #12, #32
ffff0000000829d0:	d0000021 	adrp	x1, ffff000000088000 <_binary_user8_elf_start+0x3ff0>
ffff0000000829d4:	f9405021 	ldr	x1, [x1, #160]
ffff0000000829d8:	8b000020 	add	x0, x1, x0
ffff0000000829dc:	3833c81f 	strb	wzr, [x0, w19, sxtw]
ffff0000000829e0:	11000673 	add	w19, w19, #0x1
ffff0000000829e4:	713ffe7f 	cmp	w19, #0xfff
ffff0000000829e8:	54ffff2d 	b.le	ffff0000000829cc <privilege_task_create+0x158>
ffff0000000829ec:	d0000020 	adrp	x0, ffff000000088000 <_binary_user8_elf_start+0x3ff0>
ffff0000000829f0:	f9405800 	ldr	x0, [x0, #176]
ffff0000000829f4:	93407e82 	sxtw	x2, w20
ffff0000000829f8:	d37ff843 	lsl	x3, x2, #1
ffff0000000829fc:	8b020064 	add	x4, x3, x2
ffff000000082a00:	d37ef481 	lsl	x1, x4, #2
ffff000000082a04:	cb020021 	sub	x1, x1, x2
ffff000000082a08:	d37cec24 	lsl	x4, x1, #4
ffff000000082a0c:	8b040004 	add	x4, x0, x4
ffff000000082a10:	12800001 	mov	w1, #0xffffffff            	// #-1
ffff000000082a14:	b9008081 	str	w1, [x4, #128]
ffff000000082a18:	52800021 	mov	w1, #0x1                   	// #1
ffff000000082a1c:	b9008481 	str	w1, [x4, #132]
ffff000000082a20:	2a1403e1 	mov	w1, w20
ffff000000082a24:	d0000020 	adrp	x0, ffff000000088000 <_binary_user8_elf_start+0x3ff0>
ffff000000082a28:	f9405400 	ldr	x0, [x0, #168]
ffff000000082a2c:	97ffff37 	bl	ffff000000082708 <enQueue>
ffff000000082a30:	f9400bb3 	ldr	x19, [x29, #16]
ffff000000082a34:	a9425bb5 	ldp	x21, x22, [x29, #32]
ffff000000082a38:	2a1403e0 	mov	w0, w20
ffff000000082a3c:	f9400ff4 	ldr	x20, [sp, #24]
ffff000000082a40:	f9401bf7 	ldr	x23, [sp, #48]
ffff000000082a44:	a8c47bfd 	ldp	x29, x30, [sp], #64
ffff000000082a48:	d65f03c0 	ret
ffff000000082a4c:	12800014 	mov	w20, #0xffffffff            	// #-1
ffff000000082a50:	17fffffa 	b	ffff000000082a38 <privilege_task_create+0x1c4>
ffff000000082a54:	12800014 	mov	w20, #0xffffffff            	// #-1
ffff000000082a58:	f9400bb3 	ldr	x19, [x29, #16]
ffff000000082a5c:	17fffff7 	b	ffff000000082a38 <privilege_task_create+0x1c4>

ffff000000082a60 <do_exec>:
ffff000000082a60:	a9be7bfd 	stp	x29, x30, [sp, #-32]!
ffff000000082a64:	910003fd 	mov	x29, sp
ffff000000082a68:	f9000bf3 	str	x19, [sp, #16]
ffff000000082a6c:	aa0003f3 	mov	x19, x0
ffff000000082a70:	97fffd5b 	bl	ffff000000081fdc <get_cur_task>
ffff000000082a74:	f9003813 	str	x19, [x0, #112]
ffff000000082a78:	f9002c13 	str	x19, [x0, #88]
ffff000000082a7c:	b9807801 	ldrsw	x1, [x0, #120]
ffff000000082a80:	91000421 	add	x1, x1, #0x1
ffff000000082a84:	d0000022 	adrp	x2, ffff000000088000 <_binary_user8_elf_start+0x3ff0>
ffff000000082a88:	f9406442 	ldr	x2, [x2, #200]
ffff000000082a8c:	8b013041 	add	x1, x2, x1, lsl #12
ffff000000082a90:	f9003001 	str	x1, [x0, #96]
ffff000000082a94:	b9807c01 	ldrsw	x1, [x0, #124]
ffff000000082a98:	91000421 	add	x1, x1, #0x1
ffff000000082a9c:	d0000022 	adrp	x2, ffff000000088000 <_binary_user8_elf_start+0x3ff0>
ffff000000082aa0:	f9405042 	ldr	x2, [x2, #160]
ffff000000082aa4:	8b013041 	add	x1, x2, x1, lsl #12
ffff000000082aa8:	f9003401 	str	x1, [x0, #104]
ffff000000082aac:	d5184033 	msr	elr_el1, x19
ffff000000082ab0:	d5184101 	msr	sp_el0, x1
ffff000000082ab4:	d69f03e0 	eret
ffff000000082ab8:	f9400bf3 	ldr	x19, [sp, #16]
ffff000000082abc:	a8c27bfd 	ldp	x29, x30, [sp], #32
ffff000000082ac0:	d65f03c0 	ret

ffff000000082ac4 <context_switch>:
ffff000000082ac4:	a9bd7bfd 	stp	x29, x30, [sp, #-48]!
ffff000000082ac8:	910003fd 	mov	x29, sp
ffff000000082acc:	a90153f3 	stp	x19, x20, [sp, #16]
ffff000000082ad0:	a9025bf5 	stp	x21, x22, [sp, #32]
ffff000000082ad4:	2a0003f3 	mov	w19, w0
ffff000000082ad8:	97fffd41 	bl	ffff000000081fdc <get_cur_task>
ffff000000082adc:	aa0003f6 	mov	x22, x0
ffff000000082ae0:	b9408400 	ldr	w0, [x0, #132]
ffff000000082ae4:	7100041f 	cmp	w0, #0x1
ffff000000082ae8:	540002c0 	b.eq	ffff000000082b40 <context_switch+0x7c>  // b.none
ffff000000082aec:	93407e73 	sxtw	x19, w19
ffff000000082af0:	d37ffa74 	lsl	x20, x19, #1
ffff000000082af4:	8b130280 	add	x0, x20, x19
ffff000000082af8:	d37ef401 	lsl	x1, x0, #2
ffff000000082afc:	cb130021 	sub	x1, x1, x19
ffff000000082b00:	d37cec20 	lsl	x0, x1, #4
ffff000000082b04:	d0000035 	adrp	x21, ffff000000088000 <_binary_user8_elf_start+0x3ff0>
ffff000000082b08:	f9405ab5 	ldr	x21, [x21, #176]
ffff000000082b0c:	8b0002a0 	add	x0, x21, x0
ffff000000082b10:	97fffd35 	bl	ffff000000081fe4 <set_cur_task>
ffff000000082b14:	8b130294 	add	x20, x20, x19
ffff000000082b18:	d37ef680 	lsl	x0, x20, #2
ffff000000082b1c:	cb130013 	sub	x19, x0, x19
ffff000000082b20:	d37cee61 	lsl	x1, x19, #4
ffff000000082b24:	8b0102a1 	add	x1, x21, x1
ffff000000082b28:	aa1603e0 	mov	x0, x22
ffff000000082b2c:	97fffd1b 	bl	ffff000000081f98 <switch_to>
ffff000000082b30:	a94153f3 	ldp	x19, x20, [sp, #16]
ffff000000082b34:	a9425bf5 	ldp	x21, x22, [sp, #32]
ffff000000082b38:	a8c37bfd 	ldp	x29, x30, [sp], #48
ffff000000082b3c:	d65f03c0 	ret
ffff000000082b40:	b9407ac1 	ldr	w1, [x22, #120]
ffff000000082b44:	d0000020 	adrp	x0, ffff000000088000 <_binary_user8_elf_start+0x3ff0>
ffff000000082b48:	f9405400 	ldr	x0, [x0, #168]
ffff000000082b4c:	97fffeef 	bl	ffff000000082708 <enQueue>
ffff000000082b50:	17ffffe7 	b	ffff000000082aec <context_switch+0x28>

ffff000000082b54 <schedule>:
ffff000000082b54:	f0000020 	adrp	x0, ffff000000089000 <task_allocate_status>
ffff000000082b58:	91000000 	add	x0, x0, #0x0
ffff000000082b5c:	b9401000 	ldr	w0, [x0, #16]
ffff000000082b60:	35000040 	cbnz	w0, ffff000000082b68 <schedule+0x14>
ffff000000082b64:	d65f03c0 	ret
ffff000000082b68:	a9bf7bfd 	stp	x29, x30, [sp, #-16]!
ffff000000082b6c:	910003fd 	mov	x29, sp
ffff000000082b70:	f0000020 	adrp	x0, ffff000000089000 <task_allocate_status>
ffff000000082b74:	91000000 	add	x0, x0, #0x0
ffff000000082b78:	b900101f 	str	wzr, [x0, #16]
ffff000000082b7c:	d0000020 	adrp	x0, ffff000000088000 <_binary_user8_elf_start+0x3ff0>
ffff000000082b80:	f9405400 	ldr	x0, [x0, #168]
ffff000000082b84:	97fffef9 	bl	ffff000000082768 <deQueue>
ffff000000082b88:	97ffffcf 	bl	ffff000000082ac4 <context_switch>
ffff000000082b8c:	a8c17bfd 	ldp	x29, x30, [sp], #16
ffff000000082b90:	d65f03c0 	ret

ffff000000082b94 <idle>:
ffff000000082b94:	a9bf7bfd 	stp	x29, x30, [sp, #-16]!
ffff000000082b98:	910003fd 	mov	x29, sp
ffff000000082b9c:	14000005 	b	ffff000000082bb0 <idle+0x1c>
ffff000000082ba0:	b0000000 	adrp	x0, ffff000000083000 <sys_uart_read+0xc>
ffff000000082ba4:	911a6000 	add	x0, x0, #0x698
ffff000000082ba8:	97fffd8b 	bl	ffff0000000821d4 <uart_puts>
ffff000000082bac:	97fffcd7 	bl	ffff000000081f08 <sleep>
ffff000000082bb0:	d0000020 	adrp	x0, ffff000000088000 <_binary_user8_elf_start+0x3ff0>
ffff000000082bb4:	f9405400 	ldr	x0, [x0, #168]
ffff000000082bb8:	97fffeec 	bl	ffff000000082768 <deQueue>
ffff000000082bbc:	11000401 	add	w1, w0, #0x1
ffff000000082bc0:	7100043f 	cmp	w1, #0x1
ffff000000082bc4:	54fffee9 	b.ls	ffff000000082ba0 <idle+0xc>  // b.plast
ffff000000082bc8:	97ffffbf 	bl	ffff000000082ac4 <context_switch>
ffff000000082bcc:	17fffff9 	b	ffff000000082bb0 <idle+0x1c>

ffff000000082bd0 <kernel_routine_entry>:
ffff000000082bd0:	a9bf7bfd 	stp	x29, x30, [sp, #-16]!
ffff000000082bd4:	910003fd 	mov	x29, sp
ffff000000082bd8:	97fffd01 	bl	ffff000000081fdc <get_cur_task>
ffff000000082bdc:	9101a001 	add	x1, x0, #0x68
ffff000000082be0:	9101c000 	add	x0, x0, #0x70
ffff000000082be4:	97fffd07 	bl	ffff000000082000 <store_umode_lr_sp>
ffff000000082be8:	a8c17bfd 	ldp	x29, x30, [sp], #16
ffff000000082bec:	d65f03c0 	ret

ffff000000082bf0 <kernel_routine_exit>:
ffff000000082bf0:	a9bf7bfd 	stp	x29, x30, [sp, #-16]!
ffff000000082bf4:	910003fd 	mov	x29, sp
ffff000000082bf8:	97fffcf9 	bl	ffff000000081fdc <get_cur_task>
ffff000000082bfc:	f9403401 	ldr	x1, [x0, #104]
ffff000000082c00:	f9403800 	ldr	x0, [x0, #112]
ffff000000082c04:	97fffd04 	bl	ffff000000082014 <restore_umode_lr_sp>
ffff000000082c08:	a8c17bfd 	ldp	x29, x30, [sp], #16
ffff000000082c0c:	d65f03c0 	ret

ffff000000082c10 <leave_fork>:
ffff000000082c10:	a9bf7bfd 	stp	x29, x30, [sp, #-16]!
ffff000000082c14:	910003fd 	mov	x29, sp
ffff000000082c18:	97fffff6 	bl	ffff000000082bf0 <kernel_routine_exit>
ffff000000082c1c:	97fffd01 	bl	ffff000000082020 <restore_all_reg>
ffff000000082c20:	a8c17bfd 	ldp	x29, x30, [sp], #16
ffff000000082c24:	d65f03c0 	ret

ffff000000082c28 <do_fork>:
ffff000000082c28:	a9be7bfd 	stp	x29, x30, [sp, #-32]!
ffff000000082c2c:	910003fd 	mov	x29, sp
ffff000000082c30:	f9000bf3 	str	x19, [sp, #16]
ffff000000082c34:	97fffcea 	bl	ffff000000081fdc <get_cur_task>
ffff000000082c38:	aa0003f3 	mov	x19, x0
ffff000000082c3c:	90000000 	adrp	x0, ffff000000082000 <store_umode_lr_sp>
ffff000000082c40:	91304000 	add	x0, x0, #0xc10
ffff000000082c44:	97ffff0c 	bl	ffff000000082874 <privilege_task_create>
ffff000000082c48:	b9407a66 	ldr	w6, [x19, #120]
ffff000000082c4c:	93407c02 	sxtw	x2, w0
ffff000000082c50:	8b020443 	add	x3, x2, x2, lsl #1
ffff000000082c54:	d37ef461 	lsl	x1, x3, #2
ffff000000082c58:	cb020021 	sub	x1, x1, x2
ffff000000082c5c:	d37cec22 	lsl	x2, x1, #4
ffff000000082c60:	d0000021 	adrp	x1, ffff000000088000 <_binary_user8_elf_start+0x3ff0>
ffff000000082c64:	f9405821 	ldr	x1, [x1, #176]
ffff000000082c68:	8b020021 	add	x1, x1, x2
ffff000000082c6c:	b9407c27 	ldr	w7, [x1, #124]
ffff000000082c70:	b9407e65 	ldr	w5, [x19, #124]
ffff000000082c74:	f9403268 	ldr	x8, [x19, #96]
ffff000000082c78:	f85e810a 	ldur	x10, [x8, #-24]
ffff000000082c7c:	93747ca1 	sbfiz	x1, x5, #12, #32
ffff000000082c80:	d0000022 	adrp	x2, ffff000000088000 <_binary_user8_elf_start+0x3ff0>
ffff000000082c84:	f9405042 	ldr	x2, [x2, #160]
ffff000000082c88:	8b020029 	add	x9, x1, x2
ffff000000082c8c:	4b090141 	sub	w1, w10, w9
ffff000000082c90:	93747ce3 	sbfiz	x3, x7, #12, #32
ffff000000082c94:	8b21c061 	add	x1, x3, w1, sxtw
ffff000000082c98:	8b020021 	add	x1, x1, x2
ffff000000082c9c:	f81e8101 	stur	x1, [x8, #-24]
ffff000000082ca0:	f810011f 	stur	xzr, [x8, #-256]
ffff000000082ca4:	52800002 	mov	w2, #0x0                   	// #0
ffff000000082ca8:	1400000a 	b	ffff000000082cd0 <do_fork+0xa8>
ffff000000082cac:	d0000021 	adrp	x1, ffff000000088000 <_binary_user8_elf_start+0x3ff0>
ffff000000082cb0:	f9406421 	ldr	x1, [x1, #200]
ffff000000082cb4:	93747cc3 	sbfiz	x3, x6, #12, #32
ffff000000082cb8:	8b030023 	add	x3, x1, x3
ffff000000082cbc:	3862c863 	ldrb	w3, [x3, w2, sxtw]
ffff000000082cc0:	93747c04 	sbfiz	x4, x0, #12, #32
ffff000000082cc4:	8b040021 	add	x1, x1, x4
ffff000000082cc8:	3822c823 	strb	w3, [x1, w2, sxtw]
ffff000000082ccc:	11000442 	add	w2, w2, #0x1
ffff000000082cd0:	713ffc5f 	cmp	w2, #0xfff
ffff000000082cd4:	54fffecd 	b.le	ffff000000082cac <do_fork+0x84>
ffff000000082cd8:	52800002 	mov	w2, #0x0                   	// #0
ffff000000082cdc:	1400000a 	b	ffff000000082d04 <do_fork+0xdc>
ffff000000082ce0:	d0000021 	adrp	x1, ffff000000088000 <_binary_user8_elf_start+0x3ff0>
ffff000000082ce4:	f9405021 	ldr	x1, [x1, #160]
ffff000000082ce8:	93747ca3 	sbfiz	x3, x5, #12, #32
ffff000000082cec:	8b030023 	add	x3, x1, x3
ffff000000082cf0:	3862c863 	ldrb	w3, [x3, w2, sxtw]
ffff000000082cf4:	93747ce4 	sbfiz	x4, x7, #12, #32
ffff000000082cf8:	8b040021 	add	x1, x1, x4
ffff000000082cfc:	3822c823 	strb	w3, [x1, w2, sxtw]
ffff000000082d00:	11000442 	add	w2, w2, #0x1
ffff000000082d04:	713ffc5f 	cmp	w2, #0xfff
ffff000000082d08:	54fffecd 	b.le	ffff000000082ce0 <do_fork+0xb8>
ffff000000082d0c:	93407c00 	sxtw	x0, w0
ffff000000082d10:	f8100100 	stur	x0, [x8, #-256]
ffff000000082d14:	f81e810a 	stur	x10, [x8, #-24]
ffff000000082d18:	f9403a65 	ldr	x5, [x19, #112]
ffff000000082d1c:	d0000023 	adrp	x3, ffff000000088000 <_binary_user8_elf_start+0x3ff0>
ffff000000082d20:	f9405863 	ldr	x3, [x3, #176]
ffff000000082d24:	d37ff804 	lsl	x4, x0, #1
ffff000000082d28:	8b000082 	add	x2, x4, x0
ffff000000082d2c:	d37ef441 	lsl	x1, x2, #2
ffff000000082d30:	cb000021 	sub	x1, x1, x0
ffff000000082d34:	d37cec22 	lsl	x2, x1, #4
ffff000000082d38:	8b020062 	add	x2, x3, x2
ffff000000082d3c:	f9003845 	str	x5, [x2, #112]
ffff000000082d40:	f9403661 	ldr	x1, [x19, #104]
ffff000000082d44:	4b090021 	sub	w1, w1, w9
ffff000000082d48:	93747ce2 	sbfiz	x2, x7, #12, #32
ffff000000082d4c:	8b21c041 	add	x1, x2, w1, sxtw
ffff000000082d50:	d0000022 	adrp	x2, ffff000000088000 <_binary_user8_elf_start+0x3ff0>
ffff000000082d54:	f9405042 	ldr	x2, [x2, #160]
ffff000000082d58:	8b020021 	add	x1, x1, x2
ffff000000082d5c:	8b000085 	add	x5, x4, x0
ffff000000082d60:	d37ef4a2 	lsl	x2, x5, #2
ffff000000082d64:	cb000042 	sub	x2, x2, x0
ffff000000082d68:	d37cec45 	lsl	x5, x2, #4
ffff000000082d6c:	8b050065 	add	x5, x3, x5
ffff000000082d70:	f90034a1 	str	x1, [x5, #104]
ffff000000082d74:	f9403262 	ldr	x2, [x19, #96]
ffff000000082d78:	93747cc1 	sbfiz	x1, x6, #12, #32
ffff000000082d7c:	d0000025 	adrp	x5, ffff000000088000 <_binary_user8_elf_start+0x3ff0>
ffff000000082d80:	f94064a5 	ldr	x5, [x5, #200]
ffff000000082d84:	8b050021 	add	x1, x1, x5
ffff000000082d88:	4b010041 	sub	w1, w2, w1
ffff000000082d8c:	51040021 	sub	w1, w1, #0x100
ffff000000082d90:	d374cc02 	lsl	x2, x0, #12
ffff000000082d94:	8b21c041 	add	x1, x2, w1, sxtw
ffff000000082d98:	8b050021 	add	x1, x1, x5
ffff000000082d9c:	8b000084 	add	x4, x4, x0
ffff000000082da0:	d37ef482 	lsl	x2, x4, #2
ffff000000082da4:	cb000040 	sub	x0, x2, x0
ffff000000082da8:	d37cec02 	lsl	x2, x0, #4
ffff000000082dac:	8b020063 	add	x3, x3, x2
ffff000000082db0:	f9003061 	str	x1, [x3, #96]
ffff000000082db4:	f9400bf3 	ldr	x19, [sp, #16]
ffff000000082db8:	a8c27bfd 	ldp	x29, x30, [sp], #32
ffff000000082dbc:	d65f03c0 	ret

ffff000000082dc0 <do_exit>:
ffff000000082dc0:	a9be7bfd 	stp	x29, x30, [sp, #-32]!
ffff000000082dc4:	910003fd 	mov	x29, sp
ffff000000082dc8:	f9000bf3 	str	x19, [sp, #16]
ffff000000082dcc:	2a0003f3 	mov	w19, w0
ffff000000082dd0:	97fffc83 	bl	ffff000000081fdc <get_cur_task>
ffff000000082dd4:	52800061 	mov	w1, #0x3                   	// #3
ffff000000082dd8:	b9008401 	str	w1, [x0, #132]
ffff000000082ddc:	b9008013 	str	w19, [x0, #128]
ffff000000082de0:	f0000033 	adrp	x19, ffff000000089000 <task_allocate_status>
ffff000000082de4:	91000273 	add	x19, x19, #0x0
ffff000000082de8:	b9407c01 	ldr	w1, [x0, #124]
ffff000000082dec:	91002260 	add	x0, x19, #0x8
ffff000000082df0:	97fffe7b 	bl	ffff0000000827dc <CLR>
ffff000000082df4:	d0000000 	adrp	x0, ffff000000084000 <zombieReaper_pcb>
ffff000000082df8:	f9400001 	ldr	x1, [x0]
ffff000000082dfc:	52800020 	mov	w0, #0x1                   	// #1
ffff000000082e00:	b9008420 	str	w0, [x1, #132]
ffff000000082e04:	b9001260 	str	w0, [x19, #16]
ffff000000082e08:	97ffff53 	bl	ffff000000082b54 <schedule>
ffff000000082e0c:	f9400bf3 	ldr	x19, [sp, #16]
ffff000000082e10:	a8c27bfd 	ldp	x29, x30, [sp], #32
ffff000000082e14:	d65f03c0 	ret

ffff000000082e18 <zombieReaper>:
ffff000000082e18:	a9be7bfd 	stp	x29, x30, [sp, #-32]!
ffff000000082e1c:	910003fd 	mov	x29, sp
ffff000000082e20:	f9000bf3 	str	x19, [sp, #16]
ffff000000082e24:	14000022 	b	ffff000000082eac <zombieReaper+0x94>
ffff000000082e28:	11000673 	add	w19, w19, #0x1
ffff000000082e2c:	7100fe7f 	cmp	w19, #0x3f
ffff000000082e30:	540002cc 	b.gt	ffff000000082e88 <zombieReaper+0x70>
ffff000000082e34:	2a1303e1 	mov	w1, w19
ffff000000082e38:	f0000020 	adrp	x0, ffff000000089000 <task_allocate_status>
ffff000000082e3c:	f9400000 	ldr	x0, [x0]
ffff000000082e40:	97fffe6d 	bl	ffff0000000827f4 <isSET>
ffff000000082e44:	34ffff20 	cbz	w0, ffff000000082e28 <zombieReaper+0x10>
ffff000000082e48:	93407e60 	sxtw	x0, w19
ffff000000082e4c:	8b000402 	add	x2, x0, x0, lsl #1
ffff000000082e50:	d37ef441 	lsl	x1, x2, #2
ffff000000082e54:	cb000021 	sub	x1, x1, x0
ffff000000082e58:	d37cec22 	lsl	x2, x1, #4
ffff000000082e5c:	d0000020 	adrp	x0, ffff000000088000 <_binary_user8_elf_start+0x3ff0>
ffff000000082e60:	f9405800 	ldr	x0, [x0, #176]
ffff000000082e64:	8b020000 	add	x0, x0, x2
ffff000000082e68:	b9408400 	ldr	w0, [x0, #132]
ffff000000082e6c:	71000c1f 	cmp	w0, #0x3
ffff000000082e70:	54fffdc1 	b.ne	ffff000000082e28 <zombieReaper+0x10>  // b.any
ffff000000082e74:	2a1303e1 	mov	w1, w19
ffff000000082e78:	f0000020 	adrp	x0, ffff000000089000 <task_allocate_status>
ffff000000082e7c:	91000000 	add	x0, x0, #0x0
ffff000000082e80:	97fffe57 	bl	ffff0000000827dc <CLR>
ffff000000082e84:	17ffffe9 	b	ffff000000082e28 <zombieReaper+0x10>
ffff000000082e88:	d0000000 	adrp	x0, ffff000000084000 <zombieReaper_pcb>
ffff000000082e8c:	f9400000 	ldr	x0, [x0]
ffff000000082e90:	52800041 	mov	w1, #0x2                   	// #2
ffff000000082e94:	b9008401 	str	w1, [x0, #132]
ffff000000082e98:	f0000020 	adrp	x0, ffff000000089000 <task_allocate_status>
ffff000000082e9c:	91000000 	add	x0, x0, #0x0
ffff000000082ea0:	52800021 	mov	w1, #0x1                   	// #1
ffff000000082ea4:	b9001001 	str	w1, [x0, #16]
ffff000000082ea8:	97ffff2b 	bl	ffff000000082b54 <schedule>
ffff000000082eac:	52800013 	mov	w19, #0x0                   	// #0
ffff000000082eb0:	17ffffdf 	b	ffff000000082e2c <zombieReaper+0x14>

ffff000000082eb4 <create_user_virt_test>:
ffff000000082eb4:	a9be7bfd 	stp	x29, x30, [sp, #-32]!
ffff000000082eb8:	910003fd 	mov	x29, sp
ffff000000082ebc:	f9000bf3 	str	x19, [sp, #16]
ffff000000082ec0:	d0000033 	adrp	x19, ffff000000088000 <_binary_user8_elf_start+0x3ff0>
ffff000000082ec4:	f9405a73 	ldr	x19, [x19, #176]
ffff000000082ec8:	9104e273 	add	x19, x19, #0x138
ffff000000082ecc:	aa1303e0 	mov	x0, x19
ffff000000082ed0:	97fffda1 	bl	ffff000000082554 <user_paging_init>
ffff000000082ed4:	aa1303e0 	mov	x0, x19
ffff000000082ed8:	97fffdec 	bl	ffff000000082688 <set_user_rd>
ffff000000082edc:	f9400bf3 	ldr	x19, [sp, #16]
ffff000000082ee0:	a8c27bfd 	ldp	x29, x30, [sp], #32
ffff000000082ee4:	d65f03c0 	ret

ffff000000082ee8 <kernel_main>:
ffff000000082ee8:	a9be7bfd 	stp	x29, x30, [sp, #-32]!
ffff000000082eec:	910003fd 	mov	x29, sp
ffff000000082ef0:	f9000bf3 	str	x19, [sp, #16]
ffff000000082ef4:	97fffc5d 	bl	ffff000000082068 <uart_init>
ffff000000082ef8:	97fffd08 	bl	ffff000000082318 <mmu_info_init>
ffff000000082efc:	b0000000 	adrp	x0, ffff000000083000 <sys_uart_read+0xc>
ffff000000082f00:	911aa013 	add	x19, x0, #0x6a8
ffff000000082f04:	aa1303e0 	mov	x0, x19
ffff000000082f08:	97fffcb3 	bl	ffff0000000821d4 <uart_puts>
ffff000000082f0c:	97ffffea 	bl	ffff000000082eb4 <create_user_virt_test>
ffff000000082f10:	aa1303e0 	mov	x0, x19
ffff000000082f14:	97fffcb0 	bl	ffff0000000821d4 <uart_puts>
ffff000000082f18:	14000000 	b	ffff000000082f18 <kernel_main+0x30>

ffff000000082f1c <get_currentEL>:
ffff000000082f1c:	d5384240 	mrs	x0, currentel
ffff000000082f20:	927e0400 	and	x0, x0, #0xc
ffff000000082f24:	13027c00 	asr	w0, w0, #2
ffff000000082f28:	d65f03c0 	ret

ffff000000082f2c <show_currentEL>:
ffff000000082f2c:	a9be7bfd 	stp	x29, x30, [sp, #-32]!
ffff000000082f30:	910003fd 	mov	x29, sp
ffff000000082f34:	f9000bf3 	str	x19, [sp, #16]
ffff000000082f38:	97fffff9 	bl	ffff000000082f1c <get_currentEL>
ffff000000082f3c:	2a0003f3 	mov	w19, w0
ffff000000082f40:	b0000000 	adrp	x0, ffff000000083000 <sys_uart_read+0xc>
ffff000000082f44:	911ae000 	add	x0, x0, #0x6b8
ffff000000082f48:	97fffca3 	bl	ffff0000000821d4 <uart_puts>
ffff000000082f4c:	2a1303e0 	mov	w0, w19
ffff000000082f50:	97fffcb4 	bl	ffff000000082220 <uart_hex>
ffff000000082f54:	b0000000 	adrp	x0, ffff000000083000 <sys_uart_read+0xc>
ffff000000082f58:	911a4000 	add	x0, x0, #0x690
ffff000000082f5c:	97fffc9e 	bl	ffff0000000821d4 <uart_puts>
ffff000000082f60:	f9400bf3 	ldr	x19, [sp, #16]
ffff000000082f64:	a8c27bfd 	ldp	x29, x30, [sp], #32
ffff000000082f68:	d65f03c0 	ret

ffff000000082f6c <show_esr_elr>:
ffff000000082f6c:	a9be7bfd 	stp	x29, x30, [sp, #-32]!
ffff000000082f70:	910003fd 	mov	x29, sp
ffff000000082f74:	a90153f3 	stp	x19, x20, [sp, #16]
ffff000000082f78:	aa0003f4 	mov	x20, x0
ffff000000082f7c:	aa0103f3 	mov	x19, x1
ffff000000082f80:	b0000000 	adrp	x0, ffff000000083000 <sys_uart_read+0xc>
ffff000000082f84:	911b2000 	add	x0, x0, #0x6c8
ffff000000082f88:	97fffc93 	bl	ffff0000000821d4 <uart_puts>
ffff000000082f8c:	b0000000 	adrp	x0, ffff000000083000 <sys_uart_read+0xc>
ffff000000082f90:	911bc000 	add	x0, x0, #0x6f0
ffff000000082f94:	97fffc90 	bl	ffff0000000821d4 <uart_puts>
ffff000000082f98:	2a1303e0 	mov	w0, w19
ffff000000082f9c:	97fffca1 	bl	ffff000000082220 <uart_hex>
ffff000000082fa0:	b0000013 	adrp	x19, ffff000000083000 <sys_uart_read+0xc>
ffff000000082fa4:	911a4273 	add	x19, x19, #0x690
ffff000000082fa8:	aa1303e0 	mov	x0, x19
ffff000000082fac:	97fffc8a 	bl	ffff0000000821d4 <uart_puts>
ffff000000082fb0:	b0000000 	adrp	x0, ffff000000083000 <sys_uart_read+0xc>
ffff000000082fb4:	911c4000 	add	x0, x0, #0x710
ffff000000082fb8:	97fffc87 	bl	ffff0000000821d4 <uart_puts>
ffff000000082fbc:	d35ae680 	ubfx	x0, x20, #26, #32
ffff000000082fc0:	97fffc98 	bl	ffff000000082220 <uart_hex>
ffff000000082fc4:	aa1303e0 	mov	x0, x19
ffff000000082fc8:	97fffc83 	bl	ffff0000000821d4 <uart_puts>
ffff000000082fcc:	b0000000 	adrp	x0, ffff000000083000 <sys_uart_read+0xc>
ffff000000082fd0:	911ca000 	add	x0, x0, #0x728
ffff000000082fd4:	97fffc80 	bl	ffff0000000821d4 <uart_puts>
ffff000000082fd8:	12006280 	and	w0, w20, #0x1ffffff
ffff000000082fdc:	97fffc91 	bl	ffff000000082220 <uart_hex>
ffff000000082fe0:	aa1303e0 	mov	x0, x19
ffff000000082fe4:	97fffc7c 	bl	ffff0000000821d4 <uart_puts>
ffff000000082fe8:	a94153f3 	ldp	x19, x20, [sp, #16]
ffff000000082fec:	a8c27bfd 	ldp	x29, x30, [sp], #32
ffff000000082ff0:	d65f03c0 	ret

ffff000000082ff4 <sys_uart_read>:
ffff000000082ff4:	a9bd7bfd 	stp	x29, x30, [sp, #-48]!
ffff000000082ff8:	910003fd 	mov	x29, sp
ffff000000082ffc:	a90153f3 	stp	x19, x20, [sp, #16]
ffff000000083000:	f90013f5 	str	x21, [sp, #32]
ffff000000083004:	f9402415 	ldr	x21, [x0, #72]
ffff000000083008:	b9405014 	ldr	w20, [x0, #80]
ffff00000008300c:	52800013 	mov	w19, #0x0                   	// #0
ffff000000083010:	14000004 	b	ffff000000083020 <sys_uart_read+0x2c>
ffff000000083014:	97fffc60 	bl	ffff000000082194 <uart_getc>
ffff000000083018:	3833caa0 	strb	w0, [x21, w19, sxtw]
ffff00000008301c:	11000673 	add	w19, w19, #0x1
ffff000000083020:	6b14027f 	cmp	w19, w20
ffff000000083024:	54ffff8b 	b.lt	ffff000000083014 <sys_uart_read+0x20>  // b.tstop
ffff000000083028:	a94153f3 	ldp	x19, x20, [sp, #16]
ffff00000008302c:	f94013f5 	ldr	x21, [sp, #32]
ffff000000083030:	a8c37bfd 	ldp	x29, x30, [sp], #48
ffff000000083034:	d65f03c0 	ret

ffff000000083038 <sysCall_handler_el0>:
ffff000000083038:	a9be7bfd 	stp	x29, x30, [sp, #-32]!
ffff00000008303c:	910003fd 	mov	x29, sp
ffff000000083040:	f9000bf3 	str	x19, [sp, #16]
ffff000000083044:	97fffbe6 	bl	ffff000000081fdc <get_cur_task>
ffff000000083048:	f9403001 	ldr	x1, [x0, #96]
ffff00000008304c:	f8540033 	ldur	x19, [x1, #-192]
ffff000000083050:	f1000e7f 	cmp	x19, #0x3
ffff000000083054:	54000300 	b.eq	ffff0000000830b4 <sysCall_handler_el0+0x7c>  // b.none
ffff000000083058:	54000148 	b.hi	ffff000000083080 <sysCall_handler_el0+0x48>  // b.pmore
ffff00000008305c:	f100067f 	cmp	x19, #0x1
ffff000000083060:	54000200 	b.eq	ffff0000000830a0 <sysCall_handler_el0+0x68>  // b.none
ffff000000083064:	54000228 	b.hi	ffff0000000830a8 <sysCall_handler_el0+0x70>  // b.pmore
ffff000000083068:	b9807800 	ldrsw	x0, [x0, #120]
ffff00000008306c:	f8100020 	stur	x0, [x1, #-256]
ffff000000083070:	97fffee0 	bl	ffff000000082bf0 <kernel_routine_exit>
ffff000000083074:	f9400bf3 	ldr	x19, [sp, #16]
ffff000000083078:	a8c27bfd 	ldp	x29, x30, [sp], #32
ffff00000008307c:	d65f03c0 	ret
ffff000000083080:	f100167f 	cmp	x19, #0x5
ffff000000083084:	54000260 	b.eq	ffff0000000830d0 <sysCall_handler_el0+0x98>  // b.none
ffff000000083088:	540001e3 	b.cc	ffff0000000830c4 <sysCall_handler_el0+0x8c>  // b.lo, b.ul, b.last
ffff00000008308c:	f1001a7f 	cmp	x19, #0x6
ffff000000083090:	54000241 	b.ne	ffff0000000830d8 <sysCall_handler_el0+0xa0>  // b.any
ffff000000083094:	b8548020 	ldur	w0, [x1, #-184]
ffff000000083098:	97ffff4a 	bl	ffff000000082dc0 <do_exit>
ffff00000008309c:	17fffff5 	b	ffff000000083070 <sysCall_handler_el0+0x38>
ffff0000000830a0:	97fffead 	bl	ffff000000082b54 <schedule>
ffff0000000830a4:	17fffff3 	b	ffff000000083070 <sysCall_handler_el0+0x38>
ffff0000000830a8:	f8548020 	ldur	x0, [x1, #-184]
ffff0000000830ac:	97fffc4a 	bl	ffff0000000821d4 <uart_puts>
ffff0000000830b0:	17fffff0 	b	ffff000000083070 <sysCall_handler_el0+0x38>
ffff0000000830b4:	d1040022 	sub	x2, x1, #0x100
ffff0000000830b8:	aa0203e0 	mov	x0, x2
ffff0000000830bc:	97ffffce 	bl	ffff000000082ff4 <sys_uart_read>
ffff0000000830c0:	17ffffec 	b	ffff000000083070 <sysCall_handler_el0+0x38>
ffff0000000830c4:	f8548020 	ldur	x0, [x1, #-184]
ffff0000000830c8:	97fffe66 	bl	ffff000000082a60 <do_exec>
ffff0000000830cc:	17ffffe9 	b	ffff000000083070 <sysCall_handler_el0+0x38>
ffff0000000830d0:	97fffed6 	bl	ffff000000082c28 <do_fork>
ffff0000000830d4:	17ffffe7 	b	ffff000000083070 <sysCall_handler_el0+0x38>
ffff0000000830d8:	90000000 	adrp	x0, ffff000000083000 <sys_uart_read+0xc>
ffff0000000830dc:	911d4000 	add	x0, x0, #0x750
ffff0000000830e0:	97fffc3d 	bl	ffff0000000821d4 <uart_puts>
ffff0000000830e4:	2a1303e0 	mov	w0, w19
ffff0000000830e8:	97fffc4e 	bl	ffff000000082220 <uart_hex>
ffff0000000830ec:	90000000 	adrp	x0, ffff000000083000 <sys_uart_read+0xc>
ffff0000000830f0:	911d8000 	add	x0, x0, #0x760
ffff0000000830f4:	97fffc38 	bl	ffff0000000821d4 <uart_puts>
ffff0000000830f8:	17ffffde 	b	ffff000000083070 <sysCall_handler_el0+0x38>

ffff0000000830fc <sync_exc0_handler>:
ffff0000000830fc:	a9be7bfd 	stp	x29, x30, [sp, #-32]!
ffff000000083100:	910003fd 	mov	x29, sp
ffff000000083104:	910043a1 	add	x1, x29, #0x10
ffff000000083108:	910063a0 	add	x0, x29, #0x18
ffff00000008310c:	97fffb75 	bl	ffff000000081ee0 <get_sync_exc_param_el1>
ffff000000083110:	f9400fa0 	ldr	x0, [x29, #24]
ffff000000083114:	d35afc00 	lsr	x0, x0, #26
ffff000000083118:	f100541f 	cmp	x0, #0x15
ffff00000008311c:	54000120 	b.eq	ffff000000083140 <sync_exc0_handler+0x44>  // b.none
ffff000000083120:	90000000 	adrp	x0, ffff000000083000 <sys_uart_read+0xc>
ffff000000083124:	911dc000 	add	x0, x0, #0x770
ffff000000083128:	97fffc2b 	bl	ffff0000000821d4 <uart_puts>
ffff00000008312c:	f9400ba1 	ldr	x1, [x29, #16]
ffff000000083130:	f9400fa0 	ldr	x0, [x29, #24]
ffff000000083134:	97ffff8e 	bl	ffff000000082f6c <show_esr_elr>
ffff000000083138:	a8c27bfd 	ldp	x29, x30, [sp], #32
ffff00000008313c:	d65f03c0 	ret
ffff000000083140:	97fffea4 	bl	ffff000000082bd0 <kernel_routine_entry>
ffff000000083144:	f9400fa0 	ldr	x0, [x29, #24]
ffff000000083148:	f240601f 	tst	x0, #0x1ffffff
ffff00000008314c:	54ffff61 	b.ne	ffff000000083138 <sync_exc0_handler+0x3c>  // b.any
ffff000000083150:	97ffffba 	bl	ffff000000083038 <sysCall_handler_el0>
ffff000000083154:	17fffff9 	b	ffff000000083138 <sync_exc0_handler+0x3c>

ffff000000083158 <sync_exc1_handler>:
ffff000000083158:	a9be7bfd 	stp	x29, x30, [sp, #-32]!
ffff00000008315c:	910003fd 	mov	x29, sp
ffff000000083160:	97ffff73 	bl	ffff000000082f2c <show_currentEL>
ffff000000083164:	910043a1 	add	x1, x29, #0x10
ffff000000083168:	910063a0 	add	x0, x29, #0x18
ffff00000008316c:	97fffb5d 	bl	ffff000000081ee0 <get_sync_exc_param_el1>
ffff000000083170:	90000000 	adrp	x0, ffff000000083000 <sys_uart_read+0xc>
ffff000000083174:	911e2000 	add	x0, x0, #0x788
ffff000000083178:	97fffc17 	bl	ffff0000000821d4 <uart_puts>
ffff00000008317c:	f9400ba1 	ldr	x1, [x29, #16]
ffff000000083180:	f9400fa0 	ldr	x0, [x29, #24]
ffff000000083184:	97ffff7a 	bl	ffff000000082f6c <show_esr_elr>
ffff000000083188:	a8c27bfd 	ldp	x29, x30, [sp], #32
ffff00000008318c:	d65f03c0 	ret

ffff000000083190 <sync_exc2_handler>:
ffff000000083190:	a9be7bfd 	stp	x29, x30, [sp, #-32]!
ffff000000083194:	910003fd 	mov	x29, sp
ffff000000083198:	97ffff65 	bl	ffff000000082f2c <show_currentEL>
ffff00000008319c:	910043a1 	add	x1, x29, #0x10
ffff0000000831a0:	910063a0 	add	x0, x29, #0x18
ffff0000000831a4:	97fffb54 	bl	ffff000000081ef4 <get_sync_exc_param_el2>
ffff0000000831a8:	f9400ba1 	ldr	x1, [x29, #16]
ffff0000000831ac:	f9400fa0 	ldr	x0, [x29, #24]
ffff0000000831b0:	97ffff6f 	bl	ffff000000082f6c <show_esr_elr>
ffff0000000831b4:	a8c27bfd 	ldp	x29, x30, [sp], #32
ffff0000000831b8:	d65f03c0 	ret

ffff0000000831bc <irq_exc_handler>:
ffff0000000831bc:	a9bf7bfd 	stp	x29, x30, [sp, #-16]!
ffff0000000831c0:	910003fd 	mov	x29, sp
ffff0000000831c4:	d2800c00 	mov	x0, #0x60                  	// #96
ffff0000000831c8:	f2a80000 	movk	x0, #0x4000, lsl #16
ffff0000000831cc:	b9400000 	ldr	w0, [x0]
ffff0000000831d0:	370800c0 	tbnz	w0, #1, ffff0000000831e8 <irq_exc_handler+0x2c>
ffff0000000831d4:	90000000 	adrp	x0, ffff000000083000 <sys_uart_read+0xc>
ffff0000000831d8:	911e8000 	add	x0, x0, #0x7a0
ffff0000000831dc:	97fffbfe 	bl	ffff0000000821d4 <uart_puts>
ffff0000000831e0:	a8c17bfd 	ldp	x29, x30, [sp], #16
ffff0000000831e4:	d65f03c0 	ret
ffff0000000831e8:	940000f4 	bl	ffff0000000835b8 <core_timer_handler>
ffff0000000831ec:	b0000020 	adrp	x0, ffff000000088000 <_binary_user8_elf_start+0x3ff0>
ffff0000000831f0:	f9406000 	ldr	x0, [x0, #192]
ffff0000000831f4:	52800021 	mov	w1, #0x1                   	// #1
ffff0000000831f8:	b9000001 	str	w1, [x0]
ffff0000000831fc:	97fffe56 	bl	ffff000000082b54 <schedule>
ffff000000083200:	17fffff8 	b	ffff0000000831e0 <irq_exc_handler+0x24>

ffff000000083204 <SError_handler>:
ffff000000083204:	a9bf7bfd 	stp	x29, x30, [sp, #-16]!
ffff000000083208:	910003fd 	mov	x29, sp
ffff00000008320c:	90000000 	adrp	x0, ffff000000083000 <sys_uart_read+0xc>
ffff000000083210:	911ee000 	add	x0, x0, #0x7b8
ffff000000083214:	97fffbf0 	bl	ffff0000000821d4 <uart_puts>
ffff000000083218:	a8c17bfd 	ldp	x29, x30, [sp], #16
ffff00000008321c:	d65f03c0 	ret

ffff000000083220 <printASCII>:
ffff000000083220:	a9bd7bfd 	stp	x29, x30, [sp, #-48]!
ffff000000083224:	910003fd 	mov	x29, sp
ffff000000083228:	a90153f3 	stp	x19, x20, [sp, #16]
ffff00000008322c:	f90013f5 	str	x21, [sp, #32]
ffff000000083230:	12001c15 	and	w21, w0, #0xff
ffff000000083234:	52800140 	mov	w0, #0xa                   	// #10
ffff000000083238:	97fffbcc 	bl	ffff000000082168 <uart_send>
ffff00000008323c:	5290a3f3 	mov	w19, #0x851f                	// #34079
ffff000000083240:	72aa3d73 	movk	w19, #0x51eb, lsl #16
ffff000000083244:	9b337eb3 	smull	x19, w21, w19
ffff000000083248:	9365fe73 	asr	x19, x19, #37
ffff00000008324c:	1100c260 	add	w0, w19, #0x30
ffff000000083250:	97fffbc6 	bl	ffff000000082168 <uart_send>
ffff000000083254:	52800c94 	mov	w20, #0x64                  	// #100
ffff000000083258:	1b14d674 	msub	w20, w19, w20, w21
ffff00000008325c:	528cccf3 	mov	w19, #0x6667                	// #26215
ffff000000083260:	72acccd3 	movk	w19, #0x6666, lsl #16
ffff000000083264:	9b337e93 	smull	x19, w20, w19
ffff000000083268:	9362fe73 	asr	x19, x19, #34
ffff00000008326c:	4b947e73 	sub	w19, w19, w20, asr #31
ffff000000083270:	1100c260 	add	w0, w19, #0x30
ffff000000083274:	97fffbbd 	bl	ffff000000082168 <uart_send>
ffff000000083278:	0b130a73 	add	w19, w19, w19, lsl #2
ffff00000008327c:	531f7a60 	lsl	w0, w19, #1
ffff000000083280:	4b000280 	sub	w0, w20, w0
ffff000000083284:	1100c000 	add	w0, w0, #0x30
ffff000000083288:	97fffbb8 	bl	ffff000000082168 <uart_send>
ffff00000008328c:	52800140 	mov	w0, #0xa                   	// #10
ffff000000083290:	97fffbb6 	bl	ffff000000082168 <uart_send>
ffff000000083294:	a94153f3 	ldp	x19, x20, [sp, #16]
ffff000000083298:	f94013f5 	ldr	x21, [sp, #32]
ffff00000008329c:	a8c37bfd 	ldp	x29, x30, [sp], #48
ffff0000000832a0:	d65f03c0 	ret

ffff0000000832a4 <strlen>:
ffff0000000832a4:	52800001 	mov	w1, #0x0                   	// #0
ffff0000000832a8:	14000003 	b	ffff0000000832b4 <strlen+0x10>
ffff0000000832ac:	11000421 	add	w1, w1, #0x1
ffff0000000832b0:	91000400 	add	x0, x0, #0x1
ffff0000000832b4:	39400002 	ldrb	w2, [x0]
ffff0000000832b8:	35ffffa2 	cbnz	w2, ffff0000000832ac <strlen+0x8>
ffff0000000832bc:	2a0103e0 	mov	w0, w1
ffff0000000832c0:	d65f03c0 	ret

ffff0000000832c4 <strAppend>:
ffff0000000832c4:	a9bd7bfd 	stp	x29, x30, [sp, #-48]!
ffff0000000832c8:	910003fd 	mov	x29, sp
ffff0000000832cc:	a90153f3 	stp	x19, x20, [sp, #16]
ffff0000000832d0:	f90013f5 	str	x21, [sp, #32]
ffff0000000832d4:	aa0003f4 	mov	x20, x0
ffff0000000832d8:	aa0103f5 	mov	x21, x1
ffff0000000832dc:	97fffff2 	bl	ffff0000000832a4 <strlen>
ffff0000000832e0:	2a0003f3 	mov	w19, w0
ffff0000000832e4:	aa1503e0 	mov	x0, x21
ffff0000000832e8:	97ffffef 	bl	ffff0000000832a4 <strlen>
ffff0000000832ec:	52800001 	mov	w1, #0x0                   	// #0
ffff0000000832f0:	14000005 	b	ffff000000083304 <strAppend+0x40>
ffff0000000832f4:	0b130022 	add	w2, w1, w19
ffff0000000832f8:	3861caa3 	ldrb	w3, [x21, w1, sxtw]
ffff0000000832fc:	3822ca83 	strb	w3, [x20, w2, sxtw]
ffff000000083300:	11000421 	add	w1, w1, #0x1
ffff000000083304:	6b00003f 	cmp	w1, w0
ffff000000083308:	54ffff6b 	b.lt	ffff0000000832f4 <strAppend+0x30>  // b.tstop
ffff00000008330c:	0b000273 	add	w19, w19, w0
ffff000000083310:	3833ca9f 	strb	wzr, [x20, w19, sxtw]
ffff000000083314:	a94153f3 	ldp	x19, x20, [sp, #16]
ffff000000083318:	f94013f5 	ldr	x21, [sp, #32]
ffff00000008331c:	a8c37bfd 	ldp	x29, x30, [sp], #48
ffff000000083320:	d65f03c0 	ret

ffff000000083324 <strcmp>:
ffff000000083324:	a9bd7bfd 	stp	x29, x30, [sp, #-48]!
ffff000000083328:	910003fd 	mov	x29, sp
ffff00000008332c:	a90153f3 	stp	x19, x20, [sp, #16]
ffff000000083330:	f90013f5 	str	x21, [sp, #32]
ffff000000083334:	aa0003f4 	mov	x20, x0
ffff000000083338:	aa0103f3 	mov	x19, x1
ffff00000008333c:	97ffffda 	bl	ffff0000000832a4 <strlen>
ffff000000083340:	2a0003f5 	mov	w21, w0
ffff000000083344:	aa1303e0 	mov	x0, x19
ffff000000083348:	97ffffd7 	bl	ffff0000000832a4 <strlen>
ffff00000008334c:	6b0002bf 	cmp	w21, w0
ffff000000083350:	540000c0 	b.eq	ffff000000083368 <strcmp+0x44>  // b.none
ffff000000083354:	52800000 	mov	w0, #0x0                   	// #0
ffff000000083358:	a94153f3 	ldp	x19, x20, [sp, #16]
ffff00000008335c:	f94013f5 	ldr	x21, [sp, #32]
ffff000000083360:	a8c37bfd 	ldp	x29, x30, [sp], #48
ffff000000083364:	d65f03c0 	ret
ffff000000083368:	52800000 	mov	w0, #0x0                   	// #0
ffff00000008336c:	6b15001f 	cmp	w0, w21
ffff000000083370:	5400012c 	b.gt	ffff000000083394 <strcmp+0x70>
ffff000000083374:	39400282 	ldrb	w2, [x20]
ffff000000083378:	39400261 	ldrb	w1, [x19]
ffff00000008337c:	6b01005f 	cmp	w2, w1
ffff000000083380:	540000e1 	b.ne	ffff00000008339c <strcmp+0x78>  // b.any
ffff000000083384:	91000694 	add	x20, x20, #0x1
ffff000000083388:	91000673 	add	x19, x19, #0x1
ffff00000008338c:	11000400 	add	w0, w0, #0x1
ffff000000083390:	17fffff7 	b	ffff00000008336c <strcmp+0x48>
ffff000000083394:	52800020 	mov	w0, #0x1                   	// #1
ffff000000083398:	17fffff0 	b	ffff000000083358 <strcmp+0x34>
ffff00000008339c:	52800000 	mov	w0, #0x0                   	// #0
ffff0000000833a0:	17ffffee 	b	ffff000000083358 <strcmp+0x34>

ffff0000000833a4 <strReverse>:
ffff0000000833a4:	52800002 	mov	w2, #0x0                   	// #0
ffff0000000833a8:	14000007 	b	ffff0000000833c4 <strReverse+0x20>
ffff0000000833ac:	3862c803 	ldrb	w3, [x0, w2, sxtw]
ffff0000000833b0:	3861c804 	ldrb	w4, [x0, w1, sxtw]
ffff0000000833b4:	3822c804 	strb	w4, [x0, w2, sxtw]
ffff0000000833b8:	3821c803 	strb	w3, [x0, w1, sxtw]
ffff0000000833bc:	11000442 	add	w2, w2, #0x1
ffff0000000833c0:	51000421 	sub	w1, w1, #0x1
ffff0000000833c4:	6b01005f 	cmp	w2, w1
ffff0000000833c8:	54ffff2b 	b.lt	ffff0000000833ac <strReverse+0x8>  // b.tstop
ffff0000000833cc:	d65f03c0 	ret

ffff0000000833d0 <ullToStr>:
ffff0000000833d0:	aa0103e5 	mov	x5, x1
ffff0000000833d4:	b40000a0 	cbz	x0, ffff0000000833e8 <ullToStr+0x18>
ffff0000000833d8:	a9bf7bfd 	stp	x29, x30, [sp, #-16]!
ffff0000000833dc:	910003fd 	mov	x29, sp
ffff0000000833e0:	52800001 	mov	w1, #0x0                   	// #0
ffff0000000833e4:	14000010 	b	ffff000000083424 <ullToStr+0x54>
ffff0000000833e8:	52800600 	mov	w0, #0x30                  	// #48
ffff0000000833ec:	39000020 	strb	w0, [x1]
ffff0000000833f0:	3900043f 	strb	wzr, [x1, #1]
ffff0000000833f4:	d65f03c0 	ret
ffff0000000833f8:	b202e7e3 	mov	x3, #0xcccccccccccccccc    	// #-3689348814741910324
ffff0000000833fc:	f29999a3 	movk	x3, #0xcccd
ffff000000083400:	9bc37c03 	umulh	x3, x0, x3
ffff000000083404:	d343fc62 	lsr	x2, x3, #3
ffff000000083408:	8b020842 	add	x2, x2, x2, lsl #2
ffff00000008340c:	d37ff844 	lsl	x4, x2, #1
ffff000000083410:	cb040002 	sub	x2, x0, x4
ffff000000083414:	1100c042 	add	w2, w2, #0x30
ffff000000083418:	3821c8a2 	strb	w2, [x5, w1, sxtw]
ffff00000008341c:	11000421 	add	w1, w1, #0x1
ffff000000083420:	d343fc60 	lsr	x0, x3, #3
ffff000000083424:	b5fffea0 	cbnz	x0, ffff0000000833f8 <ullToStr+0x28>
ffff000000083428:	3821c8bf 	strb	wzr, [x5, w1, sxtw]
ffff00000008342c:	51000421 	sub	w1, w1, #0x1
ffff000000083430:	aa0503e0 	mov	x0, x5
ffff000000083434:	97ffffdc 	bl	ffff0000000833a4 <strReverse>
ffff000000083438:	a8c17bfd 	ldp	x29, x30, [sp], #16
ffff00000008343c:	d65f03c0 	ret

ffff000000083440 <ullToStr_hex>:
ffff000000083440:	52800783 	mov	w3, #0x3c                  	// #60
ffff000000083444:	52800005 	mov	w5, #0x0                   	// #0
ffff000000083448:	14000006 	b	ffff000000083460 <ullToStr_hex+0x20>
ffff00000008344c:	52800604 	mov	w4, #0x30                  	// #48
ffff000000083450:	0b020082 	add	w2, w4, w2
ffff000000083454:	3825c822 	strb	w2, [x1, w5, sxtw]
ffff000000083458:	51001063 	sub	w3, w3, #0x4
ffff00000008345c:	110004a5 	add	w5, w5, #0x1
ffff000000083460:	37f800e3 	tbnz	w3, #31, ffff00000008347c <ullToStr_hex+0x3c>
ffff000000083464:	9ac32402 	lsr	x2, x0, x3
ffff000000083468:	12000c42 	and	w2, w2, #0xf
ffff00000008346c:	7100245f 	cmp	w2, #0x9
ffff000000083470:	54fffee9 	b.ls	ffff00000008344c <ullToStr_hex+0xc>  // b.plast
ffff000000083474:	528006e4 	mov	w4, #0x37                  	// #55
ffff000000083478:	17fffff6 	b	ffff000000083450 <ullToStr_hex+0x10>
ffff00000008347c:	3900403f 	strb	wzr, [x1, #16]
ffff000000083480:	d65f03c0 	ret

ffff000000083484 <cntTimeStamp>:
ffff000000083484:	a9b47bfd 	stp	x29, x30, [sp, #-192]!
ffff000000083488:	910003fd 	mov	x29, sp
ffff00000008348c:	a90153f3 	stp	x19, x20, [sp, #16]
ffff000000083490:	a9025bf5 	stp	x21, x22, [sp, #32]
ffff000000083494:	aa0203f4 	mov	x20, x2
ffff000000083498:	9ac00826 	udiv	x6, x1, x0
ffff00000008349c:	2a0003e5 	mov	w5, w0
ffff0000000834a0:	1b068401 	msub	w1, w0, w6, w1
ffff0000000834a4:	52800013 	mov	w19, #0x0                   	// #0
ffff0000000834a8:	52800143 	mov	w3, #0xa                   	// #10
ffff0000000834ac:	1400000a 	b	ffff0000000834d4 <cntTimeStamp+0x50>
ffff0000000834b0:	0b010821 	add	w1, w1, w1, lsl #2
ffff0000000834b4:	531f7822 	lsl	w2, w1, #1
ffff0000000834b8:	2a0203e1 	mov	w1, w2
ffff0000000834bc:	9ac00821 	udiv	x1, x1, x0
ffff0000000834c0:	0b130a73 	add	w19, w19, w19, lsl #2
ffff0000000834c4:	531f7a64 	lsl	w4, w19, #1
ffff0000000834c8:	0b010093 	add	w19, w4, w1
ffff0000000834cc:	1b0188a1 	msub	w1, w5, w1, w2
ffff0000000834d0:	51000463 	sub	w3, w3, #0x1
ffff0000000834d4:	7100003f 	cmp	w1, #0x0
ffff0000000834d8:	1a9f07e2 	cset	w2, ne  // ne = any
ffff0000000834dc:	7100007f 	cmp	w3, #0x0
ffff0000000834e0:	1a9f1042 	csel	w2, w2, wzr, ne  // ne = any
ffff0000000834e4:	35fffe62 	cbnz	w2, ffff0000000834b0 <cntTimeStamp+0x2c>
ffff0000000834e8:	9101e3b6 	add	x22, x29, #0x78
ffff0000000834ec:	aa1603e1 	mov	x1, x22
ffff0000000834f0:	aa0603e0 	mov	x0, x6
ffff0000000834f4:	97ffffb7 	bl	ffff0000000833d0 <ullToStr>
ffff0000000834f8:	9100c3b5 	add	x21, x29, #0x30
ffff0000000834fc:	aa1503e1 	mov	x1, x21
ffff000000083500:	93407e60 	sxtw	x0, w19
ffff000000083504:	97ffffb3 	bl	ffff0000000833d0 <ullToStr>
ffff000000083508:	aa1603e0 	mov	x0, x22
ffff00000008350c:	97ffff66 	bl	ffff0000000832a4 <strlen>
ffff000000083510:	2a0003f3 	mov	w19, w0
ffff000000083514:	aa1503e0 	mov	x0, x21
ffff000000083518:	97ffff63 	bl	ffff0000000832a4 <strlen>
ffff00000008351c:	52800001 	mov	w1, #0x0                   	// #0
ffff000000083520:	14000005 	b	ffff000000083534 <cntTimeStamp+0xb0>
ffff000000083524:	9101e3a2 	add	x2, x29, #0x78
ffff000000083528:	3861c842 	ldrb	w2, [x2, w1, sxtw]
ffff00000008352c:	3821ca82 	strb	w2, [x20, w1, sxtw]
ffff000000083530:	11000421 	add	w1, w1, #0x1
ffff000000083534:	6b13003f 	cmp	w1, w19
ffff000000083538:	54ffff6b 	b.lt	ffff000000083524 <cntTimeStamp+0xa0>  // b.tstop
ffff00000008353c:	528005c2 	mov	w2, #0x2e                  	// #46
ffff000000083540:	3821ca82 	strb	w2, [x20, w1, sxtw]
ffff000000083544:	11000421 	add	w1, w1, #0x1
ffff000000083548:	52800002 	mov	w2, #0x0                   	// #0
ffff00000008354c:	14000006 	b	ffff000000083564 <cntTimeStamp+0xe0>
ffff000000083550:	9100c3a3 	add	x3, x29, #0x30
ffff000000083554:	3862c863 	ldrb	w3, [x3, w2, sxtw]
ffff000000083558:	3821ca83 	strb	w3, [x20, w1, sxtw]
ffff00000008355c:	11000421 	add	w1, w1, #0x1
ffff000000083560:	11000442 	add	w2, w2, #0x1
ffff000000083564:	6b00005f 	cmp	w2, w0
ffff000000083568:	54ffff4b 	b.lt	ffff000000083550 <cntTimeStamp+0xcc>  // b.tstop
ffff00000008356c:	3821ca9f 	strb	wzr, [x20, w1, sxtw]
ffff000000083570:	a94153f3 	ldp	x19, x20, [sp, #16]
ffff000000083574:	a9425bf5 	ldp	x21, x22, [sp, #32]
ffff000000083578:	a8cc7bfd 	ldp	x29, x30, [sp], #192
ffff00000008357c:	d65f03c0 	ret

ffff000000083580 <arm_local_timer_init>:
ffff000000083580:	d2800680 	mov	x0, #0x34                  	// #52
ffff000000083584:	f2a80000 	movk	x0, #0x4000, lsl #16
ffff000000083588:	52a6a001 	mov	w1, #0x35000000            	// #889192448
ffff00000008358c:	b9000001 	str	w1, [x0]
ffff000000083590:	d65f03c0 	ret

ffff000000083594 <arm_local_timer_handler>:
ffff000000083594:	d2800700 	mov	x0, #0x38                  	// #56
ffff000000083598:	f2a80000 	movk	x0, #0x4000, lsl #16
ffff00000008359c:	52b80001 	mov	w1, #0xc0000000            	// #-1073741824
ffff0000000835a0:	b9000001 	str	w1, [x0]
ffff0000000835a4:	d65f03c0 	ret

ffff0000000835a8 <arm_local_timer_cancel>:
ffff0000000835a8:	d2800680 	mov	x0, #0x34                  	// #52
ffff0000000835ac:	f2a80000 	movk	x0, #0x4000, lsl #16
ffff0000000835b0:	b900001f 	str	wzr, [x0]
ffff0000000835b4:	d65f03c0 	ret

ffff0000000835b8 <core_timer_handler>:
ffff0000000835b8:	12bff400 	mov	w0, #0x5fffff              	// #6291455
ffff0000000835bc:	aa0003e0 	mov	x0, x0
ffff0000000835c0:	d51be200 	msr	cntp_tval_el0, x0
ffff0000000835c4:	d65f03c0 	ret

ffff0000000835c8 <core_timer_enable>:
ffff0000000835c8:	a9bf7bfd 	stp	x29, x30, [sp, #-16]!
ffff0000000835cc:	910003fd 	mov	x29, sp
ffff0000000835d0:	97fffffa 	bl	ffff0000000835b8 <core_timer_handler>
ffff0000000835d4:	d2800020 	mov	x0, #0x1                   	// #1
ffff0000000835d8:	d51be220 	msr	cntp_ctl_el0, x0
ffff0000000835dc:	d2800800 	mov	x0, #0x40                  	// #64
ffff0000000835e0:	f2a80000 	movk	x0, #0x4000, lsl #16
ffff0000000835e4:	52800041 	mov	w1, #0x2                   	// #2
ffff0000000835e8:	b9000001 	str	w1, [x0]
ffff0000000835ec:	a8c17bfd 	ldp	x29, x30, [sp], #16
ffff0000000835f0:	d65f03c0 	ret

ffff0000000835f4 <core_timer_cancel>:
ffff0000000835f4:	d2800800 	mov	x0, #0x40                  	// #64
ffff0000000835f8:	f2a80000 	movk	x0, #0x4000, lsl #16
ffff0000000835fc:	b900001f 	str	wzr, [x0]
ffff000000083600:	d65f03c0 	ret
