
kernel8.elf:     file format elf64-littleaarch64


Disassembly of section .text:

0000000000080000 <_start>:
   80000:	d53800a1 	mrs	x1, mpidr_el1
   80004:	92400421 	and	x1, x1, #0x3
   80008:	b4000061 	cbz	x1, 80014 <boot>

000000000008000c <busy_loop>:
   8000c:	d503205f 	wfe
   80010:	17ffffff 	b	8000c <busy_loop>

0000000000080014 <boot>:
   80014:	580003a1 	ldr	x1, 80088 <c_entry+0x10>
   80018:	9100003f 	mov	sp, x1
   8001c:	580003a2 	ldr	x2, 80090 <c_entry+0x18>
   80020:	d51cc002 	msr	vbar_el2, x2
   80024:	d53c1100 	mrs	x0, hcr_el2
   80028:	b27c0000 	orr	x0, x0, #0x10
   8002c:	d51c1100 	msr	hcr_el2, x0
   80030:	d2b00000 	mov	x0, #0x80000000            	// #2147483648
   80034:	d51c1100 	msr	hcr_el2, x0
   80038:	d28078a0 	mov	x0, #0x3c5                 	// #965
   8003c:	d51c4000 	msr	spsr_el2, x0
   80040:	100000e0 	adr	x0, 8005c <EL2_to_El1>
   80044:	d51c4020 	msr	elr_el2, x0
   80048:	10fffdc0 	adr	x0, 80000 <_start>
   8004c:	d51c4100 	msr	sp_el1, x0
   80050:	58000242 	ldr	x2, 80098 <c_entry+0x20>
   80054:	d518c002 	msr	vbar_el1, x2
   80058:	d69f03e0 	eret

000000000008005c <EL2_to_El1>:
   8005c:	9400074b 	bl	81d88 <enable_interrupt>
   80060:	58000201 	ldr	x1, 800a0 <c_entry+0x28>
   80064:	180000e2 	ldr	w2, 80080 <c_entry+0x8>

0000000000080068 <clear_bss>:
   80068:	34000082 	cbz	w2, 80078 <c_entry>
   8006c:	f800843f 	str	xzr, [x1], #8
   80070:	51000442 	sub	w2, w2, #0x1
   80074:	35ffffa2 	cbnz	w2, 80068 <clear_bss>

0000000000080078 <c_entry>:
   80078:	94000a14 	bl	828c8 <main>
   8007c:	17ffffe4 	b	8000c <busy_loop>
   80080:	00010872 	.word	0x00010872
   80084:	00000000 	.inst	0x00000000 ; undefined
   80088:	00080000 	.word	0x00080000
   8008c:	00000000 	.word	0x00000000
   80090:	00081800 	.word	0x00081800
   80094:	00000000 	.word	0x00000000
   80098:	00080800 	.word	0x00080800
   8009c:	00000000 	.word	0x00000000
   800a0:	00085080 	.word	0x00085080
	...

0000000000080800 <__vectors1>:
   80800:	14000161 	b	80d84 <sync_currentEL_spelx_EL1>
   80804:	d503201f 	nop
   80808:	d503201f 	nop
   8080c:	d503201f 	nop
   80810:	d503201f 	nop
   80814:	d503201f 	nop
   80818:	d503201f 	nop
   8081c:	d503201f 	nop
   80820:	d503201f 	nop
   80824:	d503201f 	nop
   80828:	d503201f 	nop
   8082c:	d503201f 	nop
   80830:	d503201f 	nop
   80834:	d503201f 	nop
   80838:	d503201f 	nop
   8083c:	d503201f 	nop
   80840:	d503201f 	nop
   80844:	d503201f 	nop
   80848:	d503201f 	nop
   8084c:	d503201f 	nop
   80850:	d503201f 	nop
   80854:	d503201f 	nop
   80858:	d503201f 	nop
   8085c:	d503201f 	nop
   80860:	d503201f 	nop
   80864:	d503201f 	nop
   80868:	d503201f 	nop
   8086c:	d503201f 	nop
   80870:	d503201f 	nop
   80874:	d503201f 	nop
   80878:	d503201f 	nop
   8087c:	d503201f 	nop
   80880:	14000141 	b	80d84 <sync_currentEL_spelx_EL1>
   80884:	d503201f 	nop
   80888:	d503201f 	nop
   8088c:	d503201f 	nop
   80890:	d503201f 	nop
   80894:	d503201f 	nop
   80898:	d503201f 	nop
   8089c:	d503201f 	nop
   808a0:	d503201f 	nop
   808a4:	d503201f 	nop
   808a8:	d503201f 	nop
   808ac:	d503201f 	nop
   808b0:	d503201f 	nop
   808b4:	d503201f 	nop
   808b8:	d503201f 	nop
   808bc:	d503201f 	nop
   808c0:	d503201f 	nop
   808c4:	d503201f 	nop
   808c8:	d503201f 	nop
   808cc:	d503201f 	nop
   808d0:	d503201f 	nop
   808d4:	d503201f 	nop
   808d8:	d503201f 	nop
   808dc:	d503201f 	nop
   808e0:	d503201f 	nop
   808e4:	d503201f 	nop
   808e8:	d503201f 	nop
   808ec:	d503201f 	nop
   808f0:	d503201f 	nop
   808f4:	d503201f 	nop
   808f8:	d503201f 	nop
   808fc:	d503201f 	nop
   80900:	14000121 	b	80d84 <sync_currentEL_spelx_EL1>
   80904:	d503201f 	nop
   80908:	d503201f 	nop
   8090c:	d503201f 	nop
   80910:	d503201f 	nop
   80914:	d503201f 	nop
   80918:	d503201f 	nop
   8091c:	d503201f 	nop
   80920:	d503201f 	nop
   80924:	d503201f 	nop
   80928:	d503201f 	nop
   8092c:	d503201f 	nop
   80930:	d503201f 	nop
   80934:	d503201f 	nop
   80938:	d503201f 	nop
   8093c:	d503201f 	nop
   80940:	d503201f 	nop
   80944:	d503201f 	nop
   80948:	d503201f 	nop
   8094c:	d503201f 	nop
   80950:	d503201f 	nop
   80954:	d503201f 	nop
   80958:	d503201f 	nop
   8095c:	d503201f 	nop
   80960:	d503201f 	nop
   80964:	d503201f 	nop
   80968:	d503201f 	nop
   8096c:	d503201f 	nop
   80970:	d503201f 	nop
   80974:	d503201f 	nop
   80978:	d503201f 	nop
   8097c:	d503201f 	nop
   80980:	14000101 	b	80d84 <sync_currentEL_spelx_EL1>
   80984:	d503201f 	nop
   80988:	d503201f 	nop
   8098c:	d503201f 	nop
   80990:	d503201f 	nop
   80994:	d503201f 	nop
   80998:	d503201f 	nop
   8099c:	d503201f 	nop
   809a0:	d503201f 	nop
   809a4:	d503201f 	nop
   809a8:	d503201f 	nop
   809ac:	d503201f 	nop
   809b0:	d503201f 	nop
   809b4:	d503201f 	nop
   809b8:	d503201f 	nop
   809bc:	d503201f 	nop
   809c0:	d503201f 	nop
   809c4:	d503201f 	nop
   809c8:	d503201f 	nop
   809cc:	d503201f 	nop
   809d0:	d503201f 	nop
   809d4:	d503201f 	nop
   809d8:	d503201f 	nop
   809dc:	d503201f 	nop
   809e0:	d503201f 	nop
   809e4:	d503201f 	nop
   809e8:	d503201f 	nop
   809ec:	d503201f 	nop
   809f0:	d503201f 	nop
   809f4:	d503201f 	nop
   809f8:	d503201f 	nop
   809fc:	d503201f 	nop
   80a00:	140000e1 	b	80d84 <sync_currentEL_spelx_EL1>
   80a04:	d503201f 	nop
   80a08:	d503201f 	nop
   80a0c:	d503201f 	nop
   80a10:	d503201f 	nop
   80a14:	d503201f 	nop
   80a18:	d503201f 	nop
   80a1c:	d503201f 	nop
   80a20:	d503201f 	nop
   80a24:	d503201f 	nop
   80a28:	d503201f 	nop
   80a2c:	d503201f 	nop
   80a30:	d503201f 	nop
   80a34:	d503201f 	nop
   80a38:	d503201f 	nop
   80a3c:	d503201f 	nop
   80a40:	d503201f 	nop
   80a44:	d503201f 	nop
   80a48:	d503201f 	nop
   80a4c:	d503201f 	nop
   80a50:	d503201f 	nop
   80a54:	d503201f 	nop
   80a58:	d503201f 	nop
   80a5c:	d503201f 	nop
   80a60:	d503201f 	nop
   80a64:	d503201f 	nop
   80a68:	d503201f 	nop
   80a6c:	d503201f 	nop
   80a70:	d503201f 	nop
   80a74:	d503201f 	nop
   80a78:	d503201f 	nop
   80a7c:	d503201f 	nop
   80a80:	140000ec 	b	80e30 <irq_currentEL_spelx_EL1>
   80a84:	d503201f 	nop
   80a88:	d503201f 	nop
   80a8c:	d503201f 	nop
   80a90:	d503201f 	nop
   80a94:	d503201f 	nop
   80a98:	d503201f 	nop
   80a9c:	d503201f 	nop
   80aa0:	d503201f 	nop
   80aa4:	d503201f 	nop
   80aa8:	d503201f 	nop
   80aac:	d503201f 	nop
   80ab0:	d503201f 	nop
   80ab4:	d503201f 	nop
   80ab8:	d503201f 	nop
   80abc:	d503201f 	nop
   80ac0:	d503201f 	nop
   80ac4:	d503201f 	nop
   80ac8:	d503201f 	nop
   80acc:	d503201f 	nop
   80ad0:	d503201f 	nop
   80ad4:	d503201f 	nop
   80ad8:	d503201f 	nop
   80adc:	d503201f 	nop
   80ae0:	d503201f 	nop
   80ae4:	d503201f 	nop
   80ae8:	d503201f 	nop
   80aec:	d503201f 	nop
   80af0:	d503201f 	nop
   80af4:	d503201f 	nop
   80af8:	d503201f 	nop
   80afc:	d503201f 	nop
   80b00:	140000a1 	b	80d84 <sync_currentEL_spelx_EL1>
   80b04:	d503201f 	nop
   80b08:	d503201f 	nop
   80b0c:	d503201f 	nop
   80b10:	d503201f 	nop
   80b14:	d503201f 	nop
   80b18:	d503201f 	nop
   80b1c:	d503201f 	nop
   80b20:	d503201f 	nop
   80b24:	d503201f 	nop
   80b28:	d503201f 	nop
   80b2c:	d503201f 	nop
   80b30:	d503201f 	nop
   80b34:	d503201f 	nop
   80b38:	d503201f 	nop
   80b3c:	d503201f 	nop
   80b40:	d503201f 	nop
   80b44:	d503201f 	nop
   80b48:	d503201f 	nop
   80b4c:	d503201f 	nop
   80b50:	d503201f 	nop
   80b54:	d503201f 	nop
   80b58:	d503201f 	nop
   80b5c:	d503201f 	nop
   80b60:	d503201f 	nop
   80b64:	d503201f 	nop
   80b68:	d503201f 	nop
   80b6c:	d503201f 	nop
   80b70:	d503201f 	nop
   80b74:	d503201f 	nop
   80b78:	d503201f 	nop
   80b7c:	d503201f 	nop
   80b80:	140000d7 	b	80edc <sError_currentEL_spelx_EL1>
   80b84:	d503201f 	nop
   80b88:	d503201f 	nop
   80b8c:	d503201f 	nop
   80b90:	d503201f 	nop
   80b94:	d503201f 	nop
   80b98:	d503201f 	nop
   80b9c:	d503201f 	nop
   80ba0:	d503201f 	nop
   80ba4:	d503201f 	nop
   80ba8:	d503201f 	nop
   80bac:	d503201f 	nop
   80bb0:	d503201f 	nop
   80bb4:	d503201f 	nop
   80bb8:	d503201f 	nop
   80bbc:	d503201f 	nop
   80bc0:	d503201f 	nop
   80bc4:	d503201f 	nop
   80bc8:	d503201f 	nop
   80bcc:	d503201f 	nop
   80bd0:	d503201f 	nop
   80bd4:	d503201f 	nop
   80bd8:	d503201f 	nop
   80bdc:	d503201f 	nop
   80be0:	d503201f 	nop
   80be4:	d503201f 	nop
   80be8:	d503201f 	nop
   80bec:	d503201f 	nop
   80bf0:	d503201f 	nop
   80bf4:	d503201f 	nop
   80bf8:	d503201f 	nop
   80bfc:	d503201f 	nop
   80c00:	140000e2 	b	80f88 <sync_arch64_EL0>
   80c04:	d503201f 	nop
   80c08:	d503201f 	nop
   80c0c:	d503201f 	nop
   80c10:	d503201f 	nop
   80c14:	d503201f 	nop
   80c18:	d503201f 	nop
   80c1c:	d503201f 	nop
   80c20:	d503201f 	nop
   80c24:	d503201f 	nop
   80c28:	d503201f 	nop
   80c2c:	d503201f 	nop
   80c30:	d503201f 	nop
   80c34:	d503201f 	nop
   80c38:	d503201f 	nop
   80c3c:	d503201f 	nop
   80c40:	d503201f 	nop
   80c44:	d503201f 	nop
   80c48:	d503201f 	nop
   80c4c:	d503201f 	nop
   80c50:	d503201f 	nop
   80c54:	d503201f 	nop
   80c58:	d503201f 	nop
   80c5c:	d503201f 	nop
   80c60:	d503201f 	nop
   80c64:	d503201f 	nop
   80c68:	d503201f 	nop
   80c6c:	d503201f 	nop
   80c70:	d503201f 	nop
   80c74:	d503201f 	nop
   80c78:	d503201f 	nop
   80c7c:	d503201f 	nop
   80c80:	1400006c 	b	80e30 <irq_currentEL_spelx_EL1>
   80c84:	d503201f 	nop
   80c88:	d503201f 	nop
   80c8c:	d503201f 	nop
   80c90:	d503201f 	nop
   80c94:	d503201f 	nop
   80c98:	d503201f 	nop
   80c9c:	d503201f 	nop
   80ca0:	d503201f 	nop
   80ca4:	d503201f 	nop
   80ca8:	d503201f 	nop
   80cac:	d503201f 	nop
   80cb0:	d503201f 	nop
   80cb4:	d503201f 	nop
   80cb8:	d503201f 	nop
   80cbc:	d503201f 	nop
   80cc0:	d503201f 	nop
   80cc4:	d503201f 	nop
   80cc8:	d503201f 	nop
   80ccc:	d503201f 	nop
   80cd0:	d503201f 	nop
   80cd4:	d503201f 	nop
   80cd8:	d503201f 	nop
   80cdc:	d503201f 	nop
   80ce0:	d503201f 	nop
   80ce4:	d503201f 	nop
   80ce8:	d503201f 	nop
   80cec:	d503201f 	nop
   80cf0:	d503201f 	nop
   80cf4:	d503201f 	nop
   80cf8:	d503201f 	nop
   80cfc:	d503201f 	nop
   80d00:	140000a2 	b	80f88 <sync_arch64_EL0>
   80d04:	d503201f 	nop
   80d08:	d503201f 	nop
   80d0c:	d503201f 	nop
   80d10:	d503201f 	nop
   80d14:	d503201f 	nop
   80d18:	d503201f 	nop
   80d1c:	d503201f 	nop
   80d20:	d503201f 	nop
   80d24:	d503201f 	nop
   80d28:	d503201f 	nop
   80d2c:	d503201f 	nop
   80d30:	d503201f 	nop
   80d34:	d503201f 	nop
   80d38:	d503201f 	nop
   80d3c:	d503201f 	nop
   80d40:	d503201f 	nop
   80d44:	d503201f 	nop
   80d48:	d503201f 	nop
   80d4c:	d503201f 	nop
   80d50:	d503201f 	nop
   80d54:	d503201f 	nop
   80d58:	d503201f 	nop
   80d5c:	d503201f 	nop
   80d60:	d503201f 	nop
   80d64:	d503201f 	nop
   80d68:	d503201f 	nop
   80d6c:	d503201f 	nop
   80d70:	d503201f 	nop
   80d74:	d503201f 	nop
   80d78:	d503201f 	nop
   80d7c:	d503201f 	nop
   80d80:	14000082 	b	80f88 <sync_arch64_EL0>

0000000000080d84 <sync_currentEL_spelx_EL1>:
   80d84:	a94007e0 	ldp	x0, x1, [sp]
   80d88:	d538d080 	mrs	x0, tpidr_el1
   80d8c:	91018000 	add	x0, x0, #0x60
   80d90:	f9400000 	ldr	x0, [x0]
   80d94:	910003e1 	mov	x1, sp
   80d98:	9100001f 	mov	sp, x0
   80d9c:	a9000420 	stp	x0, x1, [x1]
   80da0:	d10403ff 	sub	sp, sp, #0x100
   80da4:	a90007e0 	stp	x0, x1, [sp]
   80da8:	a9010fe2 	stp	x2, x3, [sp, #16]
   80dac:	a90217e4 	stp	x4, x5, [sp, #32]
   80db0:	a9031fe6 	stp	x6, x7, [sp, #48]
   80db4:	a90427e8 	stp	x8, x9, [sp, #64]
   80db8:	a9052fea 	stp	x10, x11, [sp, #80]
   80dbc:	a90637ec 	stp	x12, x13, [sp, #96]
   80dc0:	a9073fee 	stp	x14, x15, [sp, #112]
   80dc4:	a90847f0 	stp	x16, x17, [sp, #128]
   80dc8:	a9094ff2 	stp	x18, x19, [sp, #144]
   80dcc:	a90a57f4 	stp	x20, x21, [sp, #160]
   80dd0:	a90b5ff6 	stp	x22, x23, [sp, #176]
   80dd4:	a90c67f8 	stp	x24, x25, [sp, #192]
   80dd8:	a90d6ffa 	stp	x26, x27, [sp, #208]
   80ddc:	a90e77fc 	stp	x28, x29, [sp, #224]
   80de0:	f9007bfe 	str	x30, [sp, #240]
   80de4:	94000a31 	bl	836a8 <sync_exc1_handler>
   80de8:	a94007e0 	ldp	x0, x1, [sp]
   80dec:	a9410fe2 	ldp	x2, x3, [sp, #16]
   80df0:	a94217e4 	ldp	x4, x5, [sp, #32]
   80df4:	a9431fe6 	ldp	x6, x7, [sp, #48]
   80df8:	a94427e8 	ldp	x8, x9, [sp, #64]
   80dfc:	a9452fea 	ldp	x10, x11, [sp, #80]
   80e00:	a94637ec 	ldp	x12, x13, [sp, #96]
   80e04:	a9473fee 	ldp	x14, x15, [sp, #112]
   80e08:	a94847f0 	ldp	x16, x17, [sp, #128]
   80e0c:	a9494ff2 	ldp	x18, x19, [sp, #144]
   80e10:	a94a57f4 	ldp	x20, x21, [sp, #160]
   80e14:	a94b5ff6 	ldp	x22, x23, [sp, #176]
   80e18:	a94c67f8 	ldp	x24, x25, [sp, #192]
   80e1c:	a94d6ffa 	ldp	x26, x27, [sp, #208]
   80e20:	a94e77fc 	ldp	x28, x29, [sp, #224]
   80e24:	f9407bfe 	ldr	x30, [sp, #240]
   80e28:	910403ff 	add	sp, sp, #0x100
   80e2c:	d69f03e0 	eret

0000000000080e30 <irq_currentEL_spelx_EL1>:
   80e30:	a94007e0 	ldp	x0, x1, [sp]
   80e34:	d538d080 	mrs	x0, tpidr_el1
   80e38:	91018000 	add	x0, x0, #0x60
   80e3c:	f9400000 	ldr	x0, [x0]
   80e40:	910003e1 	mov	x1, sp
   80e44:	9100001f 	mov	sp, x0
   80e48:	a9000420 	stp	x0, x1, [x1]
   80e4c:	d10403ff 	sub	sp, sp, #0x100
   80e50:	a90007e0 	stp	x0, x1, [sp]
   80e54:	a9010fe2 	stp	x2, x3, [sp, #16]
   80e58:	a90217e4 	stp	x4, x5, [sp, #32]
   80e5c:	a9031fe6 	stp	x6, x7, [sp, #48]
   80e60:	a90427e8 	stp	x8, x9, [sp, #64]
   80e64:	a9052fea 	stp	x10, x11, [sp, #80]
   80e68:	a90637ec 	stp	x12, x13, [sp, #96]
   80e6c:	a9073fee 	stp	x14, x15, [sp, #112]
   80e70:	a90847f0 	stp	x16, x17, [sp, #128]
   80e74:	a9094ff2 	stp	x18, x19, [sp, #144]
   80e78:	a90a57f4 	stp	x20, x21, [sp, #160]
   80e7c:	a90b5ff6 	stp	x22, x23, [sp, #176]
   80e80:	a90c67f8 	stp	x24, x25, [sp, #192]
   80e84:	a90d6ffa 	stp	x26, x27, [sp, #208]
   80e88:	a90e77fc 	stp	x28, x29, [sp, #224]
   80e8c:	f9007bfe 	str	x30, [sp, #240]
   80e90:	94000a1e 	bl	83708 <irq_exc_handler>
   80e94:	a94007e0 	ldp	x0, x1, [sp]
   80e98:	a9410fe2 	ldp	x2, x3, [sp, #16]
   80e9c:	a94217e4 	ldp	x4, x5, [sp, #32]
   80ea0:	a9431fe6 	ldp	x6, x7, [sp, #48]
   80ea4:	a94427e8 	ldp	x8, x9, [sp, #64]
   80ea8:	a9452fea 	ldp	x10, x11, [sp, #80]
   80eac:	a94637ec 	ldp	x12, x13, [sp, #96]
   80eb0:	a9473fee 	ldp	x14, x15, [sp, #112]
   80eb4:	a94847f0 	ldp	x16, x17, [sp, #128]
   80eb8:	a9494ff2 	ldp	x18, x19, [sp, #144]
   80ebc:	a94a57f4 	ldp	x20, x21, [sp, #160]
   80ec0:	a94b5ff6 	ldp	x22, x23, [sp, #176]
   80ec4:	a94c67f8 	ldp	x24, x25, [sp, #192]
   80ec8:	a94d6ffa 	ldp	x26, x27, [sp, #208]
   80ecc:	a94e77fc 	ldp	x28, x29, [sp, #224]
   80ed0:	f9407bfe 	ldr	x30, [sp, #240]
   80ed4:	910403ff 	add	sp, sp, #0x100
   80ed8:	d69f03e0 	eret

0000000000080edc <sError_currentEL_spelx_EL1>:
   80edc:	a94007e0 	ldp	x0, x1, [sp]
   80ee0:	d538d080 	mrs	x0, tpidr_el1
   80ee4:	91018000 	add	x0, x0, #0x60
   80ee8:	f9400000 	ldr	x0, [x0]
   80eec:	910003e1 	mov	x1, sp
   80ef0:	9100001f 	mov	sp, x0
   80ef4:	a9000420 	stp	x0, x1, [x1]
   80ef8:	d10403ff 	sub	sp, sp, #0x100
   80efc:	a90007e0 	stp	x0, x1, [sp]
   80f00:	a9010fe2 	stp	x2, x3, [sp, #16]
   80f04:	a90217e4 	stp	x4, x5, [sp, #32]
   80f08:	a9031fe6 	stp	x6, x7, [sp, #48]
   80f0c:	a90427e8 	stp	x8, x9, [sp, #64]
   80f10:	a9052fea 	stp	x10, x11, [sp, #80]
   80f14:	a90637ec 	stp	x12, x13, [sp, #96]
   80f18:	a9073fee 	stp	x14, x15, [sp, #112]
   80f1c:	a90847f0 	stp	x16, x17, [sp, #128]
   80f20:	a9094ff2 	stp	x18, x19, [sp, #144]
   80f24:	a90a57f4 	stp	x20, x21, [sp, #160]
   80f28:	a90b5ff6 	stp	x22, x23, [sp, #176]
   80f2c:	a90c67f8 	stp	x24, x25, [sp, #192]
   80f30:	a90d6ffa 	stp	x26, x27, [sp, #208]
   80f34:	a90e77fc 	stp	x28, x29, [sp, #224]
   80f38:	f9007bfe 	str	x30, [sp, #240]
   80f3c:	94000a03 	bl	83748 <SError_handler>
   80f40:	a94007e0 	ldp	x0, x1, [sp]
   80f44:	a9410fe2 	ldp	x2, x3, [sp, #16]
   80f48:	a94217e4 	ldp	x4, x5, [sp, #32]
   80f4c:	a9431fe6 	ldp	x6, x7, [sp, #48]
   80f50:	a94427e8 	ldp	x8, x9, [sp, #64]
   80f54:	a9452fea 	ldp	x10, x11, [sp, #80]
   80f58:	a94637ec 	ldp	x12, x13, [sp, #96]
   80f5c:	a9473fee 	ldp	x14, x15, [sp, #112]
   80f60:	a94847f0 	ldp	x16, x17, [sp, #128]
   80f64:	a9494ff2 	ldp	x18, x19, [sp, #144]
   80f68:	a94a57f4 	ldp	x20, x21, [sp, #160]
   80f6c:	a94b5ff6 	ldp	x22, x23, [sp, #176]
   80f70:	a94c67f8 	ldp	x24, x25, [sp, #192]
   80f74:	a94d6ffa 	ldp	x26, x27, [sp, #208]
   80f78:	a94e77fc 	ldp	x28, x29, [sp, #224]
   80f7c:	f9407bfe 	ldr	x30, [sp, #240]
   80f80:	910403ff 	add	sp, sp, #0x100
   80f84:	d69f03e0 	eret

0000000000080f88 <sync_arch64_EL0>:
   80f88:	a94007e0 	ldp	x0, x1, [sp]
   80f8c:	d538d080 	mrs	x0, tpidr_el1
   80f90:	91018000 	add	x0, x0, #0x60
   80f94:	f9400000 	ldr	x0, [x0]
   80f98:	910003e1 	mov	x1, sp
   80f9c:	9100001f 	mov	sp, x0
   80fa0:	a9000420 	stp	x0, x1, [x1]
   80fa4:	d10403ff 	sub	sp, sp, #0x100
   80fa8:	a90007e0 	stp	x0, x1, [sp]
   80fac:	a9010fe2 	stp	x2, x3, [sp, #16]
   80fb0:	a90217e4 	stp	x4, x5, [sp, #32]
   80fb4:	a9031fe6 	stp	x6, x7, [sp, #48]
   80fb8:	a90427e8 	stp	x8, x9, [sp, #64]
   80fbc:	a9052fea 	stp	x10, x11, [sp, #80]
   80fc0:	a90637ec 	stp	x12, x13, [sp, #96]
   80fc4:	a9073fee 	stp	x14, x15, [sp, #112]
   80fc8:	a90847f0 	stp	x16, x17, [sp, #128]
   80fcc:	a9094ff2 	stp	x18, x19, [sp, #144]
   80fd0:	a90a57f4 	stp	x20, x21, [sp, #160]
   80fd4:	a90b5ff6 	stp	x22, x23, [sp, #176]
   80fd8:	a90c67f8 	stp	x24, x25, [sp, #192]
   80fdc:	a90d6ffa 	stp	x26, x27, [sp, #208]
   80fe0:	a90e77fc 	stp	x28, x29, [sp, #224]
   80fe4:	f9007bfe 	str	x30, [sp, #240]
   80fe8:	94000998 	bl	83648 <sync_exc0_handler>
   80fec:	a94007e0 	ldp	x0, x1, [sp]
   80ff0:	a9410fe2 	ldp	x2, x3, [sp, #16]
   80ff4:	a94217e4 	ldp	x4, x5, [sp, #32]
   80ff8:	a9431fe6 	ldp	x6, x7, [sp, #48]
   80ffc:	a94427e8 	ldp	x8, x9, [sp, #64]
   81000:	a9452fea 	ldp	x10, x11, [sp, #80]
   81004:	a94637ec 	ldp	x12, x13, [sp, #96]
   81008:	a9473fee 	ldp	x14, x15, [sp, #112]
   8100c:	a94847f0 	ldp	x16, x17, [sp, #128]
   81010:	a9494ff2 	ldp	x18, x19, [sp, #144]
   81014:	a94a57f4 	ldp	x20, x21, [sp, #160]
   81018:	a94b5ff6 	ldp	x22, x23, [sp, #176]
   8101c:	a94c67f8 	ldp	x24, x25, [sp, #192]
   81020:	a94d6ffa 	ldp	x26, x27, [sp, #208]
   81024:	a94e77fc 	ldp	x28, x29, [sp, #224]
   81028:	f9407bfe 	ldr	x30, [sp, #240]
   8102c:	910403ff 	add	sp, sp, #0x100
   81030:	d69f03e0 	eret
   81034:	d503201f 	nop
   81038:	d503201f 	nop
   8103c:	d503201f 	nop
   81040:	d503201f 	nop
   81044:	d503201f 	nop
   81048:	d503201f 	nop
   8104c:	d503201f 	nop
   81050:	d503201f 	nop
   81054:	d503201f 	nop
   81058:	d503201f 	nop
   8105c:	d503201f 	nop
   81060:	d503201f 	nop
   81064:	d503201f 	nop
   81068:	d503201f 	nop
   8106c:	d503201f 	nop
   81070:	d503201f 	nop
   81074:	d503201f 	nop
   81078:	d503201f 	nop
   8107c:	d503201f 	nop
   81080:	d503201f 	nop
   81084:	d503201f 	nop
   81088:	d503201f 	nop
   8108c:	d503201f 	nop
   81090:	d503201f 	nop
   81094:	d503201f 	nop
   81098:	d503201f 	nop
   8109c:	d503201f 	nop
   810a0:	d503201f 	nop
   810a4:	d503201f 	nop
   810a8:	d503201f 	nop
   810ac:	d503201f 	nop
   810b0:	d503201f 	nop
   810b4:	d503201f 	nop
   810b8:	d503201f 	nop
   810bc:	d503201f 	nop
   810c0:	d503201f 	nop
   810c4:	d503201f 	nop
   810c8:	d503201f 	nop
   810cc:	d503201f 	nop
   810d0:	d503201f 	nop
   810d4:	d503201f 	nop
   810d8:	d503201f 	nop
   810dc:	d503201f 	nop
   810e0:	d503201f 	nop
   810e4:	d503201f 	nop
   810e8:	d503201f 	nop
   810ec:	d503201f 	nop
   810f0:	d503201f 	nop
   810f4:	d503201f 	nop
   810f8:	d503201f 	nop
   810fc:	d503201f 	nop
   81100:	d503201f 	nop
   81104:	d503201f 	nop
   81108:	d503201f 	nop
   8110c:	d503201f 	nop
   81110:	d503201f 	nop
   81114:	d503201f 	nop
   81118:	d503201f 	nop
   8111c:	d503201f 	nop
   81120:	d503201f 	nop
   81124:	d503201f 	nop
   81128:	d503201f 	nop
   8112c:	d503201f 	nop
   81130:	d503201f 	nop
   81134:	d503201f 	nop
   81138:	d503201f 	nop
   8113c:	d503201f 	nop
   81140:	d503201f 	nop
   81144:	d503201f 	nop
   81148:	d503201f 	nop
   8114c:	d503201f 	nop
   81150:	d503201f 	nop
   81154:	d503201f 	nop
   81158:	d503201f 	nop
   8115c:	d503201f 	nop
   81160:	d503201f 	nop
   81164:	d503201f 	nop
   81168:	d503201f 	nop
   8116c:	d503201f 	nop
   81170:	d503201f 	nop
   81174:	d503201f 	nop
   81178:	d503201f 	nop
   8117c:	d503201f 	nop
   81180:	d503201f 	nop
   81184:	d503201f 	nop
   81188:	d503201f 	nop
   8118c:	d503201f 	nop
   81190:	d503201f 	nop
   81194:	d503201f 	nop
   81198:	d503201f 	nop
   8119c:	d503201f 	nop
   811a0:	d503201f 	nop
   811a4:	d503201f 	nop
   811a8:	d503201f 	nop
   811ac:	d503201f 	nop
   811b0:	d503201f 	nop
   811b4:	d503201f 	nop
   811b8:	d503201f 	nop
   811bc:	d503201f 	nop
   811c0:	d503201f 	nop
   811c4:	d503201f 	nop
   811c8:	d503201f 	nop
   811cc:	d503201f 	nop
   811d0:	d503201f 	nop
   811d4:	d503201f 	nop
   811d8:	d503201f 	nop
   811dc:	d503201f 	nop
   811e0:	d503201f 	nop
   811e4:	d503201f 	nop
   811e8:	d503201f 	nop
   811ec:	d503201f 	nop
   811f0:	d503201f 	nop
   811f4:	d503201f 	nop
   811f8:	d503201f 	nop
   811fc:	d503201f 	nop
   81200:	d503201f 	nop
   81204:	d503201f 	nop
   81208:	d503201f 	nop
   8120c:	d503201f 	nop
   81210:	d503201f 	nop
   81214:	d503201f 	nop
   81218:	d503201f 	nop
   8121c:	d503201f 	nop
   81220:	d503201f 	nop
   81224:	d503201f 	nop
   81228:	d503201f 	nop
   8122c:	d503201f 	nop
   81230:	d503201f 	nop
   81234:	d503201f 	nop
   81238:	d503201f 	nop
   8123c:	d503201f 	nop
   81240:	d503201f 	nop
   81244:	d503201f 	nop
   81248:	d503201f 	nop
   8124c:	d503201f 	nop
   81250:	d503201f 	nop
   81254:	d503201f 	nop
   81258:	d503201f 	nop
   8125c:	d503201f 	nop
   81260:	d503201f 	nop
   81264:	d503201f 	nop
   81268:	d503201f 	nop
   8126c:	d503201f 	nop
   81270:	d503201f 	nop
   81274:	d503201f 	nop
   81278:	d503201f 	nop
   8127c:	d503201f 	nop
   81280:	d503201f 	nop
   81284:	d503201f 	nop
   81288:	d503201f 	nop
   8128c:	d503201f 	nop
   81290:	d503201f 	nop
   81294:	d503201f 	nop
   81298:	d503201f 	nop
   8129c:	d503201f 	nop
   812a0:	d503201f 	nop
   812a4:	d503201f 	nop
   812a8:	d503201f 	nop
   812ac:	d503201f 	nop
   812b0:	d503201f 	nop
   812b4:	d503201f 	nop
   812b8:	d503201f 	nop
   812bc:	d503201f 	nop
   812c0:	d503201f 	nop
   812c4:	d503201f 	nop
   812c8:	d503201f 	nop
   812cc:	d503201f 	nop
   812d0:	d503201f 	nop
   812d4:	d503201f 	nop
   812d8:	d503201f 	nop
   812dc:	d503201f 	nop
   812e0:	d503201f 	nop
   812e4:	d503201f 	nop
   812e8:	d503201f 	nop
   812ec:	d503201f 	nop
   812f0:	d503201f 	nop
   812f4:	d503201f 	nop
   812f8:	d503201f 	nop
   812fc:	d503201f 	nop
   81300:	d503201f 	nop
   81304:	d503201f 	nop
   81308:	d503201f 	nop
   8130c:	d503201f 	nop
   81310:	d503201f 	nop
   81314:	d503201f 	nop
   81318:	d503201f 	nop
   8131c:	d503201f 	nop
   81320:	d503201f 	nop
   81324:	d503201f 	nop
   81328:	d503201f 	nop
   8132c:	d503201f 	nop
   81330:	d503201f 	nop
   81334:	d503201f 	nop
   81338:	d503201f 	nop
   8133c:	d503201f 	nop
   81340:	d503201f 	nop
   81344:	d503201f 	nop
   81348:	d503201f 	nop
   8134c:	d503201f 	nop
   81350:	d503201f 	nop
   81354:	d503201f 	nop
   81358:	d503201f 	nop
   8135c:	d503201f 	nop
   81360:	d503201f 	nop
   81364:	d503201f 	nop
   81368:	d503201f 	nop
   8136c:	d503201f 	nop
   81370:	d503201f 	nop
   81374:	d503201f 	nop
   81378:	d503201f 	nop
   8137c:	d503201f 	nop
   81380:	d503201f 	nop
   81384:	d503201f 	nop
   81388:	d503201f 	nop
   8138c:	d503201f 	nop
   81390:	d503201f 	nop
   81394:	d503201f 	nop
   81398:	d503201f 	nop
   8139c:	d503201f 	nop
   813a0:	d503201f 	nop
   813a4:	d503201f 	nop
   813a8:	d503201f 	nop
   813ac:	d503201f 	nop
   813b0:	d503201f 	nop
   813b4:	d503201f 	nop
   813b8:	d503201f 	nop
   813bc:	d503201f 	nop
   813c0:	d503201f 	nop
   813c4:	d503201f 	nop
   813c8:	d503201f 	nop
   813cc:	d503201f 	nop
   813d0:	d503201f 	nop
   813d4:	d503201f 	nop
   813d8:	d503201f 	nop
   813dc:	d503201f 	nop
   813e0:	d503201f 	nop
   813e4:	d503201f 	nop
   813e8:	d503201f 	nop
   813ec:	d503201f 	nop
   813f0:	d503201f 	nop
   813f4:	d503201f 	nop
   813f8:	d503201f 	nop
   813fc:	d503201f 	nop
   81400:	d503201f 	nop
   81404:	d503201f 	nop
   81408:	d503201f 	nop
   8140c:	d503201f 	nop
   81410:	d503201f 	nop
   81414:	d503201f 	nop
   81418:	d503201f 	nop
   8141c:	d503201f 	nop
   81420:	d503201f 	nop
   81424:	d503201f 	nop
   81428:	d503201f 	nop
   8142c:	d503201f 	nop
   81430:	d503201f 	nop
   81434:	d503201f 	nop
   81438:	d503201f 	nop
   8143c:	d503201f 	nop
   81440:	d503201f 	nop
   81444:	d503201f 	nop
   81448:	d503201f 	nop
   8144c:	d503201f 	nop
   81450:	d503201f 	nop
   81454:	d503201f 	nop
   81458:	d503201f 	nop
   8145c:	d503201f 	nop
   81460:	d503201f 	nop
   81464:	d503201f 	nop
   81468:	d503201f 	nop
   8146c:	d503201f 	nop
   81470:	d503201f 	nop
   81474:	d503201f 	nop
   81478:	d503201f 	nop
   8147c:	d503201f 	nop
   81480:	d503201f 	nop
   81484:	d503201f 	nop
   81488:	d503201f 	nop
   8148c:	d503201f 	nop
   81490:	d503201f 	nop
   81494:	d503201f 	nop
   81498:	d503201f 	nop
   8149c:	d503201f 	nop
   814a0:	d503201f 	nop
   814a4:	d503201f 	nop
   814a8:	d503201f 	nop
   814ac:	d503201f 	nop
   814b0:	d503201f 	nop
   814b4:	d503201f 	nop
   814b8:	d503201f 	nop
   814bc:	d503201f 	nop
   814c0:	d503201f 	nop
   814c4:	d503201f 	nop
   814c8:	d503201f 	nop
   814cc:	d503201f 	nop
   814d0:	d503201f 	nop
   814d4:	d503201f 	nop
   814d8:	d503201f 	nop
   814dc:	d503201f 	nop
   814e0:	d503201f 	nop
   814e4:	d503201f 	nop
   814e8:	d503201f 	nop
   814ec:	d503201f 	nop
   814f0:	d503201f 	nop
   814f4:	d503201f 	nop
   814f8:	d503201f 	nop
   814fc:	d503201f 	nop
   81500:	d503201f 	nop
   81504:	d503201f 	nop
   81508:	d503201f 	nop
   8150c:	d503201f 	nop
   81510:	d503201f 	nop
   81514:	d503201f 	nop
   81518:	d503201f 	nop
   8151c:	d503201f 	nop
   81520:	d503201f 	nop
   81524:	d503201f 	nop
   81528:	d503201f 	nop
   8152c:	d503201f 	nop
   81530:	d503201f 	nop
   81534:	d503201f 	nop
   81538:	d503201f 	nop
   8153c:	d503201f 	nop
   81540:	d503201f 	nop
   81544:	d503201f 	nop
   81548:	d503201f 	nop
   8154c:	d503201f 	nop
   81550:	d503201f 	nop
   81554:	d503201f 	nop
   81558:	d503201f 	nop
   8155c:	d503201f 	nop
   81560:	d503201f 	nop
   81564:	d503201f 	nop
   81568:	d503201f 	nop
   8156c:	d503201f 	nop
   81570:	d503201f 	nop
   81574:	d503201f 	nop
   81578:	d503201f 	nop
   8157c:	d503201f 	nop
   81580:	d503201f 	nop
   81584:	d503201f 	nop
   81588:	d503201f 	nop
   8158c:	d503201f 	nop
   81590:	d503201f 	nop
   81594:	d503201f 	nop
   81598:	d503201f 	nop
   8159c:	d503201f 	nop
   815a0:	d503201f 	nop
   815a4:	d503201f 	nop
   815a8:	d503201f 	nop
   815ac:	d503201f 	nop
   815b0:	d503201f 	nop
   815b4:	d503201f 	nop
   815b8:	d503201f 	nop
   815bc:	d503201f 	nop
   815c0:	d503201f 	nop
   815c4:	d503201f 	nop
   815c8:	d503201f 	nop
   815cc:	d503201f 	nop
   815d0:	d503201f 	nop
   815d4:	d503201f 	nop
   815d8:	d503201f 	nop
   815dc:	d503201f 	nop
   815e0:	d503201f 	nop
   815e4:	d503201f 	nop
   815e8:	d503201f 	nop
   815ec:	d503201f 	nop
   815f0:	d503201f 	nop
   815f4:	d503201f 	nop
   815f8:	d503201f 	nop
   815fc:	d503201f 	nop
   81600:	d503201f 	nop
   81604:	d503201f 	nop
   81608:	d503201f 	nop
   8160c:	d503201f 	nop
   81610:	d503201f 	nop
   81614:	d503201f 	nop
   81618:	d503201f 	nop
   8161c:	d503201f 	nop
   81620:	d503201f 	nop
   81624:	d503201f 	nop
   81628:	d503201f 	nop
   8162c:	d503201f 	nop
   81630:	d503201f 	nop
   81634:	d503201f 	nop
   81638:	d503201f 	nop
   8163c:	d503201f 	nop
   81640:	d503201f 	nop
   81644:	d503201f 	nop
   81648:	d503201f 	nop
   8164c:	d503201f 	nop
   81650:	d503201f 	nop
   81654:	d503201f 	nop
   81658:	d503201f 	nop
   8165c:	d503201f 	nop
   81660:	d503201f 	nop
   81664:	d503201f 	nop
   81668:	d503201f 	nop
   8166c:	d503201f 	nop
   81670:	d503201f 	nop
   81674:	d503201f 	nop
   81678:	d503201f 	nop
   8167c:	d503201f 	nop
   81680:	d503201f 	nop
   81684:	d503201f 	nop
   81688:	d503201f 	nop
   8168c:	d503201f 	nop
   81690:	d503201f 	nop
   81694:	d503201f 	nop
   81698:	d503201f 	nop
   8169c:	d503201f 	nop
   816a0:	d503201f 	nop
   816a4:	d503201f 	nop
   816a8:	d503201f 	nop
   816ac:	d503201f 	nop
   816b0:	d503201f 	nop
   816b4:	d503201f 	nop
   816b8:	d503201f 	nop
   816bc:	d503201f 	nop
   816c0:	d503201f 	nop
   816c4:	d503201f 	nop
   816c8:	d503201f 	nop
   816cc:	d503201f 	nop
   816d0:	d503201f 	nop
   816d4:	d503201f 	nop
   816d8:	d503201f 	nop
   816dc:	d503201f 	nop
   816e0:	d503201f 	nop
   816e4:	d503201f 	nop
   816e8:	d503201f 	nop
   816ec:	d503201f 	nop
   816f0:	d503201f 	nop
   816f4:	d503201f 	nop
   816f8:	d503201f 	nop
   816fc:	d503201f 	nop
   81700:	d503201f 	nop
   81704:	d503201f 	nop
   81708:	d503201f 	nop
   8170c:	d503201f 	nop
   81710:	d503201f 	nop
   81714:	d503201f 	nop
   81718:	d503201f 	nop
   8171c:	d503201f 	nop
   81720:	d503201f 	nop
   81724:	d503201f 	nop
   81728:	d503201f 	nop
   8172c:	d503201f 	nop
   81730:	d503201f 	nop
   81734:	d503201f 	nop
   81738:	d503201f 	nop
   8173c:	d503201f 	nop
   81740:	d503201f 	nop
   81744:	d503201f 	nop
   81748:	d503201f 	nop
   8174c:	d503201f 	nop
   81750:	d503201f 	nop
   81754:	d503201f 	nop
   81758:	d503201f 	nop
   8175c:	d503201f 	nop
   81760:	d503201f 	nop
   81764:	d503201f 	nop
   81768:	d503201f 	nop
   8176c:	d503201f 	nop
   81770:	d503201f 	nop
   81774:	d503201f 	nop
   81778:	d503201f 	nop
   8177c:	d503201f 	nop
   81780:	d503201f 	nop
   81784:	d503201f 	nop
   81788:	d503201f 	nop
   8178c:	d503201f 	nop
   81790:	d503201f 	nop
   81794:	d503201f 	nop
   81798:	d503201f 	nop
   8179c:	d503201f 	nop
   817a0:	d503201f 	nop
   817a4:	d503201f 	nop
   817a8:	d503201f 	nop
   817ac:	d503201f 	nop
   817b0:	d503201f 	nop
   817b4:	d503201f 	nop
   817b8:	d503201f 	nop
   817bc:	d503201f 	nop
   817c0:	d503201f 	nop
   817c4:	d503201f 	nop
   817c8:	d503201f 	nop
   817cc:	d503201f 	nop
   817d0:	d503201f 	nop
   817d4:	d503201f 	nop
   817d8:	d503201f 	nop
   817dc:	d503201f 	nop
   817e0:	d503201f 	nop
   817e4:	d503201f 	nop
   817e8:	d503201f 	nop
   817ec:	d503201f 	nop
   817f0:	d503201f 	nop
   817f4:	d503201f 	nop
   817f8:	d503201f 	nop
   817fc:	d503201f 	nop

0000000000081800 <__vectors2>:
   81800:	140000e1 	b	81b84 <sync_currentEL_spelx_EL2>
   81804:	d503201f 	nop
   81808:	d503201f 	nop
   8180c:	d503201f 	nop
   81810:	d503201f 	nop
   81814:	d503201f 	nop
   81818:	d503201f 	nop
   8181c:	d503201f 	nop
   81820:	d503201f 	nop
   81824:	d503201f 	nop
   81828:	d503201f 	nop
   8182c:	d503201f 	nop
   81830:	d503201f 	nop
   81834:	d503201f 	nop
   81838:	d503201f 	nop
   8183c:	d503201f 	nop
   81840:	d503201f 	nop
   81844:	d503201f 	nop
   81848:	d503201f 	nop
   8184c:	d503201f 	nop
   81850:	d503201f 	nop
   81854:	d503201f 	nop
   81858:	d503201f 	nop
   8185c:	d503201f 	nop
   81860:	d503201f 	nop
   81864:	d503201f 	nop
   81868:	d503201f 	nop
   8186c:	d503201f 	nop
   81870:	d503201f 	nop
   81874:	d503201f 	nop
   81878:	d503201f 	nop
   8187c:	d503201f 	nop
   81880:	140000c1 	b	81b84 <sync_currentEL_spelx_EL2>
   81884:	d503201f 	nop
   81888:	d503201f 	nop
   8188c:	d503201f 	nop
   81890:	d503201f 	nop
   81894:	d503201f 	nop
   81898:	d503201f 	nop
   8189c:	d503201f 	nop
   818a0:	d503201f 	nop
   818a4:	d503201f 	nop
   818a8:	d503201f 	nop
   818ac:	d503201f 	nop
   818b0:	d503201f 	nop
   818b4:	d503201f 	nop
   818b8:	d503201f 	nop
   818bc:	d503201f 	nop
   818c0:	d503201f 	nop
   818c4:	d503201f 	nop
   818c8:	d503201f 	nop
   818cc:	d503201f 	nop
   818d0:	d503201f 	nop
   818d4:	d503201f 	nop
   818d8:	d503201f 	nop
   818dc:	d503201f 	nop
   818e0:	d503201f 	nop
   818e4:	d503201f 	nop
   818e8:	d503201f 	nop
   818ec:	d503201f 	nop
   818f0:	d503201f 	nop
   818f4:	d503201f 	nop
   818f8:	d503201f 	nop
   818fc:	d503201f 	nop
   81900:	140000a1 	b	81b84 <sync_currentEL_spelx_EL2>
   81904:	d503201f 	nop
   81908:	d503201f 	nop
   8190c:	d503201f 	nop
   81910:	d503201f 	nop
   81914:	d503201f 	nop
   81918:	d503201f 	nop
   8191c:	d503201f 	nop
   81920:	d503201f 	nop
   81924:	d503201f 	nop
   81928:	d503201f 	nop
   8192c:	d503201f 	nop
   81930:	d503201f 	nop
   81934:	d503201f 	nop
   81938:	d503201f 	nop
   8193c:	d503201f 	nop
   81940:	d503201f 	nop
   81944:	d503201f 	nop
   81948:	d503201f 	nop
   8194c:	d503201f 	nop
   81950:	d503201f 	nop
   81954:	d503201f 	nop
   81958:	d503201f 	nop
   8195c:	d503201f 	nop
   81960:	d503201f 	nop
   81964:	d503201f 	nop
   81968:	d503201f 	nop
   8196c:	d503201f 	nop
   81970:	d503201f 	nop
   81974:	d503201f 	nop
   81978:	d503201f 	nop
   8197c:	d503201f 	nop
   81980:	14000081 	b	81b84 <sync_currentEL_spelx_EL2>
   81984:	d503201f 	nop
   81988:	d503201f 	nop
   8198c:	d503201f 	nop
   81990:	d503201f 	nop
   81994:	d503201f 	nop
   81998:	d503201f 	nop
   8199c:	d503201f 	nop
   819a0:	d503201f 	nop
   819a4:	d503201f 	nop
   819a8:	d503201f 	nop
   819ac:	d503201f 	nop
   819b0:	d503201f 	nop
   819b4:	d503201f 	nop
   819b8:	d503201f 	nop
   819bc:	d503201f 	nop
   819c0:	d503201f 	nop
   819c4:	d503201f 	nop
   819c8:	d503201f 	nop
   819cc:	d503201f 	nop
   819d0:	d503201f 	nop
   819d4:	d503201f 	nop
   819d8:	d503201f 	nop
   819dc:	d503201f 	nop
   819e0:	d503201f 	nop
   819e4:	d503201f 	nop
   819e8:	d503201f 	nop
   819ec:	d503201f 	nop
   819f0:	d503201f 	nop
   819f4:	d503201f 	nop
   819f8:	d503201f 	nop
   819fc:	d503201f 	nop
   81a00:	14000061 	b	81b84 <sync_currentEL_spelx_EL2>
   81a04:	d503201f 	nop
   81a08:	d503201f 	nop
   81a0c:	d503201f 	nop
   81a10:	d503201f 	nop
   81a14:	d503201f 	nop
   81a18:	d503201f 	nop
   81a1c:	d503201f 	nop
   81a20:	d503201f 	nop
   81a24:	d503201f 	nop
   81a28:	d503201f 	nop
   81a2c:	d503201f 	nop
   81a30:	d503201f 	nop
   81a34:	d503201f 	nop
   81a38:	d503201f 	nop
   81a3c:	d503201f 	nop
   81a40:	d503201f 	nop
   81a44:	d503201f 	nop
   81a48:	d503201f 	nop
   81a4c:	d503201f 	nop
   81a50:	d503201f 	nop
   81a54:	d503201f 	nop
   81a58:	d503201f 	nop
   81a5c:	d503201f 	nop
   81a60:	d503201f 	nop
   81a64:	d503201f 	nop
   81a68:	d503201f 	nop
   81a6c:	d503201f 	nop
   81a70:	d503201f 	nop
   81a74:	d503201f 	nop
   81a78:	d503201f 	nop
   81a7c:	d503201f 	nop
   81a80:	1400006c 	b	81c30 <irq_currentEL_spelx_EL2>
   81a84:	d503201f 	nop
   81a88:	d503201f 	nop
   81a8c:	d503201f 	nop
   81a90:	d503201f 	nop
   81a94:	d503201f 	nop
   81a98:	d503201f 	nop
   81a9c:	d503201f 	nop
   81aa0:	d503201f 	nop
   81aa4:	d503201f 	nop
   81aa8:	d503201f 	nop
   81aac:	d503201f 	nop
   81ab0:	d503201f 	nop
   81ab4:	d503201f 	nop
   81ab8:	d503201f 	nop
   81abc:	d503201f 	nop
   81ac0:	d503201f 	nop
   81ac4:	d503201f 	nop
   81ac8:	d503201f 	nop
   81acc:	d503201f 	nop
   81ad0:	d503201f 	nop
   81ad4:	d503201f 	nop
   81ad8:	d503201f 	nop
   81adc:	d503201f 	nop
   81ae0:	d503201f 	nop
   81ae4:	d503201f 	nop
   81ae8:	d503201f 	nop
   81aec:	d503201f 	nop
   81af0:	d503201f 	nop
   81af4:	d503201f 	nop
   81af8:	d503201f 	nop
   81afc:	d503201f 	nop
   81b00:	14000021 	b	81b84 <sync_currentEL_spelx_EL2>
   81b04:	d503201f 	nop
   81b08:	d503201f 	nop
   81b0c:	d503201f 	nop
   81b10:	d503201f 	nop
   81b14:	d503201f 	nop
   81b18:	d503201f 	nop
   81b1c:	d503201f 	nop
   81b20:	d503201f 	nop
   81b24:	d503201f 	nop
   81b28:	d503201f 	nop
   81b2c:	d503201f 	nop
   81b30:	d503201f 	nop
   81b34:	d503201f 	nop
   81b38:	d503201f 	nop
   81b3c:	d503201f 	nop
   81b40:	d503201f 	nop
   81b44:	d503201f 	nop
   81b48:	d503201f 	nop
   81b4c:	d503201f 	nop
   81b50:	d503201f 	nop
   81b54:	d503201f 	nop
   81b58:	d503201f 	nop
   81b5c:	d503201f 	nop
   81b60:	d503201f 	nop
   81b64:	d503201f 	nop
   81b68:	d503201f 	nop
   81b6c:	d503201f 	nop
   81b70:	d503201f 	nop
   81b74:	d503201f 	nop
   81b78:	d503201f 	nop
   81b7c:	d503201f 	nop
   81b80:	14000057 	b	81cdc <sError_currentEL_spelx_EL2>

0000000000081b84 <sync_currentEL_spelx_EL2>:
   81b84:	a94007e0 	ldp	x0, x1, [sp]
   81b88:	d538d080 	mrs	x0, tpidr_el1
   81b8c:	91018000 	add	x0, x0, #0x60
   81b90:	f9400000 	ldr	x0, [x0]
   81b94:	910003e1 	mov	x1, sp
   81b98:	9100001f 	mov	sp, x0
   81b9c:	a9000420 	stp	x0, x1, [x1]
   81ba0:	d10403ff 	sub	sp, sp, #0x100
   81ba4:	a90007e0 	stp	x0, x1, [sp]
   81ba8:	a9010fe2 	stp	x2, x3, [sp, #16]
   81bac:	a90217e4 	stp	x4, x5, [sp, #32]
   81bb0:	a9031fe6 	stp	x6, x7, [sp, #48]
   81bb4:	a90427e8 	stp	x8, x9, [sp, #64]
   81bb8:	a9052fea 	stp	x10, x11, [sp, #80]
   81bbc:	a90637ec 	stp	x12, x13, [sp, #96]
   81bc0:	a9073fee 	stp	x14, x15, [sp, #112]
   81bc4:	a90847f0 	stp	x16, x17, [sp, #128]
   81bc8:	a9094ff2 	stp	x18, x19, [sp, #144]
   81bcc:	a90a57f4 	stp	x20, x21, [sp, #160]
   81bd0:	a90b5ff6 	stp	x22, x23, [sp, #176]
   81bd4:	a90c67f8 	stp	x24, x25, [sp, #192]
   81bd8:	a90d6ffa 	stp	x26, x27, [sp, #208]
   81bdc:	a90e77fc 	stp	x28, x29, [sp, #224]
   81be0:	f9007bfe 	str	x30, [sp, #240]
   81be4:	940006bf 	bl	836e0 <sync_exc2_handler>
   81be8:	a94007e0 	ldp	x0, x1, [sp]
   81bec:	a9410fe2 	ldp	x2, x3, [sp, #16]
   81bf0:	a94217e4 	ldp	x4, x5, [sp, #32]
   81bf4:	a9431fe6 	ldp	x6, x7, [sp, #48]
   81bf8:	a94427e8 	ldp	x8, x9, [sp, #64]
   81bfc:	a9452fea 	ldp	x10, x11, [sp, #80]
   81c00:	a94637ec 	ldp	x12, x13, [sp, #96]
   81c04:	a9473fee 	ldp	x14, x15, [sp, #112]
   81c08:	a94847f0 	ldp	x16, x17, [sp, #128]
   81c0c:	a9494ff2 	ldp	x18, x19, [sp, #144]
   81c10:	a94a57f4 	ldp	x20, x21, [sp, #160]
   81c14:	a94b5ff6 	ldp	x22, x23, [sp, #176]
   81c18:	a94c67f8 	ldp	x24, x25, [sp, #192]
   81c1c:	a94d6ffa 	ldp	x26, x27, [sp, #208]
   81c20:	a94e77fc 	ldp	x28, x29, [sp, #224]
   81c24:	f9407bfe 	ldr	x30, [sp, #240]
   81c28:	910403ff 	add	sp, sp, #0x100
   81c2c:	d69f03e0 	eret

0000000000081c30 <irq_currentEL_spelx_EL2>:
   81c30:	a94007e0 	ldp	x0, x1, [sp]
   81c34:	d538d080 	mrs	x0, tpidr_el1
   81c38:	91018000 	add	x0, x0, #0x60
   81c3c:	f9400000 	ldr	x0, [x0]
   81c40:	910003e1 	mov	x1, sp
   81c44:	9100001f 	mov	sp, x0
   81c48:	a9000420 	stp	x0, x1, [x1]
   81c4c:	d10403ff 	sub	sp, sp, #0x100
   81c50:	a90007e0 	stp	x0, x1, [sp]
   81c54:	a9010fe2 	stp	x2, x3, [sp, #16]
   81c58:	a90217e4 	stp	x4, x5, [sp, #32]
   81c5c:	a9031fe6 	stp	x6, x7, [sp, #48]
   81c60:	a90427e8 	stp	x8, x9, [sp, #64]
   81c64:	a9052fea 	stp	x10, x11, [sp, #80]
   81c68:	a90637ec 	stp	x12, x13, [sp, #96]
   81c6c:	a9073fee 	stp	x14, x15, [sp, #112]
   81c70:	a90847f0 	stp	x16, x17, [sp, #128]
   81c74:	a9094ff2 	stp	x18, x19, [sp, #144]
   81c78:	a90a57f4 	stp	x20, x21, [sp, #160]
   81c7c:	a90b5ff6 	stp	x22, x23, [sp, #176]
   81c80:	a90c67f8 	stp	x24, x25, [sp, #192]
   81c84:	a90d6ffa 	stp	x26, x27, [sp, #208]
   81c88:	a90e77fc 	stp	x28, x29, [sp, #224]
   81c8c:	f9007bfe 	str	x30, [sp, #240]
   81c90:	9400069e 	bl	83708 <irq_exc_handler>
   81c94:	a94007e0 	ldp	x0, x1, [sp]
   81c98:	a9410fe2 	ldp	x2, x3, [sp, #16]
   81c9c:	a94217e4 	ldp	x4, x5, [sp, #32]
   81ca0:	a9431fe6 	ldp	x6, x7, [sp, #48]
   81ca4:	a94427e8 	ldp	x8, x9, [sp, #64]
   81ca8:	a9452fea 	ldp	x10, x11, [sp, #80]
   81cac:	a94637ec 	ldp	x12, x13, [sp, #96]
   81cb0:	a9473fee 	ldp	x14, x15, [sp, #112]
   81cb4:	a94847f0 	ldp	x16, x17, [sp, #128]
   81cb8:	a9494ff2 	ldp	x18, x19, [sp, #144]
   81cbc:	a94a57f4 	ldp	x20, x21, [sp, #160]
   81cc0:	a94b5ff6 	ldp	x22, x23, [sp, #176]
   81cc4:	a94c67f8 	ldp	x24, x25, [sp, #192]
   81cc8:	a94d6ffa 	ldp	x26, x27, [sp, #208]
   81ccc:	a94e77fc 	ldp	x28, x29, [sp, #224]
   81cd0:	f9407bfe 	ldr	x30, [sp, #240]
   81cd4:	910403ff 	add	sp, sp, #0x100
   81cd8:	d69f03e0 	eret

0000000000081cdc <sError_currentEL_spelx_EL2>:
   81cdc:	a94007e0 	ldp	x0, x1, [sp]
   81ce0:	d538d080 	mrs	x0, tpidr_el1
   81ce4:	91018000 	add	x0, x0, #0x60
   81ce8:	f9400000 	ldr	x0, [x0]
   81cec:	910003e1 	mov	x1, sp
   81cf0:	9100001f 	mov	sp, x0
   81cf4:	a9000420 	stp	x0, x1, [x1]
   81cf8:	d10403ff 	sub	sp, sp, #0x100
   81cfc:	a90007e0 	stp	x0, x1, [sp]
   81d00:	a9010fe2 	stp	x2, x3, [sp, #16]
   81d04:	a90217e4 	stp	x4, x5, [sp, #32]
   81d08:	a9031fe6 	stp	x6, x7, [sp, #48]
   81d0c:	a90427e8 	stp	x8, x9, [sp, #64]
   81d10:	a9052fea 	stp	x10, x11, [sp, #80]
   81d14:	a90637ec 	stp	x12, x13, [sp, #96]
   81d18:	a9073fee 	stp	x14, x15, [sp, #112]
   81d1c:	a90847f0 	stp	x16, x17, [sp, #128]
   81d20:	a9094ff2 	stp	x18, x19, [sp, #144]
   81d24:	a90a57f4 	stp	x20, x21, [sp, #160]
   81d28:	a90b5ff6 	stp	x22, x23, [sp, #176]
   81d2c:	a90c67f8 	stp	x24, x25, [sp, #192]
   81d30:	a90d6ffa 	stp	x26, x27, [sp, #208]
   81d34:	a90e77fc 	stp	x28, x29, [sp, #224]
   81d38:	f9007bfe 	str	x30, [sp, #240]
   81d3c:	94000683 	bl	83748 <SError_handler>
   81d40:	a94007e0 	ldp	x0, x1, [sp]
   81d44:	a9410fe2 	ldp	x2, x3, [sp, #16]
   81d48:	a94217e4 	ldp	x4, x5, [sp, #32]
   81d4c:	a9431fe6 	ldp	x6, x7, [sp, #48]
   81d50:	a94427e8 	ldp	x8, x9, [sp, #64]
   81d54:	a9452fea 	ldp	x10, x11, [sp, #80]
   81d58:	a94637ec 	ldp	x12, x13, [sp, #96]
   81d5c:	a9473fee 	ldp	x14, x15, [sp, #112]
   81d60:	a94847f0 	ldp	x16, x17, [sp, #128]
   81d64:	a9494ff2 	ldp	x18, x19, [sp, #144]
   81d68:	a94a57f4 	ldp	x20, x21, [sp, #160]
   81d6c:	a94b5ff6 	ldp	x22, x23, [sp, #176]
   81d70:	a94c67f8 	ldp	x24, x25, [sp, #192]
   81d74:	a94d6ffa 	ldp	x26, x27, [sp, #208]
   81d78:	a94e77fc 	ldp	x28, x29, [sp, #224]
   81d7c:	f9407bfe 	ldr	x30, [sp, #240]
   81d80:	910403ff 	add	sp, sp, #0x100
   81d84:	d69f03e0 	eret

0000000000081d88 <enable_interrupt>:
   81d88:	d5034fff 	msr	daifclr, #0xf
   81d8c:	d65f03c0 	ret

0000000000081d90 <disable_interrupt>:
   81d90:	d5034fdf 	msr	daifset, #0xf
   81d94:	d65f03c0 	ret

0000000000081d98 <enable_EL0_interrupt>:
   81d98:	d5384000 	mrs	x0, spsr_el1
   81d9c:	58000661 	ldr	x1, 81e68 <exit+0x10>
   81da0:	8a010000 	and	x0, x0, x1
   81da4:	d5184000 	msr	spsr_el1, x0
   81da8:	d65f03c0 	ret

0000000000081dac <disable_EL0_interrupt>:
   81dac:	d5384000 	mrs	x0, spsr_el1
   81db0:	58000601 	ldr	x1, 81e70 <exit+0x18>
   81db4:	aa010000 	orr	x0, x0, x1
   81db8:	d5184000 	msr	spsr_el1, x0
   81dbc:	d65f03c0 	ret

0000000000081dc0 <brk_instr>:
   81dc0:	d4200020 	brk	#0x1
   81dc4:	d65f03c0 	ret

0000000000081dc8 <get_sync_exc_param_el1>:
   81dc8:	d5385209 	mrs	x9, esr_el1
   81dcc:	d538402a 	mrs	x10, elr_el1
   81dd0:	f9000009 	str	x9, [x0]
   81dd4:	f900002a 	str	x10, [x1]
   81dd8:	d65f03c0 	ret

0000000000081ddc <get_sync_exc_param_el2>:
   81ddc:	d53c5209 	mrs	x9, esr_el2
   81de0:	d53c402a 	mrs	x10, elr_el2
   81de4:	f9000009 	str	x9, [x0]
   81de8:	f900002a 	str	x10, [x1]
   81dec:	d65f03c0 	ret

0000000000081df0 <sleep>:
   81df0:	58000440 	ldr	x0, 81e78 <exit+0x20>

0000000000081df4 <loop>:
   81df4:	d1000400 	sub	x0, x0, #0x1
   81df8:	b5ffffe0 	cbnz	x0, 81df4 <loop>
   81dfc:	d65f03c0 	ret

0000000000081e00 <get_taskId>:
   81e00:	d2800008 	mov	x8, #0x0                   	// #0
   81e04:	d4000001 	svc	#0x0
   81e08:	d65f03c0 	ret

0000000000081e0c <sched_yield>:
   81e0c:	d2800028 	mov	x8, #0x1                   	// #1
   81e10:	d4000001 	svc	#0x0
   81e14:	d65f03c0 	ret

0000000000081e18 <uart_write>:
   81e18:	d2800048 	mov	x8, #0x2                   	// #2
   81e1c:	aa0003e9 	mov	x9, x0
   81e20:	d4000001 	svc	#0x0
   81e24:	d65f03c0 	ret

0000000000081e28 <uart_read>:
   81e28:	d2800068 	mov	x8, #0x3                   	// #3
   81e2c:	aa0003e9 	mov	x9, x0
   81e30:	aa0103ea 	mov	x10, x1
   81e34:	d4000001 	svc	#0x0
   81e38:	d65f03c0 	ret

0000000000081e3c <exec>:
   81e3c:	d2800088 	mov	x8, #0x4                   	// #4
   81e40:	aa0003e9 	mov	x9, x0
   81e44:	d4000001 	svc	#0x0
   81e48:	d65f03c0 	ret

0000000000081e4c <fork>:
   81e4c:	d28000a8 	mov	x8, #0x5                   	// #5
   81e50:	d4000001 	svc	#0x0
   81e54:	d65f03c0 	ret

0000000000081e58 <exit>:
   81e58:	d28000c8 	mov	x8, #0x6                   	// #6
   81e5c:	aa0003e9 	mov	x9, x0
   81e60:	d4000001 	svc	#0x0
   81e64:	d65f03c0 	ret
   81e68:	0000fc3f 	.word	0x0000fc3f
   81e6c:	00000000 	.word	0x00000000
   81e70:	000003c0 	.word	0x000003c0
   81e74:	00000000 	.word	0x00000000
   81e78:	01ffffff 	.word	0x01ffffff
   81e7c:	00000000 	.word	0x00000000

0000000000081e80 <switch_to>:
   81e80:	a9005013 	stp	x19, x20, [x0]
   81e84:	a9015815 	stp	x21, x22, [x0, #16]
   81e88:	a9026017 	stp	x23, x24, [x0, #32]
   81e8c:	a9036819 	stp	x25, x26, [x0, #48]
   81e90:	a904701b 	stp	x27, x28, [x0, #64]
   81e94:	a905781d 	stp	x29, x30, [x0, #80]
   81e98:	910003e9 	mov	x9, sp
   81e9c:	f9003009 	str	x9, [x0, #96]
   81ea0:	a9405033 	ldp	x19, x20, [x1]
   81ea4:	a9415835 	ldp	x21, x22, [x1, #16]
   81ea8:	a9426037 	ldp	x23, x24, [x1, #32]
   81eac:	a9436839 	ldp	x25, x26, [x1, #48]
   81eb0:	a944703b 	ldp	x27, x28, [x1, #64]
   81eb4:	a945783d 	ldp	x29, x30, [x1, #80]
   81eb8:	f9403029 	ldr	x9, [x1, #96]
   81ebc:	9100013f 	mov	sp, x9
   81ec0:	d65f03c0 	ret

0000000000081ec4 <get_cur_task>:
   81ec4:	d538d080 	mrs	x0, tpidr_el1
   81ec8:	d65f03c0 	ret

0000000000081ecc <set_cur_task>:
   81ecc:	d518d080 	msr	tpidr_el1, x0
   81ed0:	d65f03c0 	ret

0000000000081ed4 <go_to>:
   81ed4:	d518d080 	msr	tpidr_el1, x0
   81ed8:	a945781d 	ldp	x29, x30, [x0, #80]
   81edc:	f9403009 	ldr	x9, [x0, #96]
   81ee0:	9100013f 	mov	sp, x9
   81ee4:	d65f03c0 	ret

0000000000081ee8 <store_umode_lr_sp>:
   81ee8:	d5384029 	mrs	x9, elr_el1
   81eec:	d538410a 	mrs	x10, sp_el0
   81ef0:	f9000009 	str	x9, [x0]
   81ef4:	f900002a 	str	x10, [x1]
   81ef8:	d65f03c0 	ret

0000000000081efc <restore_umode_lr_sp>:
   81efc:	d5184020 	msr	elr_el1, x0
   81f00:	d5184101 	msr	sp_el0, x1
   81f04:	d65f03c0 	ret

0000000000081f08 <restore_all_reg>:
   81f08:	a94007e0 	ldp	x0, x1, [sp]
   81f0c:	a9410fe2 	ldp	x2, x3, [sp, #16]
   81f10:	a94217e4 	ldp	x4, x5, [sp, #32]
   81f14:	a9431fe6 	ldp	x6, x7, [sp, #48]
   81f18:	a94427e8 	ldp	x8, x9, [sp, #64]
   81f1c:	a9452fea 	ldp	x10, x11, [sp, #80]
   81f20:	a94637ec 	ldp	x12, x13, [sp, #96]
   81f24:	a9473fee 	ldp	x14, x15, [sp, #112]
   81f28:	a94847f0 	ldp	x16, x17, [sp, #128]
   81f2c:	a9494ff2 	ldp	x18, x19, [sp, #144]
   81f30:	a94a57f4 	ldp	x20, x21, [sp, #160]
   81f34:	a94b5ff6 	ldp	x22, x23, [sp, #176]
   81f38:	a94c67f8 	ldp	x24, x25, [sp, #192]
   81f3c:	a94d6ffa 	ldp	x26, x27, [sp, #208]
   81f40:	a94e77fc 	ldp	x28, x29, [sp, #224]
   81f44:	f9407bfe 	ldr	x30, [sp, #240]
   81f48:	910403ff 	add	sp, sp, #0x100
   81f4c:	d69f03e0 	eret

0000000000081f50 <uart_init>:
   81f50:	d28a0081 	mov	x1, #0x5004                	// #20484
   81f54:	d28a0c04 	mov	x4, #0x5060                	// #20576
   81f58:	f2a7e421 	movk	x1, #0x3f21, lsl #16
   81f5c:	f2a7e424 	movk	x4, #0x3f21, lsl #16
   81f60:	d28a0986 	mov	x6, #0x504c                	// #20556
   81f64:	d28a0a05 	mov	x5, #0x5050                	// #20560
   81f68:	b9400020 	ldr	w0, [x1]
   81f6c:	f2a7e426 	movk	x6, #0x3f21, lsl #16
   81f70:	f2a7e425 	movk	x5, #0x3f21, lsl #16
   81f74:	d28a0882 	mov	x2, #0x5044                	// #20548
   81f78:	32000000 	orr	w0, w0, #0x1
   81f7c:	b9000020 	str	w0, [x1]
   81f80:	b900009f 	str	wzr, [x4]
   81f84:	f2a7e422 	movk	x2, #0x3f21, lsl #16
   81f88:	52800067 	mov	w7, #0x3                   	// #3
   81f8c:	d28a0903 	mov	x3, #0x5048                	// #20552
   81f90:	b90000c7 	str	w7, [x6]
   81f94:	f2a7e423 	movk	x3, #0x3f21, lsl #16
   81f98:	b90000bf 	str	wzr, [x5]
   81f9c:	d28a0d00 	mov	x0, #0x5068                	// #20584
   81fa0:	f2a7e420 	movk	x0, #0x3f21, lsl #16
   81fa4:	52801fe4 	mov	w4, #0xff                  	// #255
   81fa8:	b9000044 	str	w4, [x2]
   81fac:	528018c1 	mov	w1, #0xc6                  	// #198
   81fb0:	d2800082 	mov	x2, #0x4                   	// #4
   81fb4:	b9000061 	str	w1, [x3]
   81fb8:	f2a7e402 	movk	x2, #0x3f20, lsl #16
   81fbc:	528021c1 	mov	w1, #0x10e                 	// #270
   81fc0:	b9000001 	str	w1, [x0]
   81fc4:	d2801283 	mov	x3, #0x94                  	// #148
   81fc8:	52840004 	mov	w4, #0x2000                	// #8192
   81fcc:	f2a7e403 	movk	x3, #0x3f20, lsl #16
   81fd0:	b9400041 	ldr	w1, [x2]
   81fd4:	72a00024 	movk	w4, #0x1, lsl #16
   81fd8:	528012c0 	mov	w0, #0x96                  	// #150
   81fdc:	120e6421 	and	w1, w1, #0xfffc0fff
   81fe0:	2a040021 	orr	w1, w1, w4
   81fe4:	b9000041 	str	w1, [x2]
   81fe8:	b900007f 	str	wzr, [x3]
   81fec:	d503201f 	nop
   81ff0:	d503201f 	nop
   81ff4:	71000400 	subs	w0, w0, #0x1
   81ff8:	54ffffc1 	b.ne	81ff0 <uart_init+0xa0>  // b.any
   81ffc:	d2801301 	mov	x1, #0x98                  	// #152
   82000:	52980002 	mov	w2, #0xc000                	// #49152
   82004:	f2a7e401 	movk	x1, #0x3f20, lsl #16
   82008:	528012c0 	mov	w0, #0x96                  	// #150
   8200c:	b9000022 	str	w2, [x1]
   82010:	d503201f 	nop
   82014:	71000400 	subs	w0, w0, #0x1
   82018:	54ffffc1 	b.ne	82010 <uart_init+0xc0>  // b.any
   8201c:	d2801302 	mov	x2, #0x98                  	// #152
   82020:	d28a0c00 	mov	x0, #0x5060                	// #20576
   82024:	f2a7e402 	movk	x2, #0x3f20, lsl #16
   82028:	f2a7e420 	movk	x0, #0x3f21, lsl #16
   8202c:	52800061 	mov	w1, #0x3                   	// #3
   82030:	b900005f 	str	wzr, [x2]
   82034:	b9000001 	str	w1, [x0]
   82038:	d65f03c0 	ret
   8203c:	d503201f 	nop

0000000000082040 <uart_send>:
   82040:	d28a0a82 	mov	x2, #0x5054                	// #20564
   82044:	f2a7e422 	movk	x2, #0x3f21, lsl #16
   82048:	d503201f 	nop
   8204c:	b9400041 	ldr	w1, [x2]
   82050:	362fffc1 	tbz	w1, #5, 82048 <uart_send+0x8>
   82054:	d28a0801 	mov	x1, #0x5040                	// #20544
   82058:	f2a7e421 	movk	x1, #0x3f21, lsl #16
   8205c:	b9000020 	str	w0, [x1]
   82060:	d65f03c0 	ret
   82064:	d503201f 	nop

0000000000082068 <uart_getc>:
   82068:	d28a0a81 	mov	x1, #0x5054                	// #20564
   8206c:	f2a7e421 	movk	x1, #0x3f21, lsl #16
   82070:	d503201f 	nop
   82074:	b9400020 	ldr	w0, [x1]
   82078:	3607ffc0 	tbz	w0, #0, 82070 <uart_getc+0x8>
   8207c:	d28a0800 	mov	x0, #0x5040                	// #20544
   82080:	52800141 	mov	w1, #0xa                   	// #10
   82084:	f2a7e420 	movk	x0, #0x3f21, lsl #16
   82088:	b9400000 	ldr	w0, [x0]
   8208c:	12001c00 	and	w0, w0, #0xff
   82090:	7100341f 	cmp	w0, #0xd
   82094:	1a811000 	csel	w0, w0, w1, ne  // ne = any
   82098:	d65f03c0 	ret
   8209c:	d503201f 	nop

00000000000820a0 <uart_puts>:
   820a0:	39400001 	ldrb	w1, [x0]
   820a4:	34000221 	cbz	w1, 820e8 <uart_puts+0x48>
   820a8:	d28a0a82 	mov	x2, #0x5054                	// #20564
   820ac:	d28a0804 	mov	x4, #0x5040                	// #20544
   820b0:	f2a7e422 	movk	x2, #0x3f21, lsl #16
   820b4:	f2a7e424 	movk	x4, #0x3f21, lsl #16
   820b8:	528001a5 	mov	w5, #0xd                   	// #13
   820bc:	d503201f 	nop
   820c0:	7100283f 	cmp	w1, #0xa
   820c4:	54000140 	b.eq	820ec <uart_puts+0x4c>  // b.none
   820c8:	38401403 	ldrb	w3, [x0], #1
   820cc:	d503201f 	nop
   820d0:	d503201f 	nop
   820d4:	b9400041 	ldr	w1, [x2]
   820d8:	362fffc1 	tbz	w1, #5, 820d0 <uart_puts+0x30>
   820dc:	b9000083 	str	w3, [x4]
   820e0:	39400001 	ldrb	w1, [x0]
   820e4:	35fffee1 	cbnz	w1, 820c0 <uart_puts+0x20>
   820e8:	d65f03c0 	ret
   820ec:	d503201f 	nop
   820f0:	b9400041 	ldr	w1, [x2]
   820f4:	362fffc1 	tbz	w1, #5, 820ec <uart_puts+0x4c>
   820f8:	b9000085 	str	w5, [x4]
   820fc:	17fffff3 	b	820c8 <uart_puts+0x28>

0000000000082100 <uart_hex>:
   82100:	d28a0a82 	mov	x2, #0x5054                	// #20564
   82104:	d28a0805 	mov	x5, #0x5040                	// #20544
   82108:	52800383 	mov	w3, #0x1c                  	// #28
   8210c:	528006e7 	mov	w7, #0x37                  	// #55
   82110:	52800606 	mov	w6, #0x30                  	// #48
   82114:	f2a7e422 	movk	x2, #0x3f21, lsl #16
   82118:	f2a7e425 	movk	x5, #0x3f21, lsl #16
   8211c:	d503201f 	nop
   82120:	1ac32401 	lsr	w1, w0, w3
   82124:	12000c21 	and	w1, w1, #0xf
   82128:	7100243f 	cmp	w1, #0x9
   8212c:	1a8680e4 	csel	w4, w7, w6, hi  // hi = pmore
   82130:	0b010084 	add	w4, w4, w1
   82134:	d503201f 	nop
   82138:	d503201f 	nop
   8213c:	b9400041 	ldr	w1, [x2]
   82140:	362fffc1 	tbz	w1, #5, 82138 <uart_hex+0x38>
   82144:	b90000a4 	str	w4, [x5]
   82148:	51001063 	sub	w3, w3, #0x4
   8214c:	3100107f 	cmn	w3, #0x4
   82150:	54fffe81 	b.ne	82120 <uart_hex+0x20>  // b.any
   82154:	d65f03c0 	ret

0000000000082158 <enable_miniUART_interrupt>:
   82158:	d2964201 	mov	x1, #0xb210                	// #45584
   8215c:	f2a7e001 	movk	x1, #0x3f00, lsl #16
   82160:	b9400020 	ldr	w0, [x1]
   82164:	32030000 	orr	w0, w0, #0x20000000
   82168:	b9000020 	str	w0, [x1]
   8216c:	d65f03c0 	ret

0000000000082170 <disable_miniUART_interrupt>:
   82170:	d2964381 	mov	x1, #0xb21c                	// #45596
   82174:	f2a7e001 	movk	x1, #0x3f00, lsl #16
   82178:	b9400020 	ldr	w0, [x1]
   8217c:	32030000 	orr	w0, w0, #0x20000000
   82180:	b9000020 	str	w0, [x1]
   82184:	d65f03c0 	ret

0000000000082188 <show_interrupt_status>:
   82188:	d28a0900 	mov	x0, #0x5048                	// #20552
   8218c:	f2a7e420 	movk	x0, #0x3f21, lsl #16
   82190:	b9400006 	ldr	w6, [x0]
   82194:	36000046 	tbz	w6, #0, 8219c <show_interrupt_status+0x14>
   82198:	d65f03c0 	ret
   8219c:	a9bf7bfd 	stp	x29, x30, [sp, #-16]!
   821a0:	d0000000 	adrp	x0, 84000 <dynamic_allocator_init+0x68>
   821a4:	91056000 	add	x0, x0, #0x158
   821a8:	910003fd 	mov	x29, sp
   821ac:	97ffffbd 	bl	820a0 <uart_puts>
   821b0:	710308df 	cmp	w6, #0xc2
   821b4:	54000140 	b.eq	821dc <show_interrupt_status+0x54>  // b.none
   821b8:	710310df 	cmp	w6, #0xc4
   821bc:	54000180 	b.eq	821ec <show_interrupt_status+0x64>  // b.none
   821c0:	d2964381 	mov	x1, #0xb21c                	// #45596
   821c4:	f2a7e001 	movk	x1, #0x3f00, lsl #16
   821c8:	b9400020 	ldr	w0, [x1]
   821cc:	32030000 	orr	w0, w0, #0x20000000
   821d0:	b9000020 	str	w0, [x1]
   821d4:	a8c17bfd 	ldp	x29, x30, [sp], #16
   821d8:	d65f03c0 	ret
   821dc:	d0000000 	adrp	x0, 84000 <dynamic_allocator_init+0x68>
   821e0:	9105c000 	add	x0, x0, #0x170
   821e4:	97ffffaf 	bl	820a0 <uart_puts>
   821e8:	17fffff6 	b	821c0 <show_interrupt_status+0x38>
   821ec:	d0000000 	adrp	x0, 84000 <dynamic_allocator_init+0x68>
   821f0:	91066000 	add	x0, x0, #0x198
   821f4:	97ffffab 	bl	820a0 <uart_puts>
   821f8:	17fffff2 	b	821c0 <show_interrupt_status+0x38>
   821fc:	00000000 	.inst	0x00000000 ; undefined

0000000000082200 <init_Queue>:
   82200:	f900201f 	str	xzr, [x0, #64]
   82204:	b900481f 	str	wzr, [x0, #72]
   82208:	d65f03c0 	ret
   8220c:	d503201f 	nop

0000000000082210 <isEmpty>:
   82210:	29480402 	ldp	w2, w1, [x0, #64]
   82214:	6b01005f 	cmp	w2, w1
   82218:	54000060 	b.eq	82224 <isEmpty+0x14>  // b.none
   8221c:	52800000 	mov	w0, #0x0                   	// #0
   82220:	d65f03c0 	ret
   82224:	b9404800 	ldr	w0, [x0, #72]
   82228:	7100001f 	cmp	w0, #0x0
   8222c:	1a9f17e0 	cset	w0, eq  // eq = none
   82230:	d65f03c0 	ret
   82234:	d503201f 	nop

0000000000082238 <enQueue>:
   82238:	b9404802 	ldr	w2, [x0, #72]
   8223c:	350001e2 	cbnz	w2, 82278 <enQueue+0x40>
   82240:	29480c04 	ldp	w4, w3, [x0, #64]
   82244:	11000463 	add	w3, w3, #0x1
   82248:	6b0303e2 	negs	w2, w3
   8224c:	12000c63 	and	w3, w3, #0xf
   82250:	12000c42 	and	w2, w2, #0xf
   82254:	5a824462 	csneg	w2, w3, w2, mi  // mi = first
   82258:	b9004402 	str	w2, [x0, #68]
   8225c:	6b04005f 	cmp	w2, w4
   82260:	b822d801 	str	w1, [x0, w2, sxtw #2]
   82264:	54000040 	b.eq	8226c <enQueue+0x34>  // b.none
   82268:	d65f03c0 	ret
   8226c:	52800021 	mov	w1, #0x1                   	// #1
   82270:	b9004801 	str	w1, [x0, #72]
   82274:	d65f03c0 	ret
   82278:	d0000000 	adrp	x0, 84000 <dynamic_allocator_init+0x68>
   8227c:	9106e000 	add	x0, x0, #0x1b8
   82280:	17ffff88 	b	820a0 <uart_puts>
   82284:	d503201f 	nop

0000000000082288 <deQueue>:
   82288:	29480801 	ldp	w1, w2, [x0, #64]
   8228c:	6b02003f 	cmp	w1, w2
   82290:	54000140 	b.eq	822b8 <deQueue+0x30>  // b.none
   82294:	11000421 	add	w1, w1, #0x1
   82298:	b900481f 	str	wzr, [x0, #72]
   8229c:	6b0103e2 	negs	w2, w1
   822a0:	12000c21 	and	w1, w1, #0xf
   822a4:	12000c42 	and	w2, w2, #0xf
   822a8:	5a824421 	csneg	w1, w1, w2, mi  // mi = first
   822ac:	b9004001 	str	w1, [x0, #64]
   822b0:	b861d800 	ldr	w0, [x0, w1, sxtw #2]
   822b4:	d65f03c0 	ret
   822b8:	b9404802 	ldr	w2, [x0, #72]
   822bc:	35fffec2 	cbnz	w2, 82294 <deQueue+0xc>
   822c0:	a9bf7bfd 	stp	x29, x30, [sp, #-16]!
   822c4:	d0000000 	adrp	x0, 84000 <dynamic_allocator_init+0x68>
   822c8:	91074000 	add	x0, x0, #0x1d0
   822cc:	910003fd 	mov	x29, sp
   822d0:	97ffff74 	bl	820a0 <uart_puts>
   822d4:	12800000 	mov	w0, #0xffffffff            	// #-1
   822d8:	a8c17bfd 	ldp	x29, x30, [sp], #16
   822dc:	d65f03c0 	ret

00000000000822e0 <SET>:
   822e0:	d2800022 	mov	x2, #0x1                   	// #1
   822e4:	9ac12042 	lsl	x2, x2, x1
   822e8:	f9400001 	ldr	x1, [x0]
   822ec:	aa020021 	orr	x1, x1, x2
   822f0:	f9000001 	str	x1, [x0]
   822f4:	d65f03c0 	ret

00000000000822f8 <CLR>:
   822f8:	d2800022 	mov	x2, #0x1                   	// #1
   822fc:	9ac12041 	lsl	x1, x2, x1
   82300:	f9400002 	ldr	x2, [x0]
   82304:	8a210041 	bic	x1, x2, x1
   82308:	f9000001 	str	x1, [x0]
   8230c:	d65f03c0 	ret

0000000000082310 <isSET>:
   82310:	d2800022 	mov	x2, #0x1                   	// #1
   82314:	9ac12041 	lsl	x1, x2, x1
   82318:	ea00003f 	tst	x1, x0
   8231c:	1a9f07e0 	cset	w0, ne  // ne = any
   82320:	d65f03c0 	ret
   82324:	d503201f 	nop

0000000000082328 <ALLOCATABLE>:
   82328:	aa0003e3 	mov	x3, x0
   8232c:	d2800022 	mov	x2, #0x1                   	// #1
   82330:	52800000 	mov	w0, #0x0                   	// #0
   82334:	14000004 	b	82344 <ALLOCATABLE+0x1c>
   82338:	11000400 	add	w0, w0, #0x1
   8233c:	7101001f 	cmp	w0, #0x40
   82340:	540000a0 	b.eq	82354 <ALLOCATABLE+0x2c>  // b.none
   82344:	9ac02041 	lsl	x1, x2, x0
   82348:	ea03003f 	tst	x1, x3
   8234c:	54ffff61 	b.ne	82338 <ALLOCATABLE+0x10>  // b.any
   82350:	d65f03c0 	ret
   82354:	12800000 	mov	w0, #0xffffffff            	// #-1
   82358:	d65f03c0 	ret
   8235c:	d503201f 	nop

0000000000082360 <BITFULL>:
   82360:	b100041f 	cmn	x0, #0x1
   82364:	1a9f17e0 	cset	w0, eq  // eq = none
   82368:	d65f03c0 	ret
   8236c:	d503201f 	nop

0000000000082370 <privilege_task_create>:
   82370:	a9be7bfd 	stp	x29, x30, [sp, #-32]!
   82374:	f0000004 	adrp	x4, 85000 <zombieReaper_pcb>
   82378:	910003fd 	mov	x29, sp
   8237c:	f9000bf3 	str	x19, [sp, #16]
   82380:	f9404083 	ldr	x3, [x4, #128]
   82384:	b100047f 	cmn	x3, #0x1
   82388:	54000aa0 	b.eq	824dc <privilege_task_create+0x16c>  // b.none
   8238c:	91020081 	add	x1, x4, #0x80
   82390:	f9400426 	ldr	x6, [x1, #8]
   82394:	b10004df 	cmn	x6, #0x1
   82398:	54000a60 	b.eq	824e4 <privilege_task_create+0x174>  // b.none
   8239c:	52800013 	mov	w19, #0x0                   	// #0
   823a0:	d2800022 	mov	x2, #0x1                   	// #1
   823a4:	14000004 	b	823b4 <privilege_task_create+0x44>
   823a8:	11000673 	add	w19, w19, #0x1
   823ac:	7101027f 	cmp	w19, #0x40
   823b0:	54000820 	b.eq	824b4 <privilege_task_create+0x144>  // b.none
   823b4:	9ad32041 	lsl	x1, x2, x19
   823b8:	ea01007f 	tst	x3, x1
   823bc:	54ffff61 	b.ne	823a8 <privilege_task_create+0x38>  // b.any
   823c0:	f0000002 	adrp	x2, 85000 <zombieReaper_pcb>
   823c4:	93407e67 	sxtw	x7, w19
   823c8:	aa010063 	orr	x3, x3, x1
   823cc:	910004ed 	add	x13, x7, #0x1
   823d0:	f9402c41 	ldr	x1, [x2, #88]
   823d4:	8b0d302d 	add	x13, x1, x13, lsl #12
   823d8:	f9004083 	str	x3, [x4, #128]
   823dc:	52800005 	mov	w5, #0x0                   	// #0
   823e0:	d2800021 	mov	x1, #0x1                   	// #1
   823e4:	14000004 	b	823f4 <privilege_task_create+0x84>
   823e8:	110004a5 	add	w5, w5, #0x1
   823ec:	710100bf 	cmp	w5, #0x40
   823f0:	540006c0 	b.eq	824c8 <privilege_task_create+0x158>  // b.none
   823f4:	9ac52023 	lsl	x3, x1, x5
   823f8:	ea0300df 	tst	x6, x3
   823fc:	54ffff61 	b.ne	823e8 <privilege_task_create+0x78>  // b.any
   82400:	f0000001 	adrp	x1, 85000 <zombieReaper_pcb>
   82404:	93407caa 	sxtw	x10, w5
   82408:	aa0300c6 	orr	x6, x6, x3
   8240c:	9100054c 	add	x12, x10, #0x1
   82410:	f9401023 	ldr	x3, [x1, #32]
   82414:	8b0c306c 	add	x12, x3, x12, lsl #12
   82418:	f000000b 	adrp	x11, 85000 <zombieReaper_pcb>
   8241c:	f9402c42 	ldr	x2, [x2, #88]
   82420:	8b0710e8 	add	x8, x7, x7, lsl #4
   82424:	91020089 	add	x9, x4, #0x80
   82428:	f940196e 	ldr	x14, [x11, #48]
   8242c:	91400444 	add	x4, x2, #0x1, lsl #12
   82430:	d374cce3 	lsl	x3, x7, #12
   82434:	8b020062 	add	x2, x3, x2
   82438:	8b030083 	add	x3, x4, x3
   8243c:	8b080dc4 	add	x4, x14, x8, lsl #3
   82440:	f9000526 	str	x6, [x9, #8]
   82444:	a905b480 	stp	x0, x13, [x4, #88]
   82448:	f900348c 	str	x12, [x4, #104]
   8244c:	290f1493 	stp	w19, w5, [x4, #120]
   82450:	3800145f 	strb	wzr, [x2], #1
   82454:	eb02007f 	cmp	x3, x2
   82458:	54ffffc1 	b.ne	82450 <privilege_task_create+0xe0>  // b.any
   8245c:	f9401020 	ldr	x0, [x1, #32]
   82460:	d374cd42 	lsl	x2, x10, #12
   82464:	91400401 	add	x1, x0, #0x1, lsl #12
   82468:	8b000040 	add	x0, x2, x0
   8246c:	8b020021 	add	x1, x1, x2
   82470:	3800141f 	strb	wzr, [x0], #1
   82474:	eb01001f 	cmp	x0, x1
   82478:	54ffffc1 	b.ne	82470 <privilege_task_create+0x100>  // b.any
   8247c:	f9401962 	ldr	x2, [x11, #48]
   82480:	8b0710e7 	add	x7, x7, x7, lsl #4
   82484:	f0000000 	adrp	x0, 85000 <zombieReaper_pcb>
   82488:	12800004 	mov	w4, #0xffffffff            	// #-1
   8248c:	52800023 	mov	w3, #0x1                   	// #1
   82490:	2a1303e1 	mov	w1, w19
   82494:	8b070c42 	add	x2, x2, x7, lsl #3
   82498:	f9401400 	ldr	x0, [x0, #40]
   8249c:	29100c44 	stp	w4, w3, [x2, #128]
   824a0:	97ffff66 	bl	82238 <enQueue>
   824a4:	2a1303e0 	mov	w0, w19
   824a8:	f9400bf3 	ldr	x19, [sp, #16]
   824ac:	a8c27bfd 	ldp	x29, x30, [sp], #32
   824b0:	d65f03c0 	ret
   824b4:	f0000002 	adrp	x2, 85000 <zombieReaper_pcb>
   824b8:	12800013 	mov	w19, #0xffffffff            	// #-1
   824bc:	92800007 	mov	x7, #0xffffffffffffffff    	// #-1
   824c0:	f9402c4d 	ldr	x13, [x2, #88]
   824c4:	17ffffc5 	b	823d8 <privilege_task_create+0x68>
   824c8:	f0000001 	adrp	x1, 85000 <zombieReaper_pcb>
   824cc:	12800005 	mov	w5, #0xffffffff            	// #-1
   824d0:	9280000a 	mov	x10, #0xffffffffffffffff    	// #-1
   824d4:	f940102c 	ldr	x12, [x1, #32]
   824d8:	17ffffd0 	b	82418 <privilege_task_create+0xa8>
   824dc:	2a0303f3 	mov	w19, w3
   824e0:	17fffff1 	b	824a4 <privilege_task_create+0x134>
   824e4:	2a0603f3 	mov	w19, w6
   824e8:	17ffffef 	b	824a4 <privilege_task_create+0x134>
   824ec:	d503201f 	nop

00000000000824f0 <do_exec>:
   824f0:	a9be7bfd 	stp	x29, x30, [sp, #-32]!
   824f4:	910003fd 	mov	x29, sp
   824f8:	f9000bf3 	str	x19, [sp, #16]
   824fc:	aa0003f3 	mov	x19, x0
   82500:	97fffe71 	bl	81ec4 <get_cur_task>
   82504:	f0000004 	adrp	x4, 85000 <zombieReaper_pcb>
   82508:	f0000003 	adrp	x3, 85000 <zombieReaper_pcb>
   8250c:	694f0402 	ldpsw	x2, x1, [x0, #120]
   82510:	f9402c84 	ldr	x4, [x4, #88]
   82514:	f9401063 	ldr	x3, [x3, #32]
   82518:	91000442 	add	x2, x2, #0x1
   8251c:	91000421 	add	x1, x1, #0x1
   82520:	8b023082 	add	x2, x4, x2, lsl #12
   82524:	a9058813 	stp	x19, x2, [x0, #88]
   82528:	8b013061 	add	x1, x3, x1, lsl #12
   8252c:	a906cc01 	stp	x1, x19, [x0, #104]
   82530:	d5184033 	msr	elr_el1, x19
   82534:	d5184101 	msr	sp_el0, x1
   82538:	d69f03e0 	eret
   8253c:	f9400bf3 	ldr	x19, [sp, #16]
   82540:	a8c27bfd 	ldp	x29, x30, [sp], #32
   82544:	d65f03c0 	ret

0000000000082548 <context_switch>:
   82548:	a9be7bfd 	stp	x29, x30, [sp, #-32]!
   8254c:	910003fd 	mov	x29, sp
   82550:	a90153f3 	stp	x19, x20, [sp, #16]
   82554:	2a0003f3 	mov	w19, w0
   82558:	97fffe5b 	bl	81ec4 <get_cur_task>
   8255c:	aa0003f4 	mov	x20, x0
   82560:	b9408400 	ldr	w0, [x0, #132]
   82564:	7100041f 	cmp	w0, #0x1
   82568:	54000180 	b.eq	82598 <context_switch+0x50>  // b.none
   8256c:	f0000001 	adrp	x1, 85000 <zombieReaper_pcb>
   82570:	52801100 	mov	w0, #0x88                  	// #136
   82574:	f9401821 	ldr	x1, [x1, #48]
   82578:	9b200673 	smaddl	x19, w19, w0, x1
   8257c:	aa1303e0 	mov	x0, x19
   82580:	97fffe53 	bl	81ecc <set_cur_task>
   82584:	aa1303e1 	mov	x1, x19
   82588:	aa1403e0 	mov	x0, x20
   8258c:	a94153f3 	ldp	x19, x20, [sp, #16]
   82590:	a8c27bfd 	ldp	x29, x30, [sp], #32
   82594:	17fffe3b 	b	81e80 <switch_to>
   82598:	f0000000 	adrp	x0, 85000 <zombieReaper_pcb>
   8259c:	b9407a81 	ldr	w1, [x20, #120]
   825a0:	f9401400 	ldr	x0, [x0, #40]
   825a4:	97ffff25 	bl	82238 <enQueue>
   825a8:	17fffff1 	b	8256c <context_switch+0x24>
   825ac:	d503201f 	nop

00000000000825b0 <schedule.part.0>:
   825b0:	a9bf7bfd 	stp	x29, x30, [sp, #-16]!
   825b4:	f0000000 	adrp	x0, 85000 <zombieReaper_pcb>
   825b8:	f0000001 	adrp	x1, 85000 <zombieReaper_pcb>
   825bc:	910003fd 	mov	x29, sp
   825c0:	f9401400 	ldr	x0, [x0, #40]
   825c4:	b900903f 	str	wzr, [x1, #144]
   825c8:	97ffff30 	bl	82288 <deQueue>
   825cc:	a8c17bfd 	ldp	x29, x30, [sp], #16
   825d0:	17ffffde 	b	82548 <context_switch>
   825d4:	d503201f 	nop

00000000000825d8 <schedule>:
   825d8:	f0000000 	adrp	x0, 85000 <zombieReaper_pcb>
   825dc:	b9409000 	ldr	w0, [x0, #144]
   825e0:	35000040 	cbnz	w0, 825e8 <schedule+0x10>
   825e4:	d65f03c0 	ret
   825e8:	17fffff2 	b	825b0 <schedule.part.0>
   825ec:	d503201f 	nop

00000000000825f0 <idle>:
   825f0:	a9be7bfd 	stp	x29, x30, [sp, #-32]!
   825f4:	910003fd 	mov	x29, sp
   825f8:	a90153f3 	stp	x19, x20, [sp, #16]
   825fc:	f0000013 	adrp	x19, 85000 <zombieReaper_pcb>
   82600:	d0000014 	adrp	x20, 84000 <dynamic_allocator_init+0x68>
   82604:	9107a294 	add	x20, x20, #0x1e8
   82608:	f9401673 	ldr	x19, [x19, #40]
   8260c:	d503201f 	nop
   82610:	aa1303e0 	mov	x0, x19
   82614:	97ffff1d 	bl	82288 <deQueue>
   82618:	11000401 	add	w1, w0, #0x1
   8261c:	7100043f 	cmp	w1, #0x1
   82620:	540000e9 	b.ls	8263c <idle+0x4c>  // b.plast
   82624:	97ffffc9 	bl	82548 <context_switch>
   82628:	aa1303e0 	mov	x0, x19
   8262c:	97ffff17 	bl	82288 <deQueue>
   82630:	11000401 	add	w1, w0, #0x1
   82634:	7100043f 	cmp	w1, #0x1
   82638:	54ffff68 	b.hi	82624 <idle+0x34>  // b.pmore
   8263c:	aa1403e0 	mov	x0, x20
   82640:	97fffe98 	bl	820a0 <uart_puts>
   82644:	97fffdeb 	bl	81df0 <sleep>
   82648:	17fffff2 	b	82610 <idle+0x20>
   8264c:	d503201f 	nop

0000000000082650 <kernel_routine_entry>:
   82650:	a9bf7bfd 	stp	x29, x30, [sp, #-16]!
   82654:	910003fd 	mov	x29, sp
   82658:	97fffe1b 	bl	81ec4 <get_cur_task>
   8265c:	9101a001 	add	x1, x0, #0x68
   82660:	a8c17bfd 	ldp	x29, x30, [sp], #16
   82664:	9101c000 	add	x0, x0, #0x70
   82668:	17fffe20 	b	81ee8 <store_umode_lr_sp>
   8266c:	d503201f 	nop

0000000000082670 <kernel_routine_exit>:
   82670:	a9bf7bfd 	stp	x29, x30, [sp, #-16]!
   82674:	910003fd 	mov	x29, sp
   82678:	97fffe13 	bl	81ec4 <get_cur_task>
   8267c:	a8c17bfd 	ldp	x29, x30, [sp], #16
   82680:	a9468001 	ldp	x1, x0, [x0, #104]
   82684:	17fffe1e 	b	81efc <restore_umode_lr_sp>

0000000000082688 <leave_fork>:
   82688:	a9bf7bfd 	stp	x29, x30, [sp, #-16]!
   8268c:	910003fd 	mov	x29, sp
   82690:	97fffff8 	bl	82670 <kernel_routine_exit>
   82694:	a8c17bfd 	ldp	x29, x30, [sp], #16
   82698:	17fffe1c 	b	81f08 <restore_all_reg>
   8269c:	d503201f 	nop

00000000000826a0 <do_fork>:
   826a0:	a9be7bfd 	stp	x29, x30, [sp, #-32]!
   826a4:	910003fd 	mov	x29, sp
   826a8:	f9000bf3 	str	x19, [sp, #16]
   826ac:	97fffe06 	bl	81ec4 <get_cur_task>
   826b0:	aa0003f3 	mov	x19, x0
   826b4:	90000000 	adrp	x0, 82000 <uart_init+0xb0>
   826b8:	911a2000 	add	x0, x0, #0x688
   826bc:	97ffff2d 	bl	82370 <privilege_task_create>
   826c0:	f000000e 	adrp	x14, 85000 <zombieReaper_pcb>
   826c4:	93407c00 	sxtw	x0, w0
   826c8:	b9807e67 	ldrsw	x7, [x19, #124]
   826cc:	f0000009 	adrp	x9, 85000 <zombieReaper_pcb>
   826d0:	f94019c1 	ldr	x1, [x14, #48]
   826d4:	8b001002 	add	x2, x0, x0, lsl #4
   826d8:	b9407a64 	ldr	w4, [x19, #120]
   826dc:	f000000c 	adrp	x12, 85000 <zombieReaper_pcb>
   826e0:	f940326d 	ldr	x13, [x19, #96]
   826e4:	d374ccf0 	lsl	x16, x7, #12
   826e8:	8b020c22 	add	x2, x1, x2, lsl #3
   826ec:	f9401123 	ldr	x3, [x9, #32]
   826f0:	93407c84 	sxtw	x4, w4
   826f4:	f9402d81 	ldr	x1, [x12, #88]
   826f8:	f85e81af 	ldur	x15, [x13, #-24]
   826fc:	8b03020b 	add	x11, x16, x3
   82700:	b9807c46 	ldrsw	x6, [x2, #124]
   82704:	d374cc88 	lsl	x8, x4, #12
   82708:	4b0b01e2 	sub	w2, w15, w11
   8270c:	91400425 	add	x5, x1, #0x1, lsl #12
   82710:	8b01010a 	add	x10, x8, x1
   82714:	8b0800a5 	add	x5, x5, x8
   82718:	d374ccc6 	lsl	x6, x6, #12
   8271c:	aa0a03e1 	mov	x1, x10
   82720:	8b22c0c2 	add	x2, x6, w2, sxtw
   82724:	cb0433e4 	neg	x4, x4, lsl #12
   82728:	d374cc08 	lsl	x8, x0, #12
   8272c:	8b030042 	add	x2, x2, x3
   82730:	f81001bf 	stur	xzr, [x13, #-256]
   82734:	f81e81a2 	stur	x2, [x13, #-24]
   82738:	8b040022 	add	x2, x1, x4
   8273c:	39400023 	ldrb	w3, [x1]
   82740:	91000421 	add	x1, x1, #0x1
   82744:	eb05003f 	cmp	x1, x5
   82748:	38286843 	strb	w3, [x2, x8]
   8274c:	54ffff61 	b.ne	82738 <do_fork+0x98>  // b.any
   82750:	f9401124 	ldr	x4, [x9, #32]
   82754:	aa0b03e1 	mov	x1, x11
   82758:	cb0733e5 	neg	x5, x7, lsl #12
   8275c:	91400484 	add	x4, x4, #0x1, lsl #12
   82760:	8b100084 	add	x4, x4, x16
   82764:	d503201f 	nop
   82768:	8b050022 	add	x2, x1, x5
   8276c:	39400023 	ldrb	w3, [x1]
   82770:	91000421 	add	x1, x1, #0x1
   82774:	eb04003f 	cmp	x1, x4
   82778:	38266843 	strb	w3, [x2, x6]
   8277c:	54ffff61 	b.ne	82768 <do_fork+0xc8>  // b.any
   82780:	f81001a0 	stur	x0, [x13, #-256]
   82784:	8b001000 	add	x0, x0, x0, lsl #4
   82788:	f81e81af 	stur	x15, [x13, #-24]
   8278c:	f94019ce 	ldr	x14, [x14, #48]
   82790:	a9460a61 	ldp	x1, x2, [x19, #96]
   82794:	8b000dc0 	add	x0, x14, x0, lsl #3
   82798:	f9401129 	ldr	x9, [x9, #32]
   8279c:	51040021 	sub	w1, w1, #0x100
   827a0:	4b0b0042 	sub	w2, w2, w11
   827a4:	4b0a0021 	sub	w1, w1, w10
   827a8:	f9402d8c 	ldr	x12, [x12, #88]
   827ac:	f9403a63 	ldr	x3, [x19, #112]
   827b0:	8b22c0c2 	add	x2, x6, w2, sxtw
   827b4:	8b21c101 	add	x1, x8, w1, sxtw
   827b8:	f9400bf3 	ldr	x19, [sp, #16]
   827bc:	8b090042 	add	x2, x2, x9
   827c0:	8b0c0021 	add	x1, x1, x12
   827c4:	a9060801 	stp	x1, x2, [x0, #96]
   827c8:	f9003803 	str	x3, [x0, #112]
   827cc:	a8c27bfd 	ldp	x29, x30, [sp], #32
   827d0:	d65f03c0 	ret
   827d4:	d503201f 	nop

00000000000827d8 <do_exit>:
   827d8:	a9be7bfd 	stp	x29, x30, [sp, #-32]!
   827dc:	910003fd 	mov	x29, sp
   827e0:	f9000bf3 	str	x19, [sp, #16]
   827e4:	2a0003f3 	mov	w19, w0
   827e8:	97fffdb7 	bl	81ec4 <get_cur_task>
   827ec:	f0000002 	adrp	x2, 85000 <zombieReaper_pcb>
   827f0:	f0000001 	adrp	x1, 85000 <zombieReaper_pcb>
   827f4:	91020021 	add	x1, x1, #0x80
   827f8:	52800063 	mov	w3, #0x3                   	// #3
   827fc:	f9400045 	ldr	x5, [x2]
   82800:	b9407c02 	ldr	w2, [x0, #124]
   82804:	f9400424 	ldr	x4, [x1, #8]
   82808:	29100c13 	stp	w19, w3, [x0, #128]
   8280c:	d2800023 	mov	x3, #0x1                   	// #1
   82810:	f9400bf3 	ldr	x19, [sp, #16]
   82814:	9ac22060 	lsl	x0, x3, x2
   82818:	b9001023 	str	w3, [x1, #16]
   8281c:	8a200080 	bic	x0, x4, x0
   82820:	b90084a3 	str	w3, [x5, #132]
   82824:	f9000420 	str	x0, [x1, #8]
   82828:	a8c27bfd 	ldp	x29, x30, [sp], #32
   8282c:	17ffff61 	b	825b0 <schedule.part.0>

0000000000082830 <zombieReaper>:
   82830:	a9bc7bfd 	stp	x29, x30, [sp, #-64]!
   82834:	910003fd 	mov	x29, sp
   82838:	a90153f3 	stp	x19, x20, [sp, #16]
   8283c:	f0000014 	adrp	x20, 85000 <zombieReaper_pcb>
   82840:	a9025bf5 	stp	x21, x22, [sp, #32]
   82844:	d2800033 	mov	x19, #0x1                   	// #1
   82848:	f9401a94 	ldr	x20, [x20, #48]
   8284c:	2a1303f6 	mov	w22, w19
   82850:	a90363f7 	stp	x23, x24, [sp, #48]
   82854:	52800055 	mov	w21, #0x2                   	// #2
   82858:	f0000017 	adrp	x23, 85000 <zombieReaper_pcb>
   8285c:	f0000018 	adrp	x24, 85000 <zombieReaper_pcb>
   82860:	f94042e3 	ldr	x3, [x23, #128]
   82864:	91021281 	add	x1, x20, #0x84
   82868:	52800005 	mov	w5, #0x0                   	// #0
   8286c:	52800000 	mov	w0, #0x0                   	// #0
   82870:	9ac02262 	lsl	x2, x19, x0
   82874:	11000400 	add	w0, w0, #0x1
   82878:	ea03005f 	tst	x2, x3
   8287c:	540000e0 	b.eq	82898 <zombieReaper+0x68>  // b.none
   82880:	b9400024 	ldr	w4, [x1]
   82884:	71000c9f 	cmp	w4, #0x3
   82888:	54000081 	b.ne	82898 <zombieReaper+0x68>  // b.any
   8288c:	8a220063 	bic	x3, x3, x2
   82890:	52800025 	mov	w5, #0x1                   	// #1
   82894:	d503201f 	nop
   82898:	91022021 	add	x1, x1, #0x88
   8289c:	7101001f 	cmp	w0, #0x40
   828a0:	54fffe81 	b.ne	82870 <zombieReaper+0x40>  // b.any
   828a4:	350000e5 	cbnz	w5, 828c0 <zombieReaper+0x90>
   828a8:	f9400301 	ldr	x1, [x24]
   828ac:	910202e0 	add	x0, x23, #0x80
   828b0:	b9008435 	str	w21, [x1, #132]
   828b4:	b9001016 	str	w22, [x0, #16]
   828b8:	97ffff3e 	bl	825b0 <schedule.part.0>
   828bc:	17ffffe9 	b	82860 <zombieReaper+0x30>
   828c0:	f90042e3 	str	x3, [x23, #128]
   828c4:	17fffff9 	b	828a8 <zombieReaper+0x78>

00000000000828c8 <main>:
   828c8:	a9be7bfd 	stp	x29, x30, [sp, #-32]!
   828cc:	910003fd 	mov	x29, sp
   828d0:	a90153f3 	stp	x19, x20, [sp, #16]
   828d4:	97fffd9f 	bl	81f50 <uart_init>
   828d8:	940001c6 	bl	82ff0 <buddy_init>
   828dc:	d0000000 	adrp	x0, 84000 <dynamic_allocator_init+0x68>
   828e0:	9107e000 	add	x0, x0, #0x1f8
   828e4:	97fffdef 	bl	820a0 <uart_puts>
   828e8:	52800400 	mov	w0, #0x20                  	// #32
   828ec:	940001d7 	bl	83048 <buddy_alloc>
   828f0:	528000e0 	mov	w0, #0x7                   	// #7
   828f4:	940001d5 	bl	83048 <buddy_alloc>
   828f8:	52800800 	mov	w0, #0x40                  	// #64
   828fc:	940001d3 	bl	83048 <buddy_alloc>
   82900:	52800700 	mov	w0, #0x38                  	// #56
   82904:	940001d1 	bl	83048 <buddy_alloc>
   82908:	9400029e 	bl	83380 <buddy_free>
   8290c:	52800700 	mov	w0, #0x38                  	// #56
   82910:	940001ce 	bl	83048 <buddy_alloc>
   82914:	d0000000 	adrp	x0, 84000 <dynamic_allocator_init+0x68>
   82918:	91094000 	add	x0, x0, #0x250
   8291c:	97fffde1 	bl	820a0 <uart_puts>
   82920:	940001b4 	bl	82ff0 <buddy_init>
   82924:	52800800 	mov	w0, #0x40                  	// #64
   82928:	94000502 	bl	83d30 <fix_allocator_init>
   8292c:	aa0003f3 	mov	x19, x0
   82930:	94000540 	bl	83e30 <fix_alloc>
   82934:	aa1303e0 	mov	x0, x19
   82938:	9400053e 	bl	83e30 <fix_alloc>
   8293c:	aa1303e0 	mov	x0, x19
   82940:	9400053c 	bl	83e30 <fix_alloc>
   82944:	aa0003e1 	mov	x1, x0
   82948:	aa1303e0 	mov	x0, x19
   8294c:	94000567 	bl	83ee8 <fix_free>
   82950:	aa1303e0 	mov	x0, x19
   82954:	94000537 	bl	83e30 <fix_alloc>
   82958:	d0000000 	adrp	x0, 84000 <dynamic_allocator_init+0x68>
   8295c:	910aa000 	add	x0, x0, #0x2a8
   82960:	97fffdd0 	bl	820a0 <uart_puts>
   82964:	940001a3 	bl	82ff0 <buddy_init>
   82968:	9400058c 	bl	83f98 <dynamic_allocator_init>
   8296c:	aa0003f3 	mov	x19, x0
   82970:	52800801 	mov	w1, #0x40                  	// #64
   82974:	940005a7 	bl	84010 <dynamic_alloc>
   82978:	52801001 	mov	w1, #0x80                  	// #128
   8297c:	aa1303e0 	mov	x0, x19
   82980:	940005a4 	bl	84010 <dynamic_alloc>
   82984:	aa0003e1 	mov	x1, x0
   82988:	aa1303e0 	mov	x0, x19
   8298c:	940005b9 	bl	84070 <dynamic_free>
   82990:	52801901 	mov	w1, #0xc8                  	// #200
   82994:	aa1303e0 	mov	x0, x19
   82998:	9400059e 	bl	84010 <dynamic_alloc>
   8299c:	52827101 	mov	w1, #0x1388                	// #5000
   829a0:	aa1303e0 	mov	x0, x19
   829a4:	9400059b 	bl	84010 <dynamic_alloc>
   829a8:	aa0003f4 	mov	x20, x0
   829ac:	aa0003e1 	mov	x1, x0
   829b0:	aa1303e0 	mov	x0, x19
   829b4:	940005af 	bl	84070 <dynamic_free>
   829b8:	3900029f 	strb	wzr, [x20]
   829bc:	a94153f3 	ldp	x19, x20, [sp, #16]
   829c0:	a8c27bfd 	ldp	x29, x30, [sp], #32
   829c4:	d65f03c0 	ret

00000000000829c8 <show_alloc_message>:
   829c8:	a9bc7bfd 	stp	x29, x30, [sp, #-64]!
   829cc:	910003fd 	mov	x29, sp
   829d0:	f9000bf3 	str	x19, [sp, #16]
   829d4:	910103b3 	add	x19, x29, #0x40
   829d8:	f90013a0 	str	x0, [x29, #32]
   829dc:	d0000000 	adrp	x0, 84000 <dynamic_allocator_init+0x68>
   829e0:	a9bf7e7f 	stp	xzr, xzr, [x19, #-16]!
   829e4:	910c2000 	add	x0, x0, #0x308
   829e8:	97fffdae 	bl	820a0 <uart_puts>
   829ec:	b98023a0 	ldrsw	x0, [x29, #32]
   829f0:	aa1303e1 	mov	x1, x19
   829f4:	940003fd 	bl	839e8 <ullToStr>
   829f8:	aa1303e0 	mov	x0, x19
   829fc:	97fffda9 	bl	820a0 <uart_puts>
   82a00:	d0000000 	adrp	x0, 84000 <dynamic_allocator_init+0x68>
   82a04:	910ce000 	add	x0, x0, #0x338
   82a08:	97fffda6 	bl	820a0 <uart_puts>
   82a0c:	b98027a0 	ldrsw	x0, [x29, #36]
   82a10:	aa1303e1 	mov	x1, x19
   82a14:	940003f5 	bl	839e8 <ullToStr>
   82a18:	aa1303e0 	mov	x0, x19
   82a1c:	97fffda1 	bl	820a0 <uart_puts>
   82a20:	d0000000 	adrp	x0, 84000 <dynamic_allocator_init+0x68>
   82a24:	910d0000 	add	x0, x0, #0x340
   82a28:	97fffd9e 	bl	820a0 <uart_puts>
   82a2c:	f9400bf3 	ldr	x19, [sp, #16]
   82a30:	a8c47bfd 	ldp	x29, x30, [sp], #64
   82a34:	d65f03c0 	ret

0000000000082a38 <show_free_message>:
   82a38:	a9bc7bfd 	stp	x29, x30, [sp, #-64]!
   82a3c:	910003fd 	mov	x29, sp
   82a40:	f9000bf3 	str	x19, [sp, #16]
   82a44:	910103b3 	add	x19, x29, #0x40
   82a48:	f90013a0 	str	x0, [x29, #32]
   82a4c:	d0000000 	adrp	x0, 84000 <dynamic_allocator_init+0x68>
   82a50:	a9bf7e7f 	stp	xzr, xzr, [x19, #-16]!
   82a54:	910d2000 	add	x0, x0, #0x348
   82a58:	97fffd92 	bl	820a0 <uart_puts>
   82a5c:	b98023a0 	ldrsw	x0, [x29, #32]
   82a60:	aa1303e1 	mov	x1, x19
   82a64:	940003e1 	bl	839e8 <ullToStr>
   82a68:	aa1303e0 	mov	x0, x19
   82a6c:	97fffd8d 	bl	820a0 <uart_puts>
   82a70:	d0000000 	adrp	x0, 84000 <dynamic_allocator_init+0x68>
   82a74:	910ce000 	add	x0, x0, #0x338
   82a78:	97fffd8a 	bl	820a0 <uart_puts>
   82a7c:	b98027a0 	ldrsw	x0, [x29, #36]
   82a80:	aa1303e1 	mov	x1, x19
   82a84:	940003d9 	bl	839e8 <ullToStr>
   82a88:	aa1303e0 	mov	x0, x19
   82a8c:	97fffd85 	bl	820a0 <uart_puts>
   82a90:	d0000000 	adrp	x0, 84000 <dynamic_allocator_init+0x68>
   82a94:	910d0000 	add	x0, x0, #0x340
   82a98:	97fffd82 	bl	820a0 <uart_puts>
   82a9c:	f9400bf3 	ldr	x19, [sp, #16]
   82aa0:	a8c47bfd 	ldp	x29, x30, [sp], #64
   82aa4:	d65f03c0 	ret

0000000000082aa8 <show_merge_message>:
   82aa8:	a9bb7bfd 	stp	x29, x30, [sp, #-80]!
   82aac:	910003fd 	mov	x29, sp
   82ab0:	a90153f3 	stp	x19, x20, [sp, #16]
   82ab4:	910143b3 	add	x19, x29, #0x50
   82ab8:	d0000014 	adrp	x20, 84000 <dynamic_allocator_init+0x68>
   82abc:	910ce294 	add	x20, x20, #0x338
   82ac0:	f90013a2 	str	x2, [x29, #32]
   82ac4:	a9bf7e7f 	stp	xzr, xzr, [x19, #-16]!
   82ac8:	f9001ba0 	str	x0, [x29, #48]
   82acc:	d0000000 	adrp	x0, 84000 <dynamic_allocator_init+0x68>
   82ad0:	910dc000 	add	x0, x0, #0x370
   82ad4:	97fffd73 	bl	820a0 <uart_puts>
   82ad8:	b98033a0 	ldrsw	x0, [x29, #48]
   82adc:	aa1303e1 	mov	x1, x19
   82ae0:	940003c2 	bl	839e8 <ullToStr>
   82ae4:	aa1303e0 	mov	x0, x19
   82ae8:	97fffd6e 	bl	820a0 <uart_puts>
   82aec:	aa1403e0 	mov	x0, x20
   82af0:	97fffd6c 	bl	820a0 <uart_puts>
   82af4:	b98037a0 	ldrsw	x0, [x29, #52]
   82af8:	aa1303e1 	mov	x1, x19
   82afc:	940003bb 	bl	839e8 <ullToStr>
   82b00:	aa1303e0 	mov	x0, x19
   82b04:	97fffd67 	bl	820a0 <uart_puts>
   82b08:	d0000000 	adrp	x0, 84000 <dynamic_allocator_init+0x68>
   82b0c:	910e4000 	add	x0, x0, #0x390
   82b10:	97fffd64 	bl	820a0 <uart_puts>
   82b14:	b98023a0 	ldrsw	x0, [x29, #32]
   82b18:	aa1303e1 	mov	x1, x19
   82b1c:	940003b3 	bl	839e8 <ullToStr>
   82b20:	aa1303e0 	mov	x0, x19
   82b24:	97fffd5f 	bl	820a0 <uart_puts>
   82b28:	aa1403e0 	mov	x0, x20
   82b2c:	97fffd5d 	bl	820a0 <uart_puts>
   82b30:	b98027a0 	ldrsw	x0, [x29, #36]
   82b34:	aa1303e1 	mov	x1, x19
   82b38:	940003ac 	bl	839e8 <ullToStr>
   82b3c:	aa1303e0 	mov	x0, x19
   82b40:	97fffd58 	bl	820a0 <uart_puts>
   82b44:	d0000000 	adrp	x0, 84000 <dynamic_allocator_init+0x68>
   82b48:	910d0000 	add	x0, x0, #0x340
   82b4c:	97fffd55 	bl	820a0 <uart_puts>
   82b50:	a94153f3 	ldp	x19, x20, [sp, #16]
   82b54:	a8c57bfd 	ldp	x29, x30, [sp], #80
   82b58:	d65f03c0 	ret
   82b5c:	d503201f 	nop

0000000000082b60 <allocated_list_push>:
   82b60:	a9bd7bfd 	stp	x29, x30, [sp, #-48]!
   82b64:	910003fd 	mov	x29, sp
   82b68:	f9000bf3 	str	x19, [sp, #16]
   82b6c:	f0000013 	adrp	x19, 85000 <zombieReaper_pcb>
   82b70:	b9002ba1 	str	w1, [x29, #40]
   82b74:	f9402a61 	ldr	x1, [x19, #80]
   82b78:	f90013a0 	str	x0, [x29, #32]
   82b7c:	52800000 	mov	w0, #0x0                   	// #0
   82b80:	b840c423 	ldr	w3, [x1], #12
   82b84:	7100807f 	cmp	w3, #0x20
   82b88:	540000a1 	b.ne	82b9c <allocated_list_push+0x3c>  // b.any
   82b8c:	1400001c 	b	82bfc <allocated_list_push+0x9c>
   82b90:	11000400 	add	w0, w0, #0x1
   82b94:	7100801f 	cmp	w0, #0x20
   82b98:	54000240 	b.eq	82be0 <allocated_list_push+0x80>  // b.none
   82b9c:	b9400022 	ldr	w2, [x1]
   82ba0:	91003021 	add	x1, x1, #0xc
   82ba4:	35ffff62 	cbnz	w2, 82b90 <allocated_list_push+0x30>
   82ba8:	93407c00 	sxtw	x0, w0
   82bac:	f9000fb4 	str	x20, [x29, #24]
   82bb0:	f9402a74 	ldr	x20, [x19, #80]
   82bb4:	52800024 	mov	w4, #0x1                   	// #1
   82bb8:	8b000402 	add	x2, x0, x0, lsl #1
   82bbc:	f94013a3 	ldr	x3, [x29, #32]
   82bc0:	d2800021 	mov	x1, #0x1                   	// #1
   82bc4:	8b020a82 	add	x2, x20, x2, lsl #2
   82bc8:	aa0303e0 	mov	x0, x3
   82bcc:	f8004043 	stur	x3, [x2, #4]
   82bd0:	b9000c44 	str	w4, [x2, #12]
   82bd4:	97ffff7d 	bl	829c8 <show_alloc_message>
   82bd8:	b9400283 	ldr	w3, [x20]
   82bdc:	f9400fb4 	ldr	x20, [x29, #24]
   82be0:	f9402a73 	ldr	x19, [x19, #80]
   82be4:	11000463 	add	w3, w3, #0x1
   82be8:	52800020 	mov	w0, #0x1                   	// #1
   82bec:	b9000263 	str	w3, [x19]
   82bf0:	f9400bf3 	ldr	x19, [sp, #16]
   82bf4:	a8c37bfd 	ldp	x29, x30, [sp], #48
   82bf8:	d65f03c0 	ret
   82bfc:	d0000000 	adrp	x0, 84000 <dynamic_allocator_init+0x68>
   82c00:	910e8000 	add	x0, x0, #0x3a0
   82c04:	97fffd27 	bl	820a0 <uart_puts>
   82c08:	f9400bf3 	ldr	x19, [sp, #16]
   82c0c:	52800000 	mov	w0, #0x0                   	// #0
   82c10:	a8c37bfd 	ldp	x29, x30, [sp], #48
   82c14:	d65f03c0 	ret

0000000000082c18 <allocated_list_pop>:
   82c18:	f0000005 	adrp	x5, 85000 <zombieReaper_pcb>
   82c1c:	d10043ff 	sub	sp, sp, #0x10
   82c20:	52800003 	mov	w3, #0x0                   	// #0
   82c24:	f94028a2 	ldr	x2, [x5, #80]
   82c28:	91001042 	add	x2, x2, #0x4
   82c2c:	14000005 	b	82c40 <allocated_list_pop+0x28>
   82c30:	11000463 	add	w3, w3, #0x1
   82c34:	91003042 	add	x2, x2, #0xc
   82c38:	7100807f 	cmp	w3, #0x20
   82c3c:	54000240 	b.eq	82c84 <allocated_list_pop+0x6c>  // b.none
   82c40:	b9400844 	ldr	w4, [x2, #8]
   82c44:	7100049f 	cmp	w4, #0x1
   82c48:	54ffff41 	b.ne	82c30 <allocated_list_pop+0x18>  // b.any
   82c4c:	b9400044 	ldr	w4, [x2]
   82c50:	6b00009f 	cmp	w4, w0
   82c54:	54fffee1 	b.ne	82c30 <allocated_list_pop+0x18>  // b.any
   82c58:	93407c60 	sxtw	x0, w3
   82c5c:	f94028a1 	ldr	x1, [x5, #80]
   82c60:	d2800082 	mov	x2, #0x4                   	// #4
   82c64:	52800184 	mov	w4, #0xc                   	// #12
   82c68:	8b000400 	add	x0, x0, x0, lsl #1
   82c6c:	9b240863 	smaddl	x3, w3, w4, x2
   82c70:	8b000820 	add	x0, x1, x0, lsl #2
   82c74:	8b010062 	add	x2, x3, x1
   82c78:	b9000c1f 	str	wzr, [x0, #12]
   82c7c:	b8616867 	ldr	w7, [x3, x1]
   82c80:	29408446 	ldp	w6, w1, [x2, #4]
   82c84:	d2800000 	mov	x0, #0x0                   	// #0
   82c88:	f94028a5 	ldr	x5, [x5, #80]
   82c8c:	b3407ce0 	bfxil	x0, x7, #0, #32
   82c90:	2a0103e1 	mov	w1, w1
   82c94:	b3607cc0 	bfi	x0, x6, #32, #32
   82c98:	b94000a2 	ldr	w2, [x5]
   82c9c:	51000442 	sub	w2, w2, #0x1
   82ca0:	b90000a2 	str	w2, [x5]
   82ca4:	910043ff 	add	sp, sp, #0x10
   82ca8:	d65f03c0 	ret
   82cac:	d503201f 	nop

0000000000082cb0 <buddy_list_pop>:
   82cb0:	29401804 	ldp	w4, w6, [x0]
   82cb4:	d10043ff 	sub	sp, sp, #0x10
   82cb8:	29410405 	ldp	w5, w1, [x0, #8]
   82cbc:	51000482 	sub	w2, w4, #0x1
   82cc0:	b9000002 	str	w2, [x0]
   82cc4:	340001e2 	cbz	w2, 82d00 <buddy_list_pop+0x50>
   82cc8:	91004002 	add	x2, x0, #0x10
   82ccc:	51000884 	sub	w4, w4, #0x2
   82cd0:	52800183 	mov	w3, #0xc                   	// #12
   82cd4:	91001000 	add	x0, x0, #0x4
   82cd8:	9ba30884 	umaddl	x4, w4, w3, x2
   82cdc:	d503201f 	nop
   82ce0:	f840c003 	ldur	x3, [x0, #12]
   82ce4:	91003002 	add	x2, x0, #0xc
   82ce8:	f9000003 	str	x3, [x0]
   82cec:	eb04005f 	cmp	x2, x4
   82cf0:	b9401403 	ldr	w3, [x0, #20]
   82cf4:	b9000803 	str	w3, [x0, #8]
   82cf8:	aa0203e0 	mov	x0, x2
   82cfc:	54ffff21 	b.ne	82ce0 <buddy_list_pop+0x30>  // b.any
   82d00:	d2800000 	mov	x0, #0x0                   	// #0
   82d04:	2a0103e1 	mov	w1, w1
   82d08:	b3407cc0 	bfxil	x0, x6, #0, #32
   82d0c:	b3607ca0 	bfi	x0, x5, #32, #32
   82d10:	910043ff 	add	sp, sp, #0x10
   82d14:	d65f03c0 	ret

0000000000082d18 <buddy_list_push>:
   82d18:	b9400004 	ldr	w4, [x0]
   82d1c:	2a0103e5 	mov	w5, w1
   82d20:	52800188 	mov	w8, #0xc                   	// #12
   82d24:	d360fc21 	lsr	x1, x1, #32
   82d28:	d2800087 	mov	x7, #0x4                   	// #4
   82d2c:	4b050022 	sub	w2, w1, w5
   82d30:	11000442 	add	w2, w2, #0x1
   82d34:	52800006 	mov	w6, #0x0                   	// #0
   82d38:	9b281c84 	smaddl	x4, w4, w8, x7
   82d3c:	d10043ff 	sub	sp, sp, #0x10
   82d40:	0b427c42 	add	w2, w2, w2, lsr #31
   82d44:	8b040003 	add	x3, x0, x4
   82d48:	0b8204a2 	add	w2, w5, w2, asr #1
   82d4c:	b8246805 	str	w5, [x0, x4]
   82d50:	51000449 	sub	w9, w2, #0x1
   82d54:	29009869 	stp	w9, w6, [x3, #4]
   82d58:	b9400003 	ldr	w3, [x0]
   82d5c:	11000463 	add	w3, w3, #0x1
   82d60:	b9000003 	str	w3, [x0]
   82d64:	9b281c63 	smaddl	x3, w3, w8, x7
   82d68:	8b030004 	add	x4, x0, x3
   82d6c:	b8236802 	str	w2, [x0, x3]
   82d70:	29009881 	stp	w1, w6, [x4, #4]
   82d74:	b9400001 	ldr	w1, [x0]
   82d78:	11000421 	add	w1, w1, #0x1
   82d7c:	b9000001 	str	w1, [x0]
   82d80:	910043ff 	add	sp, sp, #0x10
   82d84:	d65f03c0 	ret

0000000000082d88 <is_power_of_2>:
   82d88:	51000401 	sub	w1, w0, #0x1
   82d8c:	6a00003f 	tst	w1, w0
   82d90:	1a9f17e0 	cset	w0, eq  // eq = none
   82d94:	d65f03c0 	ret

0000000000082d98 <next_power_of_2>:
   82d98:	51000400 	sub	w0, w0, #0x1
   82d9c:	2a800400 	orr	w0, w0, w0, asr #1
   82da0:	2a800800 	orr	w0, w0, w0, asr #2
   82da4:	2a801000 	orr	w0, w0, w0, asr #4
   82da8:	2a802000 	orr	w0, w0, w0, asr #8
   82dac:	2a804000 	orr	w0, w0, w0, asr #16
   82db0:	11000400 	add	w0, w0, #0x1
   82db4:	d65f03c0 	ret

0000000000082db8 <log_2>:
   82db8:	2a0003e2 	mov	w2, w0
   82dbc:	7100041f 	cmp	w0, #0x1
   82dc0:	54000160 	b.eq	82dec <log_2+0x34>  // b.none
   82dc4:	52800020 	mov	w0, #0x1                   	// #1
   82dc8:	52800041 	mov	w1, #0x2                   	// #2
   82dcc:	14000005 	b	82de0 <log_2+0x28>
   82dd0:	11000400 	add	w0, w0, #0x1
   82dd4:	531f7821 	lsl	w1, w1, #1
   82dd8:	71004c1f 	cmp	w0, #0x13
   82ddc:	54000060 	b.eq	82de8 <log_2+0x30>  // b.none
   82de0:	6b01005f 	cmp	w2, w1
   82de4:	54ffff61 	b.ne	82dd0 <log_2+0x18>  // b.any
   82de8:	d65f03c0 	ret
   82dec:	52800000 	mov	w0, #0x0                   	// #0
   82df0:	d65f03c0 	ret
   82df4:	d503201f 	nop

0000000000082df8 <buddy_merge>:
   82df8:	a9ba7bfd 	stp	x29, x30, [sp, #-96]!
   82dfc:	93407c0a 	sxtw	x10, w0
   82e00:	f0000008 	adrp	x8, 85000 <zombieReaper_pcb>
   82e04:	910003fd 	mov	x29, sp
   82e08:	f9402506 	ldr	x6, [x8, #72]
   82e0c:	f9000ff4 	str	x20, [sp, #24]
   82e10:	b9004ba2 	str	w2, [x29, #72]
   82e14:	8b0a0542 	add	x2, x10, x10, lsl #1
   82e18:	f90023a1 	str	x1, [x29, #64]
   82e1c:	8b021142 	add	x2, x10, x2, lsl #4
   82e20:	d37ef442 	lsl	x2, x2, #2
   82e24:	b86268d4 	ldr	w20, [x6, x2]
   82e28:	7100029f 	cmp	w20, #0x0
   82e2c:	5400034d 	b.le	82e94 <buddy_merge+0x9c>
   82e30:	8b0200c2 	add	x2, x6, x2
   82e34:	2a0103e7 	mov	w7, w1
   82e38:	d360fc21 	lsr	x1, x1, #32
   82e3c:	29409045 	ldp	w5, w4, [x2, #4]
   82e40:	11000482 	add	w2, w4, #0x1
   82e44:	6b0200ff 	cmp	w7, w2
   82e48:	54000bc0 	b.eq	82fc0 <buddy_merge+0x1c8>  // b.none
   82e4c:	11000429 	add	w9, w1, #0x1
   82e50:	6b0900bf 	cmp	w5, w9
   82e54:	54000c00 	b.eq	82fd4 <buddy_merge+0x1dc>  // b.none
   82e58:	52801882 	mov	w2, #0xc4                  	// #196
   82e5c:	52800003 	mov	w3, #0x0                   	// #0
   82e60:	9b221802 	smaddl	x2, w0, w2, x6
   82e64:	91004042 	add	x2, x2, #0x10
   82e68:	14000008 	b	82e88 <buddy_merge+0x90>
   82e6c:	29401045 	ldp	w5, w4, [x2]
   82e70:	91003042 	add	x2, x2, #0xc
   82e74:	11000486 	add	w6, w4, #0x1
   82e78:	6b0700df 	cmp	w6, w7
   82e7c:	540002e0 	b.eq	82ed8 <buddy_merge+0xe0>  // b.none
   82e80:	6b0900bf 	cmp	w5, w9
   82e84:	540007c0 	b.eq	82f7c <buddy_merge+0x184>  // b.none
   82e88:	11000463 	add	w3, w3, #0x1
   82e8c:	6b03029f 	cmp	w20, w3
   82e90:	54fffee1 	b.ne	82e6c <buddy_merge+0x74>  // b.any
   82e94:	8b0a0541 	add	x1, x10, x10, lsl #1
   82e98:	93407e80 	sxtw	x0, w20
   82e9c:	f9402508 	ldr	x8, [x8, #72]
   82ea0:	11000694 	add	w20, w20, #0x1
   82ea4:	8b01114a 	add	x10, x10, x1, lsl #4
   82ea8:	8b000400 	add	x0, x0, x0, lsl #1
   82eac:	b9404ba1 	ldr	w1, [x29, #72]
   82eb0:	d37ef54a 	lsl	x10, x10, #2
   82eb4:	f94023a2 	ldr	x2, [x29, #64]
   82eb8:	8b000940 	add	x0, x10, x0, lsl #2
   82ebc:	8b000100 	add	x0, x8, x0
   82ec0:	b82a6914 	str	w20, [x8, x10]
   82ec4:	f9400ff4 	ldr	x20, [sp, #24]
   82ec8:	f8004002 	stur	x2, [x0, #4]
   82ecc:	b9000c01 	str	w1, [x0, #12]
   82ed0:	a8c67bfd 	ldp	x29, x30, [sp], #96
   82ed4:	d65f03c0 	ret
   82ed8:	f9000bb3 	str	x19, [x29, #16]
   82edc:	a9025bb5 	stp	x21, x22, [x29, #32]
   82ee0:	a90363b7 	stp	x23, x24, [x29, #48]
   82ee4:	290a07a5 	stp	w5, w1, [x29, #80]
   82ee8:	8b0a0556 	add	x22, x10, x10, lsl #1
   82eec:	93407c63 	sxtw	x3, w3
   82ef0:	f9402515 	ldr	x21, [x8, #72]
   82ef4:	2a0003f7 	mov	w23, w0
   82ef8:	8b16114a 	add	x10, x10, x22, lsl #4
   82efc:	8b030473 	add	x19, x3, x3, lsl #1
   82f00:	290807a7 	stp	w7, w1, [x29, #64]
   82f04:	d37ef556 	lsl	x22, x10, #2
   82f08:	b9404ba3 	ldr	w3, [x29, #72]
   82f0c:	8b130ad3 	add	x19, x22, x19, lsl #2
   82f10:	f94023a2 	ldr	x2, [x29, #64]
   82f14:	8b1302b3 	add	x19, x21, x19
   82f18:	91001278 	add	x24, x19, #0x4
   82f1c:	f8404260 	ldur	x0, [x19, #4]
   82f20:	b9400b01 	ldr	w1, [x24, #8]
   82f24:	97fffee1 	bl	82aa8 <show_merge_message>
   82f28:	7100069f 	cmp	w20, #0x1
   82f2c:	54000320 	b.eq	82f90 <buddy_merge+0x198>  // b.none
   82f30:	93407e94 	sxtw	x20, w20
   82f34:	b8766aa0 	ldr	w0, [x21, x22]
   82f38:	71004aff 	cmp	w23, #0x12
   82f3c:	8b140694 	add	x20, x20, x20, lsl #1
   82f40:	51000400 	sub	w0, w0, #0x1
   82f44:	b8366aa0 	str	w0, [x21, x22]
   82f48:	8b140ad4 	add	x20, x22, x20, lsl #2
   82f4c:	8b1402b4 	add	x20, x21, x20
   82f50:	f8404280 	ldur	x0, [x20, #4]
   82f54:	f8004260 	stur	x0, [x19, #4]
   82f58:	b9400e80 	ldr	w0, [x20, #12]
   82f5c:	b9000b00 	str	w0, [x24, #8]
   82f60:	540001e1 	b.ne	82f9c <buddy_merge+0x1a4>  // b.any
   82f64:	f9400bb3 	ldr	x19, [x29, #16]
   82f68:	a9425bb5 	ldp	x21, x22, [x29, #32]
   82f6c:	a94363b7 	ldp	x23, x24, [x29, #48]
   82f70:	f9400ff4 	ldr	x20, [sp, #24]
   82f74:	a8c67bfd 	ldp	x29, x30, [sp], #96
   82f78:	d65f03c0 	ret
   82f7c:	f9000bb3 	str	x19, [x29, #16]
   82f80:	a9025bb5 	stp	x21, x22, [x29, #32]
   82f84:	a90363b7 	stp	x23, x24, [x29, #48]
   82f88:	290a13a7 	stp	w7, w4, [x29, #80]
   82f8c:	17ffffd7 	b	82ee8 <buddy_merge+0xf0>
   82f90:	b8366abf 	str	wzr, [x21, x22]
   82f94:	71004aff 	cmp	w23, #0x12
   82f98:	54fffe60 	b.eq	82f64 <buddy_merge+0x16c>  // b.none
   82f9c:	a9425bb5 	ldp	x21, x22, [x29, #32]
   82fa0:	110006e0 	add	w0, w23, #0x1
   82fa4:	b9405ba2 	ldr	w2, [x29, #88]
   82fa8:	f9400bb3 	ldr	x19, [x29, #16]
   82fac:	a94363b7 	ldp	x23, x24, [x29, #48]
   82fb0:	f9402ba1 	ldr	x1, [x29, #80]
   82fb4:	f9400ff4 	ldr	x20, [sp, #24]
   82fb8:	a8c67bfd 	ldp	x29, x30, [sp], #96
   82fbc:	17ffff8f 	b	82df8 <buddy_merge>
   82fc0:	52800003 	mov	w3, #0x0                   	// #0
   82fc4:	f9000bb3 	str	x19, [x29, #16]
   82fc8:	a9025bb5 	stp	x21, x22, [x29, #32]
   82fcc:	a90363b7 	stp	x23, x24, [x29, #48]
   82fd0:	17ffffc5 	b	82ee4 <buddy_merge+0xec>
   82fd4:	a9025bb5 	stp	x21, x22, [x29, #32]
   82fd8:	52800003 	mov	w3, #0x0                   	// #0
   82fdc:	f9000bb3 	str	x19, [x29, #16]
   82fe0:	a90363b7 	stp	x23, x24, [x29, #48]
   82fe4:	290a13a7 	stp	w7, w4, [x29, #80]
   82fe8:	17ffffc0 	b	82ee8 <buddy_merge+0xf0>
   82fec:	d503201f 	nop

0000000000082ff0 <buddy_init>:
   82ff0:	f0000002 	adrp	x2, 85000 <zombieReaper_pcb>
   82ff4:	f9402440 	ldr	x0, [x2, #72]
   82ff8:	913a3001 	add	x1, x0, #0xe8c
   82ffc:	d503201f 	nop
   83000:	b80c441f 	str	wzr, [x0], #196
   83004:	eb01001f 	cmp	x0, x1
   83008:	54ffffc1 	b.ne	83000 <buddy_init+0x10>  // b.any
   8300c:	d0000000 	adrp	x0, 85000 <zombieReaper_pcb>
   83010:	f9402442 	ldr	x2, [x2, #72]
   83014:	b24047e3 	mov	x3, #0x3ffff               	// #262143
   83018:	d2800024 	mov	x4, #0x1                   	// #1
   8301c:	f9402800 	ldr	x0, [x0, #80]
   83020:	f2c00023 	movk	x3, #0x1, lsl #32
   83024:	91063001 	add	x1, x0, #0x18c
   83028:	f906e444 	str	x4, [x2, #3528]
   8302c:	f906e843 	str	x3, [x2, #3536]
   83030:	b800c41f 	str	wzr, [x0], #12
   83034:	d503201f 	nop
   83038:	b800c41f 	str	wzr, [x0], #12
   8303c:	eb01001f 	cmp	x0, x1
   83040:	54ffffc1 	b.ne	83038 <buddy_init+0x48>  // b.any
   83044:	d65f03c0 	ret

0000000000083048 <buddy_alloc>:
   83048:	a9bd7bfd 	stp	x29, x30, [sp, #-48]!
   8304c:	51000401 	sub	w1, w0, #0x1
   83050:	6a01001f 	tst	w0, w1
   83054:	910003fd 	mov	x29, sp
   83058:	f9000bf3 	str	x19, [sp, #16]
   8305c:	540000e0 	b.eq	83078 <buddy_alloc+0x30>  // b.none
   83060:	2a810420 	orr	w0, w1, w1, asr #1
   83064:	2a800800 	orr	w0, w0, w0, asr #2
   83068:	2a801000 	orr	w0, w0, w0, asr #4
   8306c:	2a802000 	orr	w0, w0, w0, asr #8
   83070:	2a804000 	orr	w0, w0, w0, asr #16
   83074:	11000400 	add	w0, w0, #0x1
   83078:	7100041f 	cmp	w0, #0x1
   8307c:	54001720 	b.eq	83360 <buddy_alloc+0x318>  // b.none
   83080:	52800022 	mov	w2, #0x1                   	// #1
   83084:	52800041 	mov	w1, #0x2                   	// #2
   83088:	14000005 	b	8309c <buddy_alloc+0x54>
   8308c:	11000442 	add	w2, w2, #0x1
   83090:	531f7821 	lsl	w1, w1, #1
   83094:	71004c5f 	cmp	w2, #0x13
   83098:	54000980 	b.eq	831c8 <buddy_alloc+0x180>  // b.none
   8309c:	6b01001f 	cmp	w0, w1
   830a0:	54ffff61 	b.ne	8308c <buddy_alloc+0x44>  // b.any
   830a4:	93407c41 	sxtw	x1, w2
   830a8:	d0000009 	adrp	x9, 85000 <zombieReaper_pcb>
   830ac:	8b010423 	add	x3, x1, x1, lsl #1
   830b0:	f9402520 	ldr	x0, [x9, #72]
   830b4:	8b031023 	add	x3, x1, x3, lsl #4
   830b8:	b8637803 	ldr	w3, [x0, x3, lsl #2]
   830bc:	7100007f 	cmp	w3, #0x0
   830c0:	540003cc 	b.gt	83138 <buddy_alloc+0xf0>
   830c4:	11000440 	add	w0, w2, #0x1
   830c8:	71004c1f 	cmp	w0, #0x13
   830cc:	54000260 	b.eq	83118 <buddy_alloc+0xd0>  // b.none
   830d0:	93407c01 	sxtw	x1, w0
   830d4:	f9402525 	ldr	x5, [x9, #72]
   830d8:	8b010423 	add	x3, x1, x1, lsl #1
   830dc:	8b031023 	add	x3, x1, x3, lsl #4
   830e0:	b86378a3 	ldr	w3, [x5, x3, lsl #2]
   830e4:	7100007f 	cmp	w3, #0x0
   830e8:	5400084c 	b.gt	831f0 <buddy_alloc+0x1a8>
   830ec:	11000401 	add	w1, w0, #0x1
   830f0:	52801884 	mov	w4, #0xc4                  	// #196
   830f4:	9b241424 	smaddl	x4, w1, w4, x5
   830f8:	14000005 	b	8310c <buddy_alloc+0xc4>
   830fc:	b84c4483 	ldr	w3, [x4], #196
   83100:	11000421 	add	w1, w1, #0x1
   83104:	7100007f 	cmp	w3, #0x0
   83108:	5400128c 	b.gt	83358 <buddy_alloc+0x310>
   8310c:	2a0103e0 	mov	w0, w1
   83110:	71004c3f 	cmp	w1, #0x13
   83114:	54ffff41 	b.ne	830fc <buddy_alloc+0xb4>  // b.any
   83118:	12800013 	mov	w19, #0xffffffff            	// #-1
   8311c:	b0000000 	adrp	x0, 84000 <dynamic_allocator_init+0x68>
   83120:	910ee000 	add	x0, x0, #0x3b8
   83124:	97fffbdf 	bl	820a0 <uart_puts>
   83128:	2a1303e0 	mov	w0, w19
   8312c:	f9400bf3 	ldr	x19, [sp, #16]
   83130:	a8c37bfd 	ldp	x29, x30, [sp], #48
   83134:	d65f03c0 	ret
   83138:	52801884 	mov	w4, #0xc4                  	// #196
   8313c:	9b240044 	smaddl	x4, w2, w4, x0
   83140:	8b010425 	add	x5, x1, x1, lsl #1
   83144:	f9402526 	ldr	x6, [x9, #72]
   83148:	51000460 	sub	w0, w3, #0x1
   8314c:	8b051021 	add	x1, x1, x5, lsl #4
   83150:	b9400c85 	ldr	w5, [x4, #12]
   83154:	29409c93 	ldp	w19, w7, [x4, #4]
   83158:	b82178c0 	str	w0, [x6, x1, lsl #2]
   8315c:	34000260 	cbz	w0, 831a8 <buddy_alloc+0x160>
   83160:	52801880 	mov	w0, #0xc4                  	// #196
   83164:	51000863 	sub	w3, w3, #0x2
   83168:	52800184 	mov	w4, #0xc                   	// #12
   8316c:	910040c1 	add	x1, x6, #0x10
   83170:	9b207c40 	smull	x0, w2, w0
   83174:	9ba40063 	umaddl	x3, w3, w4, x0
   83178:	91001000 	add	x0, x0, #0x4
   8317c:	8b060000 	add	x0, x0, x6
   83180:	8b010063 	add	x3, x3, x1
   83184:	d503201f 	nop
   83188:	f840c004 	ldur	x4, [x0, #12]
   8318c:	91003002 	add	x2, x0, #0xc
   83190:	f9000004 	str	x4, [x0]
   83194:	eb02007f 	cmp	x3, x2
   83198:	b9401404 	ldr	w4, [x0, #20]
   8319c:	b9000804 	str	w4, [x0, #8]
   831a0:	aa0203e0 	mov	x0, x2
   831a4:	54ffff21 	b.ne	83188 <buddy_alloc+0x140>  // b.any
   831a8:	29041fb3 	stp	w19, w7, [x29, #32]
   831ac:	2a0503e1 	mov	w1, w5
   831b0:	f94013a0 	ldr	x0, [x29, #32]
   831b4:	97fffe6b 	bl	82b60 <allocated_list_push>
   831b8:	2a1303e0 	mov	w0, w19
   831bc:	f9400bf3 	ldr	x19, [sp, #16]
   831c0:	a8c37bfd 	ldp	x29, x30, [sp], #48
   831c4:	d65f03c0 	ret
   831c8:	d0000009 	adrp	x9, 85000 <zombieReaper_pcb>
   831cc:	d2800261 	mov	x1, #0x13                  	// #19
   831d0:	f9402520 	ldr	x0, [x9, #72]
   831d4:	913a3004 	add	x4, x0, #0xe8c
   831d8:	b94e8c03 	ldr	w3, [x0, #3724]
   831dc:	7100007f 	cmp	w3, #0x0
   831e0:	54fffb0c 	b.gt	83140 <buddy_alloc+0xf8>
   831e4:	b94f5003 	ldr	w3, [x0, #3920]
   831e8:	d2800281 	mov	x1, #0x14                  	// #20
   831ec:	52800280 	mov	w0, #0x14                  	// #20
   831f0:	52801886 	mov	w6, #0xc4                  	// #196
   831f4:	f9402525 	ldr	x5, [x9, #72]
   831f8:	8b010428 	add	x8, x1, x1, lsl #1
   831fc:	51000464 	sub	w4, w3, #0x1
   83200:	9b267c06 	smull	x6, w0, w6
   83204:	8b081028 	add	x8, x1, x8, lsl #4
   83208:	8b0500c1 	add	x1, x6, x5
   8320c:	29409c33 	ldp	w19, w7, [x1, #4]
   83210:	b9400c21 	ldr	w1, [x1, #12]
   83214:	b82878a4 	str	w4, [x5, x8, lsl #2]
   83218:	34000204 	cbz	w4, 83258 <buddy_alloc+0x210>
   8321c:	51000864 	sub	w4, w3, #0x2
   83220:	5280018a 	mov	w10, #0xc                   	// #12
   83224:	910010c3 	add	x3, x6, #0x4
   83228:	910040a8 	add	x8, x5, #0x10
   8322c:	8b050063 	add	x3, x3, x5
   83230:	9baa1884 	umaddl	x4, w4, w10, x6
   83234:	8b080084 	add	x4, x4, x8
   83238:	f840c068 	ldur	x8, [x3, #12]
   8323c:	91003065 	add	x5, x3, #0xc
   83240:	f9000068 	str	x8, [x3]
   83244:	eb0400bf 	cmp	x5, x4
   83248:	b9401468 	ldr	w8, [x3, #20]
   8324c:	b9000868 	str	w8, [x3, #8]
   83250:	aa0503e3 	mov	x3, x5
   83254:	54ffff21 	b.ne	83238 <buddy_alloc+0x1f0>  // b.any
   83258:	51000403 	sub	w3, w0, #0x1
   8325c:	6b02007f 	cmp	w3, w2
   83260:	540006cb 	b.lt	83338 <buddy_alloc+0x2f0>  // b.tstop
   83264:	93407c61 	sxtw	x1, w3
   83268:	4b020060 	sub	w0, w3, w2
   8326c:	cb000020 	sub	x0, x1, x0
   83270:	f9402529 	ldr	x9, [x9, #72]
   83274:	d10300c5 	sub	x5, x6, #0xc0
   83278:	d10310c6 	sub	x6, x6, #0xc4
   8327c:	8b00040b 	add	x11, x0, x0, lsl #1
   83280:	d1030121 	sub	x1, x9, #0xc0
   83284:	aa0903e8 	mov	x8, x9
   83288:	8b0900a5 	add	x5, x5, x9
   8328c:	8b0b1000 	add	x0, x0, x11, lsl #4
   83290:	9100412c 	add	x12, x9, #0x10
   83294:	5280018a 	mov	w10, #0xc                   	// #12
   83298:	8b00082b 	add	x11, x1, x0, lsl #2
   8329c:	d503201f 	nop
   832a0:	b85fc0a2 	ldur	w2, [x5, #-4]
   832a4:	910010c4 	add	x4, x6, #0x4
   832a8:	4b1300e0 	sub	w0, w7, w19
   832ac:	52800003 	mov	w3, #0x0                   	// #0
   832b0:	11000400 	add	w0, w0, #0x1
   832b4:	9b2a1042 	smaddl	x2, w2, w10, x4
   832b8:	0b407c00 	add	w0, w0, w0, lsr #31
   832bc:	8b080041 	add	x1, x2, x8
   832c0:	0b800660 	add	w0, w19, w0, asr #1
   832c4:	51000409 	sub	w9, w0, #0x1
   832c8:	b8286853 	str	w19, [x2, x8]
   832cc:	29008c29 	stp	w9, w3, [x1, #4]
   832d0:	b85fc0a1 	ldur	w1, [x5, #-4]
   832d4:	11000421 	add	w1, w1, #0x1
   832d8:	b81fc0a1 	stur	w1, [x5, #-4]
   832dc:	9b2a1021 	smaddl	x1, w1, w10, x4
   832e0:	8b080022 	add	x2, x1, x8
   832e4:	b8286820 	str	w0, [x1, x8]
   832e8:	29008c47 	stp	w7, w3, [x2, #4]
   832ec:	297fcca0 	ldp	w0, w19, [x5, #-4]
   832f0:	294084a7 	ldp	w7, w1, [x5, #4]
   832f4:	340001a0 	cbz	w0, 83328 <buddy_alloc+0x2e0>
   832f8:	51000403 	sub	w3, w0, #0x1
   832fc:	aa0503e0 	mov	x0, x5
   83300:	9baa1863 	umaddl	x3, w3, w10, x6
   83304:	8b0c0063 	add	x3, x3, x12
   83308:	f840c004 	ldur	x4, [x0, #12]
   8330c:	91003002 	add	x2, x0, #0xc
   83310:	f9000004 	str	x4, [x0]
   83314:	eb03005f 	cmp	x2, x3
   83318:	b9401404 	ldr	w4, [x0, #20]
   8331c:	b9000804 	str	w4, [x0, #8]
   83320:	aa0203e0 	mov	x0, x2
   83324:	54ffff21 	b.ne	83308 <buddy_alloc+0x2c0>  // b.any
   83328:	d10310a5 	sub	x5, x5, #0xc4
   8332c:	d10310c6 	sub	x6, x6, #0xc4
   83330:	eb0b00bf 	cmp	x5, x11
   83334:	54fffb61 	b.ne	832a0 <buddy_alloc+0x258>  // b.any
   83338:	29041fb3 	stp	w19, w7, [x29, #32]
   8333c:	2a0103e1 	mov	w1, w1
   83340:	f94013a0 	ldr	x0, [x29, #32]
   83344:	97fffe07 	bl	82b60 <allocated_list_push>
   83348:	2a1303e0 	mov	w0, w19
   8334c:	f9400bf3 	ldr	x19, [sp, #16]
   83350:	a8c37bfd 	ldp	x29, x30, [sp], #48
   83354:	d65f03c0 	ret
   83358:	93407c01 	sxtw	x1, w0
   8335c:	17ffffa5 	b	831f0 <buddy_alloc+0x1a8>
   83360:	d0000009 	adrp	x9, 85000 <zombieReaper_pcb>
   83364:	52800002 	mov	w2, #0x0                   	// #0
   83368:	d2800001 	mov	x1, #0x0                   	// #0
   8336c:	f9402524 	ldr	x4, [x9, #72]
   83370:	b9400083 	ldr	w3, [x4]
   83374:	7100007f 	cmp	w3, #0x0
   83378:	54ffee4c 	b.gt	83140 <buddy_alloc+0xf8>
   8337c:	17ffff55 	b	830d0 <buddy_alloc+0x88>

0000000000083380 <buddy_free>:
   83380:	a9be7bfd 	stp	x29, x30, [sp, #-32]!
   83384:	910003fd 	mov	x29, sp
   83388:	97fffe24 	bl	82c18 <allocated_list_pop>
   8338c:	2a0103e1 	mov	w1, w1
   83390:	b90013a0 	str	w0, [x29, #16]
   83394:	d360fc00 	lsr	x0, x0, #32
   83398:	b90017a0 	str	w0, [x29, #20]
   8339c:	f9400ba0 	ldr	x0, [x29, #16]
   833a0:	97fffda6 	bl	82a38 <show_free_message>
   833a4:	294203a1 	ldp	w1, w0, [x29, #16]
   833a8:	4b010000 	sub	w0, w0, w1
   833ac:	340001e0 	cbz	w0, 833e8 <buddy_free+0x68>
   833b0:	11000402 	add	w2, w0, #0x1
   833b4:	52800041 	mov	w1, #0x2                   	// #2
   833b8:	52800020 	mov	w0, #0x1                   	// #1
   833bc:	14000005 	b	833d0 <buddy_free+0x50>
   833c0:	11000400 	add	w0, w0, #0x1
   833c4:	531f7821 	lsl	w1, w1, #1
   833c8:	71004c1f 	cmp	w0, #0x13
   833cc:	54000060 	b.eq	833d8 <buddy_free+0x58>  // b.none
   833d0:	6b01005f 	cmp	w2, w1
   833d4:	54ffff61 	b.ne	833c0 <buddy_free+0x40>  // b.any
   833d8:	f9400ba1 	ldr	x1, [x29, #16]
   833dc:	a8c27bfd 	ldp	x29, x30, [sp], #32
   833e0:	d2800002 	mov	x2, #0x0                   	// #0
   833e4:	17fffe85 	b	82df8 <buddy_merge>
   833e8:	52800000 	mov	w0, #0x0                   	// #0
   833ec:	17fffffb 	b	833d8 <buddy_free+0x58>

00000000000833f0 <get_currentEL>:
   833f0:	d5384240 	mrs	x0, currentel
   833f4:	927e0400 	and	x0, x0, #0xc
   833f8:	13027c00 	asr	w0, w0, #2
   833fc:	d65f03c0 	ret

0000000000083400 <show_currentEL>:
   83400:	a9be7bfd 	stp	x29, x30, [sp, #-32]!
   83404:	910003fd 	mov	x29, sp
   83408:	f9000bf3 	str	x19, [sp, #16]
   8340c:	d5384253 	mrs	x19, currentel
   83410:	927e0673 	and	x19, x19, #0xc
   83414:	b0000000 	adrp	x0, 84000 <dynamic_allocator_init+0x68>
   83418:	910f6000 	add	x0, x0, #0x3d8
   8341c:	97fffb21 	bl	820a0 <uart_puts>
   83420:	13027e60 	asr	w0, w19, #2
   83424:	97fffb37 	bl	82100 <uart_hex>
   83428:	f9400bf3 	ldr	x19, [sp, #16]
   8342c:	b0000000 	adrp	x0, 84000 <dynamic_allocator_init+0x68>
   83430:	a8c27bfd 	ldp	x29, x30, [sp], #32
   83434:	91078000 	add	x0, x0, #0x1e0
   83438:	17fffb1a 	b	820a0 <uart_puts>
   8343c:	d503201f 	nop

0000000000083440 <show_esr_elr>:
   83440:	a9be7bfd 	stp	x29, x30, [sp, #-32]!
   83444:	910003fd 	mov	x29, sp
   83448:	a90153f3 	stp	x19, x20, [sp, #16]
   8344c:	aa0103f3 	mov	x19, x1
   83450:	aa0003f4 	mov	x20, x0
   83454:	b0000000 	adrp	x0, 84000 <dynamic_allocator_init+0x68>
   83458:	910fa000 	add	x0, x0, #0x3e8
   8345c:	97fffb11 	bl	820a0 <uart_puts>
   83460:	b0000000 	adrp	x0, 84000 <dynamic_allocator_init+0x68>
   83464:	91104000 	add	x0, x0, #0x410
   83468:	97fffb0e 	bl	820a0 <uart_puts>
   8346c:	2a1303e0 	mov	w0, w19
   83470:	b0000013 	adrp	x19, 84000 <dynamic_allocator_init+0x68>
   83474:	97fffb23 	bl	82100 <uart_hex>
   83478:	91078273 	add	x19, x19, #0x1e0
   8347c:	aa1303e0 	mov	x0, x19
   83480:	97fffb08 	bl	820a0 <uart_puts>
   83484:	b0000000 	adrp	x0, 84000 <dynamic_allocator_init+0x68>
   83488:	9110c000 	add	x0, x0, #0x430
   8348c:	97fffb05 	bl	820a0 <uart_puts>
   83490:	d35ae680 	ubfx	x0, x20, #26, #32
   83494:	97fffb1b 	bl	82100 <uart_hex>
   83498:	aa1303e0 	mov	x0, x19
   8349c:	97fffb01 	bl	820a0 <uart_puts>
   834a0:	b0000000 	adrp	x0, 84000 <dynamic_allocator_init+0x68>
   834a4:	91112000 	add	x0, x0, #0x448
   834a8:	97fffafe 	bl	820a0 <uart_puts>
   834ac:	12006280 	and	w0, w20, #0x1ffffff
   834b0:	97fffb14 	bl	82100 <uart_hex>
   834b4:	aa1303e0 	mov	x0, x19
   834b8:	a94153f3 	ldp	x19, x20, [sp, #16]
   834bc:	a8c27bfd 	ldp	x29, x30, [sp], #32
   834c0:	17fffaf8 	b	820a0 <uart_puts>
   834c4:	d503201f 	nop

00000000000834c8 <sys_uart_read>:
   834c8:	a9bd7bfd 	stp	x29, x30, [sp, #-48]!
   834cc:	910003fd 	mov	x29, sp
   834d0:	a901d7f4 	stp	x20, x21, [sp, #24]
   834d4:	a944d414 	ldp	x20, x21, [x0, #72]
   834d8:	710002bf 	cmp	w21, #0x0
   834dc:	540001ad 	b.le	83510 <sys_uart_read+0x48>
   834e0:	510006b5 	sub	w21, w21, #0x1
   834e4:	f9000bb3 	str	x19, [x29, #16]
   834e8:	91000693 	add	x19, x20, #0x1
   834ec:	8b150275 	add	x21, x19, x21
   834f0:	14000002 	b	834f8 <sys_uart_read+0x30>
   834f4:	91000673 	add	x19, x19, #0x1
   834f8:	97fffadc 	bl	82068 <uart_getc>
   834fc:	39000280 	strb	w0, [x20]
   83500:	eb15027f 	cmp	x19, x21
   83504:	aa1303f4 	mov	x20, x19
   83508:	54ffff61 	b.ne	834f4 <sys_uart_read+0x2c>  // b.any
   8350c:	f9400bb3 	ldr	x19, [x29, #16]
   83510:	a941d7f4 	ldp	x20, x21, [sp, #24]
   83514:	a8c37bfd 	ldp	x29, x30, [sp], #48
   83518:	d65f03c0 	ret
   8351c:	d503201f 	nop

0000000000083520 <sysCall_handler_el0>:
   83520:	a9bd7bfd 	stp	x29, x30, [sp, #-48]!
   83524:	910003fd 	mov	x29, sp
   83528:	f9000bf3 	str	x19, [sp, #16]
   8352c:	97fffa66 	bl	81ec4 <get_cur_task>
   83530:	f9403001 	ldr	x1, [x0, #96]
   83534:	f8540033 	ldur	x19, [x1, #-192]
   83538:	f1000e7f 	cmp	x19, #0x3
   8353c:	54000620 	b.eq	83600 <sysCall_handler_el0+0xe0>  // b.none
   83540:	54000169 	b.ls	8356c <sysCall_handler_el0+0x4c>  // b.plast
   83544:	f100167f 	cmp	x19, #0x5
   83548:	54000360 	b.eq	835b4 <sysCall_handler_el0+0x94>  // b.none
   8354c:	54000203 	b.cc	8358c <sysCall_handler_el0+0x6c>  // b.lo, b.ul, b.last
   83550:	f1001a7f 	cmp	x19, #0x6
   83554:	54000381 	b.ne	835c4 <sysCall_handler_el0+0xa4>  // b.any
   83558:	b8548020 	ldur	w0, [x1, #-184]
   8355c:	97fffc9f 	bl	827d8 <do_exit>
   83560:	f9400bf3 	ldr	x19, [sp, #16]
   83564:	a8c37bfd 	ldp	x29, x30, [sp], #48
   83568:	17fffc42 	b	82670 <kernel_routine_exit>
   8356c:	f100067f 	cmp	x19, #0x1
   83570:	54000400 	b.eq	835f0 <sysCall_handler_el0+0xd0>  // b.none
   83574:	54000168 	b.hi	835a0 <sysCall_handler_el0+0x80>  // b.pmore
   83578:	b9807800 	ldrsw	x0, [x0, #120]
   8357c:	f8100020 	stur	x0, [x1, #-256]
   83580:	f9400bf3 	ldr	x19, [sp, #16]
   83584:	a8c37bfd 	ldp	x29, x30, [sp], #48
   83588:	17fffc3a 	b	82670 <kernel_routine_exit>
   8358c:	f8548020 	ldur	x0, [x1, #-184]
   83590:	97fffbd8 	bl	824f0 <do_exec>
   83594:	f9400bf3 	ldr	x19, [sp, #16]
   83598:	a8c37bfd 	ldp	x29, x30, [sp], #48
   8359c:	17fffc35 	b	82670 <kernel_routine_exit>
   835a0:	f8548020 	ldur	x0, [x1, #-184]
   835a4:	97fffabf 	bl	820a0 <uart_puts>
   835a8:	f9400bf3 	ldr	x19, [sp, #16]
   835ac:	a8c37bfd 	ldp	x29, x30, [sp], #48
   835b0:	17fffc30 	b	82670 <kernel_routine_exit>
   835b4:	97fffc3b 	bl	826a0 <do_fork>
   835b8:	f9400bf3 	ldr	x19, [sp, #16]
   835bc:	a8c37bfd 	ldp	x29, x30, [sp], #48
   835c0:	17fffc2c 	b	82670 <kernel_routine_exit>
   835c4:	b0000000 	adrp	x0, 84000 <dynamic_allocator_init+0x68>
   835c8:	9111c000 	add	x0, x0, #0x470
   835cc:	97fffab5 	bl	820a0 <uart_puts>
   835d0:	2a1303e0 	mov	w0, w19
   835d4:	97fffacb 	bl	82100 <uart_hex>
   835d8:	b0000000 	adrp	x0, 84000 <dynamic_allocator_init+0x68>
   835dc:	91120000 	add	x0, x0, #0x480
   835e0:	97fffab0 	bl	820a0 <uart_puts>
   835e4:	f9400bf3 	ldr	x19, [sp, #16]
   835e8:	a8c37bfd 	ldp	x29, x30, [sp], #48
   835ec:	17fffc21 	b	82670 <kernel_routine_exit>
   835f0:	97fffbfa 	bl	825d8 <schedule>
   835f4:	f9400bf3 	ldr	x19, [sp, #16]
   835f8:	a8c37bfd 	ldp	x29, x30, [sp], #48
   835fc:	17fffc1d 	b	82670 <kernel_routine_exit>
   83600:	a901d7b4 	stp	x20, x21, [x29, #24]
   83604:	a974d434 	ldp	x20, x21, [x1, #-184]
   83608:	710002bf 	cmp	w21, #0x0
   8360c:	5400016d 	b.le	83638 <sysCall_handler_el0+0x118>
   83610:	91000693 	add	x19, x20, #0x1
   83614:	510006b5 	sub	w21, w21, #0x1
   83618:	8b150275 	add	x21, x19, x21
   8361c:	14000002 	b	83624 <sysCall_handler_el0+0x104>
   83620:	91000673 	add	x19, x19, #0x1
   83624:	97fffa91 	bl	82068 <uart_getc>
   83628:	39000280 	strb	w0, [x20]
   8362c:	eb15027f 	cmp	x19, x21
   83630:	aa1303f4 	mov	x20, x19
   83634:	54ffff61 	b.ne	83620 <sysCall_handler_el0+0x100>  // b.any
   83638:	a941d7b4 	ldp	x20, x21, [x29, #24]
   8363c:	f9400bf3 	ldr	x19, [sp, #16]
   83640:	a8c37bfd 	ldp	x29, x30, [sp], #48
   83644:	17fffc0b 	b	82670 <kernel_routine_exit>

0000000000083648 <sync_exc0_handler>:
   83648:	a9be7bfd 	stp	x29, x30, [sp, #-32]!
   8364c:	910003fd 	mov	x29, sp
   83650:	910043a0 	add	x0, x29, #0x10
   83654:	910063a1 	add	x1, x29, #0x18
   83658:	97fff9dc 	bl	81dc8 <get_sync_exc_param_el1>
   8365c:	f9400ba0 	ldr	x0, [x29, #16]
   83660:	d35afc00 	lsr	x0, x0, #26
   83664:	f100541f 	cmp	x0, #0x15
   83668:	54000100 	b.eq	83688 <sync_exc0_handler+0x40>  // b.none
   8366c:	b0000000 	adrp	x0, 84000 <dynamic_allocator_init+0x68>
   83670:	91124000 	add	x0, x0, #0x490
   83674:	97fffa8b 	bl	820a0 <uart_puts>
   83678:	a94107a0 	ldp	x0, x1, [x29, #16]
   8367c:	97ffff71 	bl	83440 <show_esr_elr>
   83680:	a8c27bfd 	ldp	x29, x30, [sp], #32
   83684:	d65f03c0 	ret
   83688:	97fffbf2 	bl	82650 <kernel_routine_entry>
   8368c:	f9400ba0 	ldr	x0, [x29, #16]
   83690:	f240601f 	tst	x0, #0x1ffffff
   83694:	54ffff61 	b.ne	83680 <sync_exc0_handler+0x38>  // b.any
   83698:	97ffffa2 	bl	83520 <sysCall_handler_el0>
   8369c:	a8c27bfd 	ldp	x29, x30, [sp], #32
   836a0:	d65f03c0 	ret
   836a4:	d503201f 	nop

00000000000836a8 <sync_exc1_handler>:
   836a8:	a9be7bfd 	stp	x29, x30, [sp, #-32]!
   836ac:	910003fd 	mov	x29, sp
   836b0:	97ffff54 	bl	83400 <show_currentEL>
   836b4:	910063a1 	add	x1, x29, #0x18
   836b8:	910043a0 	add	x0, x29, #0x10
   836bc:	97fff9c3 	bl	81dc8 <get_sync_exc_param_el1>
   836c0:	b0000000 	adrp	x0, 84000 <dynamic_allocator_init+0x68>
   836c4:	9112a000 	add	x0, x0, #0x4a8
   836c8:	97fffa76 	bl	820a0 <uart_puts>
   836cc:	a94107a0 	ldp	x0, x1, [x29, #16]
   836d0:	97ffff5c 	bl	83440 <show_esr_elr>
   836d4:	a8c27bfd 	ldp	x29, x30, [sp], #32
   836d8:	d65f03c0 	ret
   836dc:	d503201f 	nop

00000000000836e0 <sync_exc2_handler>:
   836e0:	a9be7bfd 	stp	x29, x30, [sp, #-32]!
   836e4:	910003fd 	mov	x29, sp
   836e8:	97ffff46 	bl	83400 <show_currentEL>
   836ec:	910063a1 	add	x1, x29, #0x18
   836f0:	910043a0 	add	x0, x29, #0x10
   836f4:	97fff9ba 	bl	81ddc <get_sync_exc_param_el2>
   836f8:	a94107a0 	ldp	x0, x1, [x29, #16]
   836fc:	97ffff51 	bl	83440 <show_esr_elr>
   83700:	a8c27bfd 	ldp	x29, x30, [sp], #32
   83704:	d65f03c0 	ret

0000000000083708 <irq_exc_handler>:
   83708:	d2800c00 	mov	x0, #0x60                  	// #96
   8370c:	f2a80000 	movk	x0, #0x4000, lsl #16
   83710:	b9400000 	ldr	w0, [x0]
   83714:	37080080 	tbnz	w0, #1, 83724 <irq_exc_handler+0x1c>
   83718:	b0000000 	adrp	x0, 84000 <dynamic_allocator_init+0x68>
   8371c:	91130000 	add	x0, x0, #0x4c0
   83720:	17fffa60 	b	820a0 <uart_puts>
   83724:	a9bf7bfd 	stp	x29, x30, [sp, #-16]!
   83728:	910003fd 	mov	x29, sp
   8372c:	94000279 	bl	84110 <core_timer_handler>
   83730:	d0000000 	adrp	x0, 85000 <zombieReaper_pcb>
   83734:	52800021 	mov	w1, #0x1                   	// #1
   83738:	f9402000 	ldr	x0, [x0, #64]
   8373c:	b9000001 	str	w1, [x0]
   83740:	a8c17bfd 	ldp	x29, x30, [sp], #16
   83744:	17fffba5 	b	825d8 <schedule>

0000000000083748 <SError_handler>:
   83748:	b0000000 	adrp	x0, 84000 <dynamic_allocator_init+0x68>
   8374c:	91136000 	add	x0, x0, #0x4d8
   83750:	17fffa54 	b	820a0 <uart_puts>
   83754:	00000000 	.inst	0x00000000 ; undefined

0000000000083758 <ullToStr.part.0>:
   83758:	b40003e0 	cbz	x0, 837d4 <ullToStr.part.0+0x7c>
   8375c:	b202e7e8 	mov	x8, #0xcccccccccccccccc    	// #-3689348814741910324
   83760:	aa0103e5 	mov	x5, x1
   83764:	aa0103e6 	mov	x6, x1
   83768:	52800004 	mov	w4, #0x0                   	// #0
   8376c:	f29999a8 	movk	x8, #0xcccd
   83770:	14000002 	b	83778 <ullToStr.part.0+0x20>
   83774:	2a0703e4 	mov	w4, w7
   83778:	9bc87c03 	umulh	x3, x0, x8
   8377c:	11000487 	add	w7, w4, #0x1
   83780:	d343fc63 	lsr	x3, x3, #3
   83784:	8b030862 	add	x2, x3, x3, lsl #2
   83788:	cb020402 	sub	x2, x0, x2, lsl #1
   8378c:	aa0303e0 	mov	x0, x3
   83790:	1100c042 	add	w2, w2, #0x30
   83794:	380014c2 	strb	w2, [x6], #1
   83798:	b5fffee3 	cbnz	x3, 83774 <ullToStr.part.0+0x1c>
   8379c:	3827c83f 	strb	wzr, [x1, w7, sxtw]
   837a0:	34000184 	cbz	w4, 837d0 <ullToStr.part.0+0x78>
   837a4:	51000480 	sub	w0, w4, #0x1
   837a8:	91000421 	add	x1, x1, #0x1
   837ac:	93407c00 	sxtw	x0, w0
   837b0:	38606822 	ldrb	w2, [x1, x0]
   837b4:	394000a3 	ldrb	w3, [x5]
   837b8:	380014a2 	strb	w2, [x5], #1
   837bc:	4b000082 	sub	w2, w4, w0
   837c0:	38206823 	strb	w3, [x1, x0]
   837c4:	6b02001f 	cmp	w0, w2
   837c8:	d1000400 	sub	x0, x0, #0x1
   837cc:	54ffff2c 	b.gt	837b0 <ullToStr.part.0+0x58>
   837d0:	d65f03c0 	ret
   837d4:	3900003f 	strb	wzr, [x1]
   837d8:	d65f03c0 	ret
   837dc:	d503201f 	nop

00000000000837e0 <printASCII>:
   837e0:	a9bd7bfd 	stp	x29, x30, [sp, #-48]!
   837e4:	910003fd 	mov	x29, sp
   837e8:	a90153f3 	stp	x19, x20, [sp, #16]
   837ec:	5290a3f4 	mov	w20, #0x851f                	// #34079
   837f0:	f90013f5 	str	x21, [sp, #32]
   837f4:	12001c15 	and	w21, w0, #0xff
   837f8:	72aa3d74 	movk	w20, #0x51eb, lsl #16
   837fc:	52800140 	mov	w0, #0xa                   	// #10
   83800:	97fffa10 	bl	82040 <uart_send>
   83804:	529999b3 	mov	w19, #0xcccd                	// #52429
   83808:	9bb47eb4 	umull	x20, w21, w20
   8380c:	72b99993 	movk	w19, #0xcccc, lsl #16
   83810:	d365fe94 	lsr	x20, x20, #37
   83814:	1100c280 	add	w0, w20, #0x30
   83818:	97fffa0a 	bl	82040 <uart_send>
   8381c:	52800c80 	mov	w0, #0x64                  	// #100
   83820:	1b00d694 	msub	w20, w20, w0, w21
   83824:	9bb37e93 	umull	x19, w20, w19
   83828:	d363fe73 	lsr	x19, x19, #35
   8382c:	1100c260 	add	w0, w19, #0x30
   83830:	97fffa04 	bl	82040 <uart_send>
   83834:	0b130a73 	add	w19, w19, w19, lsl #2
   83838:	4b130680 	sub	w0, w20, w19, lsl #1
   8383c:	1100c000 	add	w0, w0, #0x30
   83840:	97fffa00 	bl	82040 <uart_send>
   83844:	a94153f3 	ldp	x19, x20, [sp, #16]
   83848:	52800140 	mov	w0, #0xa                   	// #10
   8384c:	f94013f5 	ldr	x21, [sp, #32]
   83850:	a8c37bfd 	ldp	x29, x30, [sp], #48
   83854:	17fff9fb 	b	82040 <uart_send>

0000000000083858 <strlen>:
   83858:	39400001 	ldrb	w1, [x0]
   8385c:	34000101 	cbz	w1, 8387c <strlen+0x24>
   83860:	52800001 	mov	w1, #0x0                   	// #0
   83864:	d503201f 	nop
   83868:	38401c02 	ldrb	w2, [x0, #1]!
   8386c:	11000421 	add	w1, w1, #0x1
   83870:	35ffffc2 	cbnz	w2, 83868 <strlen+0x10>
   83874:	2a0103e0 	mov	w0, w1
   83878:	d65f03c0 	ret
   8387c:	52800001 	mov	w1, #0x0                   	// #0
   83880:	2a0103e0 	mov	w0, w1
   83884:	d65f03c0 	ret

0000000000083888 <strAppend>:
   83888:	39400002 	ldrb	w2, [x0]
   8388c:	34000322 	cbz	w2, 838f0 <strAppend+0x68>
   83890:	aa0003e3 	mov	x3, x0
   83894:	52800002 	mov	w2, #0x0                   	// #0
   83898:	38401c64 	ldrb	w4, [x3, #1]!
   8389c:	11000442 	add	w2, w2, #0x1
   838a0:	35ffffc4 	cbnz	w4, 83898 <strAppend+0x10>
   838a4:	39400025 	ldrb	w5, [x1]
   838a8:	340002a5 	cbz	w5, 838fc <strAppend+0x74>
   838ac:	aa0103e3 	mov	x3, x1
   838b0:	52800004 	mov	w4, #0x0                   	// #0
   838b4:	d503201f 	nop
   838b8:	38401c66 	ldrb	w6, [x3, #1]!
   838bc:	11000484 	add	w4, w4, #0x1
   838c0:	35ffffc6 	cbnz	w6, 838b8 <strAppend+0x30>
   838c4:	0b020086 	add	w6, w4, w2
   838c8:	8b22c003 	add	x3, x0, w2, sxtw
   838cc:	d2800002 	mov	x2, #0x0                   	// #0
   838d0:	14000002 	b	838d8 <strAppend+0x50>
   838d4:	38626825 	ldrb	w5, [x1, x2]
   838d8:	38226865 	strb	w5, [x3, x2]
   838dc:	91000442 	add	x2, x2, #0x1
   838e0:	6b02009f 	cmp	w4, w2
   838e4:	54ffff8c 	b.gt	838d4 <strAppend+0x4c>
   838e8:	3826c81f 	strb	wzr, [x0, w6, sxtw]
   838ec:	d65f03c0 	ret
   838f0:	39400025 	ldrb	w5, [x1]
   838f4:	52800002 	mov	w2, #0x0                   	// #0
   838f8:	35fffda5 	cbnz	w5, 838ac <strAppend+0x24>
   838fc:	2a0203e6 	mov	w6, w2
   83900:	3826c81f 	strb	wzr, [x0, w6, sxtw]
   83904:	d65f03c0 	ret

0000000000083908 <strcmp>:
   83908:	39400007 	ldrb	w7, [x0]
   8390c:	39400026 	ldrb	w6, [x1]
   83910:	34000247 	cbz	w7, 83958 <strcmp+0x50>
   83914:	aa0003e3 	mov	x3, x0
   83918:	52800002 	mov	w2, #0x0                   	// #0
   8391c:	d503201f 	nop
   83920:	38401c64 	ldrb	w4, [x3, #1]!
   83924:	11000442 	add	w2, w2, #0x1
   83928:	35ffffc4 	cbnz	w4, 83920 <strcmp+0x18>
   8392c:	34000366 	cbz	w6, 83998 <strcmp+0x90>
   83930:	aa0103e4 	mov	x4, x1
   83934:	52800003 	mov	w3, #0x0                   	// #0
   83938:	38401c85 	ldrb	w5, [x4, #1]!
   8393c:	11000463 	add	w3, w3, #0x1
   83940:	35ffffc5 	cbnz	w5, 83938 <strcmp+0x30>
   83944:	52800004 	mov	w4, #0x0                   	// #0
   83948:	6b02007f 	cmp	w3, w2
   8394c:	540000e0 	b.eq	83968 <strcmp+0x60>  // b.none
   83950:	2a0403e0 	mov	w0, w4
   83954:	d65f03c0 	ret
   83958:	52800002 	mov	w2, #0x0                   	// #0
   8395c:	35fffea6 	cbnz	w6, 83930 <strcmp+0x28>
   83960:	2a0603e2 	mov	w2, w6
   83964:	d503201f 	nop
   83968:	d2800003 	mov	x3, #0x0                   	// #0
   8396c:	14000003 	b	83978 <strcmp+0x70>
   83970:	38636807 	ldrb	w7, [x0, x3]
   83974:	38636826 	ldrb	w6, [x1, x3]
   83978:	91000463 	add	x3, x3, #0x1
   8397c:	6b0700df 	cmp	w6, w7
   83980:	540000c1 	b.ne	83998 <strcmp+0x90>  // b.any
   83984:	6b03005f 	cmp	w2, w3
   83988:	54ffff4a 	b.ge	83970 <strcmp+0x68>  // b.tcont
   8398c:	52800024 	mov	w4, #0x1                   	// #1
   83990:	2a0403e0 	mov	w0, w4
   83994:	d65f03c0 	ret
   83998:	52800004 	mov	w4, #0x0                   	// #0
   8399c:	2a0403e0 	mov	w0, w4
   839a0:	d65f03c0 	ret
   839a4:	d503201f 	nop

00000000000839a8 <strReverse>:
   839a8:	7100003f 	cmp	w1, #0x0
   839ac:	540001ad 	b.le	839e0 <strReverse+0x38>
   839b0:	51000422 	sub	w2, w1, #0x1
   839b4:	91000403 	add	x3, x0, #0x1
   839b8:	93407c42 	sxtw	x2, w2
   839bc:	d503201f 	nop
   839c0:	38626864 	ldrb	w4, [x3, x2]
   839c4:	39400005 	ldrb	w5, [x0]
   839c8:	38001404 	strb	w4, [x0], #1
   839cc:	4b020024 	sub	w4, w1, w2
   839d0:	38226865 	strb	w5, [x3, x2]
   839d4:	6b04005f 	cmp	w2, w4
   839d8:	d1000442 	sub	x2, x2, #0x1
   839dc:	54ffff2c 	b.gt	839c0 <strReverse+0x18>
   839e0:	d65f03c0 	ret
   839e4:	d503201f 	nop

00000000000839e8 <ullToStr>:
   839e8:	b4000040 	cbz	x0, 839f0 <ullToStr+0x8>
   839ec:	17ffff5b 	b	83758 <ullToStr.part.0>
   839f0:	52800600 	mov	w0, #0x30                  	// #48
   839f4:	79000020 	strh	w0, [x1]
   839f8:	d65f03c0 	ret
   839fc:	d503201f 	nop

0000000000083a00 <ullToStr_hex>:
   83a00:	aa0103e5 	mov	x5, x1
   83a04:	52800783 	mov	w3, #0x3c                  	// #60
   83a08:	528006e7 	mov	w7, #0x37                  	// #55
   83a0c:	52800606 	mov	w6, #0x30                  	// #48
   83a10:	9ac32402 	lsr	x2, x0, x3
   83a14:	12000c42 	and	w2, w2, #0xf
   83a18:	7100245f 	cmp	w2, #0x9
   83a1c:	51001063 	sub	w3, w3, #0x4
   83a20:	1a8680e4 	csel	w4, w7, w6, hi  // hi = pmore
   83a24:	3100107f 	cmn	w3, #0x4
   83a28:	0b020082 	add	w2, w4, w2
   83a2c:	380014a2 	strb	w2, [x5], #1
   83a30:	54ffff01 	b.ne	83a10 <ullToStr_hex+0x10>  // b.any
   83a34:	3900403f 	strb	wzr, [x1, #16]
   83a38:	d65f03c0 	ret
   83a3c:	d503201f 	nop

0000000000083a40 <cntTimeStamp>:
   83a40:	9ac00826 	udiv	x6, x1, x0
   83a44:	a9b67bfd 	stp	x29, x30, [sp, #-160]!
   83a48:	aa0203ea 	mov	x10, x2
   83a4c:	910003fd 	mov	x29, sp
   83a50:	1b068401 	msub	w1, w0, w6, w1
   83a54:	34000aa1 	cbz	w1, 83ba8 <cntTimeStamp+0x168>
   83a58:	2a0003e2 	mov	w2, w0
   83a5c:	52800003 	mov	w3, #0x0                   	// #0
   83a60:	52800145 	mov	w5, #0xa                   	// #10
   83a64:	d503201f 	nop
   83a68:	0b010821 	add	w1, w1, w1, lsl #2
   83a6c:	0b030863 	add	w3, w3, w3, lsl #2
   83a70:	510004a5 	sub	w5, w5, #0x1
   83a74:	531f7824 	lsl	w4, w1, #1
   83a78:	aa0403e1 	mov	x1, x4
   83a7c:	9ac00884 	udiv	x4, x4, x0
   83a80:	1b048441 	msub	w1, w2, w4, w1
   83a84:	0b030483 	add	w3, w4, w3, lsl #1
   83a88:	7100003f 	cmp	w1, #0x0
   83a8c:	7a4018a4 	ccmp	w5, #0x0, #0x4, ne  // ne = any
   83a90:	54fffec1 	b.ne	83a68 <cntTimeStamp+0x28>  // b.any
   83a94:	93407c69 	sxtw	x9, w3
   83a98:	b5000666 	cbnz	x6, 83b64 <cntTimeStamp+0x124>
   83a9c:	52800600 	mov	w0, #0x30                  	// #48
   83aa0:	790023a0 	strh	w0, [x29, #16]
   83aa4:	b5000689 	cbnz	x9, 83b74 <cntTimeStamp+0x134>
   83aa8:	394043a4 	ldrb	w4, [x29, #16]
   83aac:	52800600 	mov	w0, #0x30                  	// #48
   83ab0:	7900b3a0 	strh	w0, [x29, #88]
   83ab4:	340008c4 	cbz	w4, 83bcc <cntTimeStamp+0x18c>
   83ab8:	52800602 	mov	w2, #0x30                  	// #48
   83abc:	910047a0 	add	x0, x29, #0x11
   83ac0:	52800001 	mov	w1, #0x0                   	// #0
   83ac4:	d503201f 	nop
   83ac8:	38401403 	ldrb	w3, [x0], #1
   83acc:	11000421 	add	w1, w1, #0x1
   83ad0:	35ffffc3 	cbnz	w3, 83ac8 <cntTimeStamp+0x88>
   83ad4:	34000782 	cbz	w2, 83bc4 <cntTimeStamp+0x184>
   83ad8:	910163ab 	add	x11, x29, #0x58
   83adc:	91000560 	add	x0, x11, #0x1
   83ae0:	52800003 	mov	w3, #0x0                   	// #0
   83ae4:	d503201f 	nop
   83ae8:	38401405 	ldrb	w5, [x0], #1
   83aec:	11000463 	add	w3, w3, #0x1
   83af0:	35ffffc5 	cbnz	w5, 83ae8 <cntTimeStamp+0xa8>
   83af4:	340005e1 	cbz	w1, 83bb0 <cntTimeStamp+0x170>
   83af8:	910043a2 	add	x2, x29, #0x10
   83afc:	d2800000 	mov	x0, #0x0                   	// #0
   83b00:	14000002 	b	83b08 <cntTimeStamp+0xc8>
   83b04:	38626804 	ldrb	w4, [x0, x2]
   83b08:	38206944 	strb	w4, [x10, x0]
   83b0c:	91000400 	add	x0, x0, #0x1
   83b10:	6b00003f 	cmp	w1, w0
   83b14:	54ffff8c 	b.gt	83b04 <cntTimeStamp+0xc4>
   83b18:	11000424 	add	w4, w1, #0x1
   83b1c:	528005c0 	mov	w0, #0x2e                  	// #46
   83b20:	3821c940 	strb	w0, [x10, w1, sxtw]
   83b24:	910163ab 	add	x11, x29, #0x58
   83b28:	93407c82 	sxtw	x2, w4
   83b2c:	aa0203e0 	mov	x0, x2
   83b30:	34000143 	cbz	w3, 83b58 <cntTimeStamp+0x118>
   83b34:	8b020142 	add	x2, x10, x2
   83b38:	d2800000 	mov	x0, #0x0                   	// #0
   83b3c:	d503201f 	nop
   83b40:	38606961 	ldrb	w1, [x11, x0]
   83b44:	38206841 	strb	w1, [x2, x0]
   83b48:	91000400 	add	x0, x0, #0x1
   83b4c:	6b00007f 	cmp	w3, w0
   83b50:	54ffff8c 	b.gt	83b40 <cntTimeStamp+0x100>
   83b54:	0b030080 	add	w0, w4, w3
   83b58:	3820695f 	strb	wzr, [x10, x0]
   83b5c:	a8ca7bfd 	ldp	x29, x30, [sp], #160
   83b60:	d65f03c0 	ret
   83b64:	910043a1 	add	x1, x29, #0x10
   83b68:	aa0603e0 	mov	x0, x6
   83b6c:	97fffefb 	bl	83758 <ullToStr.part.0>
   83b70:	b4fff9c9 	cbz	x9, 83aa8 <cntTimeStamp+0x68>
   83b74:	910163ab 	add	x11, x29, #0x58
   83b78:	aa0903e0 	mov	x0, x9
   83b7c:	aa0b03e1 	mov	x1, x11
   83b80:	97fffef6 	bl	83758 <ullToStr.part.0>
   83b84:	394043a4 	ldrb	w4, [x29, #16]
   83b88:	394163a2 	ldrb	w2, [x29, #88]
   83b8c:	35fff984 	cbnz	w4, 83abc <cntTimeStamp+0x7c>
   83b90:	52800001 	mov	w1, #0x0                   	// #0
   83b94:	35fffa42 	cbnz	w2, 83adc <cntTimeStamp+0x9c>
   83b98:	528005c1 	mov	w1, #0x2e                  	// #46
   83b9c:	d2800020 	mov	x0, #0x1                   	// #1
   83ba0:	39000141 	strb	w1, [x10]
   83ba4:	17ffffed 	b	83b58 <cntTimeStamp+0x118>
   83ba8:	d2800009 	mov	x9, #0x0                   	// #0
   83bac:	17ffffbb 	b	83a98 <cntTimeStamp+0x58>
   83bb0:	528005c0 	mov	w0, #0x2e                  	// #46
   83bb4:	52800024 	mov	w4, #0x1                   	// #1
   83bb8:	39000140 	strb	w0, [x10]
   83bbc:	d2800022 	mov	x2, #0x1                   	// #1
   83bc0:	17ffffdd 	b	83b34 <cntTimeStamp+0xf4>
   83bc4:	52800003 	mov	w3, #0x0                   	// #0
   83bc8:	17ffffcc 	b	83af8 <cntTimeStamp+0xb8>
   83bcc:	910163ab 	add	x11, x29, #0x58
   83bd0:	52800001 	mov	w1, #0x0                   	// #0
   83bd4:	17ffffc2 	b	83adc <cntTimeStamp+0x9c>

0000000000083bd8 <show_allocator_alloc_message>:
   83bd8:	a9bc7bfd 	stp	x29, x30, [sp, #-64]!
   83bdc:	910003fd 	mov	x29, sp
   83be0:	a90153f3 	stp	x19, x20, [sp, #16]
   83be4:	910103b3 	add	x19, x29, #0x40
   83be8:	f90013f5 	str	x21, [sp, #32]
   83bec:	aa0003f4 	mov	x20, x0
   83bf0:	2a0103f5 	mov	w21, w1
   83bf4:	b0000000 	adrp	x0, 84000 <dynamic_allocator_init+0x68>
   83bf8:	a9bf7e7f 	stp	xzr, xzr, [x19, #-16]!
   83bfc:	91138000 	add	x0, x0, #0x4e0
   83c00:	97fff928 	bl	820a0 <uart_puts>
   83c04:	aa1303e1 	mov	x1, x19
   83c08:	93407ea0 	sxtw	x0, w21
   83c0c:	97ffff77 	bl	839e8 <ullToStr>
   83c10:	aa1303e0 	mov	x0, x19
   83c14:	97fff923 	bl	820a0 <uart_puts>
   83c18:	b0000000 	adrp	x0, 84000 <dynamic_allocator_init+0x68>
   83c1c:	91140000 	add	x0, x0, #0x500
   83c20:	97fff920 	bl	820a0 <uart_puts>
   83c24:	aa1303e1 	mov	x1, x19
   83c28:	aa1403e0 	mov	x0, x20
   83c2c:	97ffff75 	bl	83a00 <ullToStr_hex>
   83c30:	aa1303e0 	mov	x0, x19
   83c34:	97fff91b 	bl	820a0 <uart_puts>
   83c38:	b0000000 	adrp	x0, 84000 <dynamic_allocator_init+0x68>
   83c3c:	91144000 	add	x0, x0, #0x510
   83c40:	97fff918 	bl	820a0 <uart_puts>
   83c44:	f94013f5 	ldr	x21, [sp, #32]
   83c48:	a94153f3 	ldp	x19, x20, [sp, #16]
   83c4c:	a8c47bfd 	ldp	x29, x30, [sp], #64
   83c50:	d65f03c0 	ret
   83c54:	d503201f 	nop

0000000000083c58 <show_allocator_free_message>:
   83c58:	a9bc7bfd 	stp	x29, x30, [sp, #-64]!
   83c5c:	910003fd 	mov	x29, sp
   83c60:	a90153f3 	stp	x19, x20, [sp, #16]
   83c64:	910103b3 	add	x19, x29, #0x40
   83c68:	f90013f5 	str	x21, [sp, #32]
   83c6c:	aa0003f4 	mov	x20, x0
   83c70:	2a0103f5 	mov	w21, w1
   83c74:	b0000000 	adrp	x0, 84000 <dynamic_allocator_init+0x68>
   83c78:	a9bf7e7f 	stp	xzr, xzr, [x19, #-16]!
   83c7c:	91146000 	add	x0, x0, #0x518
   83c80:	97fff908 	bl	820a0 <uart_puts>
   83c84:	aa1303e1 	mov	x1, x19
   83c88:	93407ea0 	sxtw	x0, w21
   83c8c:	97ffff57 	bl	839e8 <ullToStr>
   83c90:	aa1303e0 	mov	x0, x19
   83c94:	97fff903 	bl	820a0 <uart_puts>
   83c98:	b0000000 	adrp	x0, 84000 <dynamic_allocator_init+0x68>
   83c9c:	91140000 	add	x0, x0, #0x500
   83ca0:	97fff900 	bl	820a0 <uart_puts>
   83ca4:	aa1303e1 	mov	x1, x19
   83ca8:	aa1403e0 	mov	x0, x20
   83cac:	97ffff55 	bl	83a00 <ullToStr_hex>
   83cb0:	aa1303e0 	mov	x0, x19
   83cb4:	97fff8fb 	bl	820a0 <uart_puts>
   83cb8:	b0000000 	adrp	x0, 84000 <dynamic_allocator_init+0x68>
   83cbc:	91144000 	add	x0, x0, #0x510
   83cc0:	97fff8f8 	bl	820a0 <uart_puts>
   83cc4:	f94013f5 	ldr	x21, [sp, #32]
   83cc8:	a94153f3 	ldp	x19, x20, [sp, #16]
   83ccc:	a8c47bfd 	ldp	x29, x30, [sp], #64
   83cd0:	d65f03c0 	ret
   83cd4:	d503201f 	nop

0000000000083cd8 <PFN2ADDR>:
   83cd8:	53144c00 	lsl	w0, w0, #12
   83cdc:	93407c00 	sxtw	x0, w0
   83ce0:	b2503c00 	orr	x0, x0, #0xffff000000000000
   83ce4:	d65f03c0 	ret

0000000000083ce8 <fix_allocator_request_page>:
   83ce8:	a9be7bfd 	stp	x29, x30, [sp, #-32]!
   83cec:	910003fd 	mov	x29, sp
   83cf0:	f9000bf3 	str	x19, [sp, #16]
   83cf4:	aa0003f3 	mov	x19, x0
   83cf8:	52800020 	mov	w0, #0x1                   	// #1
   83cfc:	97fffcd3 	bl	83048 <buddy_alloc>
   83d00:	b9406261 	ldr	w1, [x19, #96]
   83d04:	f9403664 	ldr	x4, [x19, #104]
   83d08:	11000422 	add	w2, w1, #0x1
   83d0c:	93407c21 	sxtw	x1, w1
   83d10:	91004023 	add	x3, x1, #0x10
   83d14:	f8217a64 	str	x4, [x19, x1, lsl #3]
   83d18:	b8237a60 	str	w0, [x19, x3, lsl #2]
   83d1c:	b9006262 	str	w2, [x19, #96]
   83d20:	f9400bf3 	ldr	x19, [sp, #16]
   83d24:	a8c27bfd 	ldp	x29, x30, [sp], #32
   83d28:	d65f03c0 	ret
   83d2c:	d503201f 	nop

0000000000083d30 <fix_allocator_init>:
   83d30:	a9bd7bfd 	stp	x29, x30, [sp, #-48]!
   83d34:	d0000002 	adrp	x2, 85000 <zombieReaper_pcb>
   83d38:	d2f00003 	mov	x3, #0x8000000000000000    	// #-9223372036854775808
   83d3c:	7101001f 	cmp	w0, #0x40
   83d40:	910003fd 	mov	x29, sp
   83d44:	a9025bf5 	stp	x21, x22, [sp, #32]
   83d48:	b940a056 	ldr	w22, [x2, #160]
   83d4c:	a90153f3 	stp	x19, x20, [sp, #16]
   83d50:	d0000013 	adrp	x19, 85000 <zombieReaper_pcb>
   83d54:	110006c1 	add	w1, w22, #0x1
   83d58:	b900a041 	str	w1, [x2, #160]
   83d5c:	93407ec2 	sxtw	x2, w22
   83d60:	f9400e64 	ldr	x4, [x19, #24]
   83d64:	d37df041 	lsl	x1, x2, #3
   83d68:	cb020021 	sub	x1, x1, x2
   83d6c:	8b011081 	add	x1, x4, x1, lsl #4
   83d70:	290c003f 	stp	wzr, w0, [x1, #96]
   83d74:	540000a0 	b.eq	83d88 <fix_allocator_init+0x58>  // b.none
   83d78:	52820001 	mov	w1, #0x1000                	// #4096
   83d7c:	92800003 	mov	x3, #0xffffffffffffffff    	// #-1
   83d80:	1ac00c20 	sdiv	w0, w1, w0
   83d84:	9ac02063 	lsl	x3, x3, x0
   83d88:	f9400e73 	ldr	x19, [x19, #24]
   83d8c:	d37df054 	lsl	x20, x2, #3
   83d90:	cb020294 	sub	x20, x20, x2
   83d94:	52800020 	mov	w0, #0x1                   	// #1
   83d98:	8b141275 	add	x21, x19, x20, lsl #4
   83d9c:	f90036a3 	str	x3, [x21, #104]
   83da0:	97fffcaa 	bl	83048 <buddy_alloc>
   83da4:	b94062a1 	ldr	w1, [x21, #96]
   83da8:	52800e03 	mov	w3, #0x70                  	// #112
   83dac:	f94036a4 	ldr	x4, [x21, #104]
   83db0:	11000422 	add	w2, w1, #0x1
   83db4:	b90062a2 	str	w2, [x21, #96]
   83db8:	93407c21 	sxtw	x1, w1
   83dbc:	8b140822 	add	x2, x1, x20, lsl #2
   83dc0:	8b140434 	add	x20, x1, x20, lsl #1
   83dc4:	91004041 	add	x1, x2, #0x10
   83dc8:	f8347a64 	str	x4, [x19, x20, lsl #3]
   83dcc:	b8217a60 	str	w0, [x19, x1, lsl #2]
   83dd0:	9b234ec0 	smaddl	x0, w22, w3, x19
   83dd4:	a94153f3 	ldp	x19, x20, [sp, #16]
   83dd8:	a9425bf5 	ldp	x21, x22, [sp, #32]
   83ddc:	a8c37bfd 	ldp	x29, x30, [sp], #48
   83de0:	d65f03c0 	ret
   83de4:	d503201f 	nop

0000000000083de8 <find_mem_pool>:
   83de8:	aa0003e4 	mov	x4, x0
   83dec:	52800023 	mov	w3, #0x1                   	// #1
   83df0:	52800000 	mov	w0, #0x0                   	// #0
   83df4:	f9400082 	ldr	x2, [x4]
   83df8:	14000004 	b	83e08 <find_mem_pool+0x20>
   83dfc:	11000400 	add	w0, w0, #0x1
   83e00:	7101001f 	cmp	w0, #0x40
   83e04:	54000100 	b.eq	83e24 <find_mem_pool+0x3c>  // b.none
   83e08:	1ac02061 	lsl	w1, w3, w0
   83e0c:	93407c21 	sxtw	x1, w1
   83e10:	ea02003f 	tst	x1, x2
   83e14:	54ffff41 	b.ne	83dfc <find_mem_pool+0x14>  // b.any
   83e18:	aa020021 	orr	x1, x1, x2
   83e1c:	f9000081 	str	x1, [x4]
   83e20:	d65f03c0 	ret
   83e24:	12800000 	mov	w0, #0xffffffff            	// #-1
   83e28:	d65f03c0 	ret
   83e2c:	d503201f 	nop

0000000000083e30 <fix_alloc>:
   83e30:	a9be7bfd 	stp	x29, x30, [sp, #-32]!
   83e34:	910003fd 	mov	x29, sp
   83e38:	b9406003 	ldr	w3, [x0, #96]
   83e3c:	a90153f3 	stp	x19, x20, [sp, #16]
   83e40:	aa0003f4 	mov	x20, x0
   83e44:	52800033 	mov	w19, #0x1                   	// #1
   83e48:	51000463 	sub	w3, w3, #0x1
   83e4c:	52800002 	mov	w2, #0x0                   	// #0
   83e50:	93407c63 	sxtw	x3, w3
   83e54:	f8637a81 	ldr	x1, [x20, x3, lsl #3]
   83e58:	14000004 	b	83e68 <fix_alloc+0x38>
   83e5c:	11000442 	add	w2, w2, #0x1
   83e60:	7101005f 	cmp	w2, #0x40
   83e64:	540002c0 	b.eq	83ebc <fix_alloc+0x8c>  // b.none
   83e68:	1ac22260 	lsl	w0, w19, w2
   83e6c:	93407c00 	sxtw	x0, w0
   83e70:	ea01001f 	tst	x0, x1
   83e74:	54ffff41 	b.ne	83e5c <fix_alloc+0x2c>  // b.any
   83e78:	91004065 	add	x5, x3, #0x10
   83e7c:	aa010000 	orr	x0, x0, x1
   83e80:	b9406684 	ldr	w4, [x20, #100]
   83e84:	f8237a80 	str	x0, [x20, x3, lsl #3]
   83e88:	b8657a80 	ldr	w0, [x20, x5, lsl #2]
   83e8c:	2a0403e1 	mov	w1, w4
   83e90:	1b027c82 	mul	w2, w4, w2
   83e94:	53144c00 	lsl	w0, w0, #12
   83e98:	93407c00 	sxtw	x0, w0
   83e9c:	b2503c00 	orr	x0, x0, #0xffff000000000000
   83ea0:	8b22c013 	add	x19, x0, w2, sxtw
   83ea4:	aa1303e0 	mov	x0, x19
   83ea8:	97ffff4c 	bl	83bd8 <show_allocator_alloc_message>
   83eac:	aa1303e0 	mov	x0, x19
   83eb0:	a94153f3 	ldp	x19, x20, [sp, #16]
   83eb4:	a8c27bfd 	ldp	x29, x30, [sp], #32
   83eb8:	d65f03c0 	ret
   83ebc:	52800020 	mov	w0, #0x1                   	// #1
   83ec0:	97fffc62 	bl	83048 <buddy_alloc>
   83ec4:	b9406281 	ldr	w1, [x20, #96]
   83ec8:	f9403684 	ldr	x4, [x20, #104]
   83ecc:	11000423 	add	w3, w1, #0x1
   83ed0:	93407c21 	sxtw	x1, w1
   83ed4:	91004022 	add	x2, x1, #0x10
   83ed8:	f8217a84 	str	x4, [x20, x1, lsl #3]
   83edc:	b8227a80 	str	w0, [x20, x2, lsl #2]
   83ee0:	b9006283 	str	w3, [x20, #96]
   83ee4:	17ffffd9 	b	83e48 <fix_alloc+0x18>

0000000000083ee8 <fix_free>:
   83ee8:	b9406005 	ldr	w5, [x0, #96]
   83eec:	d34cbc22 	ubfx	x2, x1, #12, #36
   83ef0:	710000bf 	cmp	w5, #0x0
   83ef4:	540001cd 	b.le	83f2c <fix_free+0x44>
   83ef8:	b9404003 	ldr	w3, [x0, #64]
   83efc:	6b02007f 	cmp	w3, w2
   83f00:	540001a0 	b.eq	83f34 <fix_free+0x4c>  // b.none
   83f04:	2a0203e6 	mov	w6, w2
   83f08:	91011003 	add	x3, x0, #0x44
   83f0c:	52800002 	mov	w2, #0x0                   	// #0
   83f10:	14000004 	b	83f20 <fix_free+0x38>
   83f14:	b8404464 	ldr	w4, [x3], #4
   83f18:	6b06009f 	cmp	w4, w6
   83f1c:	540000e0 	b.eq	83f38 <fix_free+0x50>  // b.none
   83f20:	11000442 	add	w2, w2, #0x1
   83f24:	6b05005f 	cmp	w2, w5
   83f28:	54ffff61 	b.ne	83f14 <fix_free+0x2c>  // b.any
   83f2c:	52800000 	mov	w0, #0x0                   	// #0
   83f30:	d65f03c0 	ret
   83f34:	52800002 	mov	w2, #0x0                   	// #0
   83f38:	aa0003e3 	mov	x3, x0
   83f3c:	a9be7bfd 	stp	x29, x30, [sp, #-32]!
   83f40:	aa0103e0 	mov	x0, x1
   83f44:	92402c24 	and	x4, x1, #0xfff
   83f48:	910003fd 	mov	x29, sp
   83f4c:	b9406466 	ldr	w6, [x3, #100]
   83f50:	93407c42 	sxtw	x2, w2
   83f54:	2a0603e1 	mov	w1, w6
   83f58:	93407cc6 	sxtw	x6, w6
   83f5c:	f8627865 	ldr	x5, [x3, x2, lsl #3]
   83f60:	f9000bf3 	str	x19, [sp, #16]
   83f64:	52800033 	mov	w19, #0x1                   	// #1
   83f68:	9ac60884 	udiv	x4, x4, x6
   83f6c:	1ac42264 	lsl	w4, w19, w4
   83f70:	2a2403e4 	mvn	w4, w4
   83f74:	93407c84 	sxtw	x4, w4
   83f78:	8a0400a4 	and	x4, x5, x4
   83f7c:	f8227864 	str	x4, [x3, x2, lsl #3]
   83f80:	97ffff36 	bl	83c58 <show_allocator_free_message>
   83f84:	2a1303e0 	mov	w0, w19
   83f88:	f9400bf3 	ldr	x19, [sp, #16]
   83f8c:	a8c27bfd 	ldp	x29, x30, [sp], #32
   83f90:	d65f03c0 	ret
   83f94:	d503201f 	nop

0000000000083f98 <dynamic_allocator_init>:
   83f98:	a9bd7bfd 	stp	x29, x30, [sp, #-48]!
   83f9c:	d0000001 	adrp	x1, 85000 <zombieReaper_pcb>
   83fa0:	91028021 	add	x1, x1, #0xa0
   83fa4:	52804000 	mov	w0, #0x200                 	// #512
   83fa8:	910003fd 	mov	x29, sp
   83fac:	a90153f3 	stp	x19, x20, [sp, #16]
   83fb0:	d0000013 	adrp	x19, 85000 <zombieReaper_pcb>
   83fb4:	b9400434 	ldr	w20, [x1, #4]
   83fb8:	f90013f5 	str	x21, [sp, #32]
   83fbc:	11000682 	add	w2, w20, #0x1
   83fc0:	b9000422 	str	w2, [x1, #4]
   83fc4:	97ffff5b 	bl	83d30 <fix_allocator_init>
   83fc8:	f9401e73 	ldr	x19, [x19, #56]
   83fcc:	93407e81 	sxtw	x1, w20
   83fd0:	8b010421 	add	x1, x1, x1, lsl #1
   83fd4:	d37df021 	lsl	x1, x1, #3
   83fd8:	8b010275 	add	x21, x19, x1
   83fdc:	f8216a60 	str	x0, [x19, x1]
   83fe0:	52810000 	mov	w0, #0x800                 	// #2048
   83fe4:	97ffff53 	bl	83d30 <fix_allocator_init>
   83fe8:	f90006a0 	str	x0, [x21, #8]
   83fec:	52820000 	mov	w0, #0x1000                	// #4096
   83ff0:	97ffff50 	bl	83d30 <fix_allocator_init>
   83ff4:	f9000aa0 	str	x0, [x21, #16]
   83ff8:	52800301 	mov	w1, #0x18                  	// #24
   83ffc:	f94013f5 	ldr	x21, [sp, #32]
   84000:	9b214e80 	smaddl	x0, w20, w1, x19
   84004:	a94153f3 	ldp	x19, x20, [sp, #16]
   84008:	a8c37bfd 	ldp	x29, x30, [sp], #48
   8400c:	d65f03c0 	ret

0000000000084010 <dynamic_alloc>:
   84010:	7108003f 	cmp	w1, #0x200
   84014:	5400024d 	b.le	8405c <dynamic_alloc+0x4c>
   84018:	7120003f 	cmp	w1, #0x800
   8401c:	540001cd 	b.le	84054 <dynamic_alloc+0x44>
   84020:	7140043f 	cmp	w1, #0x1, lsl #12
   84024:	5400020d 	b.le	84064 <dynamic_alloc+0x54>
   84028:	f2402c3f 	tst	x1, #0xfff
   8402c:	130c7c21 	asr	w1, w1, #12
   84030:	a9bf7bfd 	stp	x29, x30, [sp, #-16]!
   84034:	1a810420 	cinc	w0, w1, ne  // ne = any
   84038:	910003fd 	mov	x29, sp
   8403c:	97fffc03 	bl	83048 <buddy_alloc>
   84040:	53144c00 	lsl	w0, w0, #12
   84044:	a8c17bfd 	ldp	x29, x30, [sp], #16
   84048:	93407c00 	sxtw	x0, w0
   8404c:	b2503c00 	orr	x0, x0, #0xffff000000000000
   84050:	d65f03c0 	ret
   84054:	f9400400 	ldr	x0, [x0, #8]
   84058:	17ffff76 	b	83e30 <fix_alloc>
   8405c:	f9400000 	ldr	x0, [x0]
   84060:	17ffff74 	b	83e30 <fix_alloc>
   84064:	f9400800 	ldr	x0, [x0, #16]
   84068:	17ffff72 	b	83e30 <fix_alloc>
   8406c:	d503201f 	nop

0000000000084070 <dynamic_free>:
   84070:	a9be7bfd 	stp	x29, x30, [sp, #-32]!
   84074:	910003fd 	mov	x29, sp
   84078:	a90153f3 	stp	x19, x20, [sp, #16]
   8407c:	aa0003f3 	mov	x19, x0
   84080:	f9400000 	ldr	x0, [x0]
   84084:	aa0103f4 	mov	x20, x1
   84088:	97ffff98 	bl	83ee8 <fix_free>
   8408c:	34000080 	cbz	w0, 8409c <dynamic_free+0x2c>
   84090:	a94153f3 	ldp	x19, x20, [sp, #16]
   84094:	a8c27bfd 	ldp	x29, x30, [sp], #32
   84098:	d65f03c0 	ret
   8409c:	f9400660 	ldr	x0, [x19, #8]
   840a0:	aa1403e1 	mov	x1, x20
   840a4:	97ffff91 	bl	83ee8 <fix_free>
   840a8:	35ffff40 	cbnz	w0, 84090 <dynamic_free+0x20>
   840ac:	f9400a60 	ldr	x0, [x19, #16]
   840b0:	aa1403e1 	mov	x1, x20
   840b4:	97ffff8d 	bl	83ee8 <fix_free>
   840b8:	35fffec0 	cbnz	w0, 84090 <dynamic_free+0x20>
   840bc:	d34cae80 	ubfx	x0, x20, #12, #32
   840c0:	a94153f3 	ldp	x19, x20, [sp, #16]
   840c4:	a8c27bfd 	ldp	x29, x30, [sp], #32
   840c8:	17fffcae 	b	83380 <buddy_free>
   840cc:	00000000 	.inst	0x00000000 ; undefined

00000000000840d0 <arm_local_timer_init>:
   840d0:	d2800680 	mov	x0, #0x34                  	// #52
   840d4:	52a6a001 	mov	w1, #0x35000000            	// #889192448
   840d8:	f2a80000 	movk	x0, #0x4000, lsl #16
   840dc:	b9000001 	str	w1, [x0]
   840e0:	d65f03c0 	ret
   840e4:	d503201f 	nop

00000000000840e8 <arm_local_timer_handler>:
   840e8:	d2800700 	mov	x0, #0x38                  	// #56
   840ec:	52b80001 	mov	w1, #0xc0000000            	// #-1073741824
   840f0:	f2a80000 	movk	x0, #0x4000, lsl #16
   840f4:	b9000001 	str	w1, [x0]
   840f8:	d65f03c0 	ret
   840fc:	d503201f 	nop

0000000000084100 <arm_local_timer_cancel>:
   84100:	d2800680 	mov	x0, #0x34                  	// #52
   84104:	f2a80000 	movk	x0, #0x4000, lsl #16
   84108:	b900001f 	str	wzr, [x0]
   8410c:	d65f03c0 	ret

0000000000084110 <core_timer_handler>:
   84110:	12bff400 	mov	w0, #0x5fffff              	// #6291455
   84114:	aa0003e0 	mov	x0, x0
   84118:	d51be200 	msr	cntp_tval_el0, x0
   8411c:	d65f03c0 	ret

0000000000084120 <core_timer_enable>:
   84120:	12bff400 	mov	w0, #0x5fffff              	// #6291455
   84124:	aa0003e0 	mov	x0, x0
   84128:	d51be200 	msr	cntp_tval_el0, x0
   8412c:	d2800020 	mov	x0, #0x1                   	// #1
   84130:	d51be220 	msr	cntp_ctl_el0, x0
   84134:	d2800800 	mov	x0, #0x40                  	// #64
   84138:	52800041 	mov	w1, #0x2                   	// #2
   8413c:	f2a80000 	movk	x0, #0x4000, lsl #16
   84140:	b9000001 	str	w1, [x0]
   84144:	d65f03c0 	ret

0000000000084148 <core_timer_cancel>:
   84148:	d2800800 	mov	x0, #0x40                  	// #64
   8414c:	f2a80000 	movk	x0, #0x4000, lsl #16
   84150:	b900001f 	str	wzr, [x0]
   84154:	d65f03c0 	ret
